(lp0
ccopy_reg
_reconstructor
p1
(cvxcctrl
PageDef
p2
c__builtin__
object
p3
Ntp4
Rp5
(dp6
S'collength'
p7
(dp8
I0
I1
sI1
I1
ssS'blocks'
p9
(lp10
g1
(cvxcctrl
BlockDef
p11
g3
Ntp12
Rp13
(dp14
S'valrange'
p15
(I0
I7
tp16
sS'name'
p17
VOsc 1
p18
sS'cid'
p19
(I3
I30
tp20
sS'modetype'
p21
I1
sS'ctrldefs'
p22
(lp23
g1
(cvxcctrl
CtrlDef
p24
g3
Ntp25
Rp26
(dp27
g15
(I0
I7
tp28
sS'modes'
p29
(lp30
I0
aI1
aI2
aI3
aI4
aI5
aI6
aI7
asg19
(I3
I30
tp31
sS'ctype'
p32
I1
sS'valinfo'
p33
(dp34
I0
VClassic
p35
sI1
VHyperSaw
p36
sI2
VWavetable
p37
sI3
VWave PWM
p38
sI4
VGrain Simple
p39
sI5
VGrain Complex
p40
sI6
VFormant Simple
p41
sI7
VFormant Complex
p42
ssg17
VMode
p43
sbag1
(g24
g3
Ntp44
Rp45
(dp46
g15
(I0
I127
tp47
sg29
(lp48
I0
asg19
(I0
I17
tp49
sg32
I2
sg33
(dp50
I0
VWave
p51
sI1
VWave>Saw
p52
sI2
VSaw
p53
sI3
VSaw>Pulse
p54
sI4
VPulse
p55
ssg17
VShape
p56
sbag1
(g24
g3
Ntp57
Rp58
(dp59
g15
(I0
I127
tp60
sg29
(lp61
I1
asg19
(I0
I17
tp62
sg32
I8
sg33
(dp63
I0
V1 0
p64
sI1
V1.6 17
p65
sI2
V2 32
p66
sI3
V3 64
p67
sI4
V4 80
p68
sI5
V5 96
p69
sI6
V6 104
p70
sI7
V7 112
p71
sI8
V8 120
p72
sI9
V9 127
p73
ssg17
VDensity
p74
sbag1
(g24
g3
Ntp75
Rp76
(dp77
g15
(I0
I127
tp78
sg29
(lp79
I2
aI3
aI4
aI5
aI6
aI7
asg19
(I0
I17
tp80
sg32
I0
sg33
(dp81
sg17
VIndex
p82
sbag1
(g24
g3
Ntp83
Rp84
(dp85
g15
(I2
I63
tp86
sg29
(lp87
I0
asg19
(I0
I19
tp88
sg32
I12
sg33
(dp89
I0
VSine
p90
sI1
VTriangle
p91
sI2
VWave 3
p92
ssg17
VWave Sel
p93
sbag1
(g24
g3
Ntp94
Rp95
(dp96
g15
(I0
I99
tp97
sg29
(lp98
I2
aI3
aI4
aI5
aI6
aI7
asg19
(I0
I19
tp99
sg32
I1
sg33
(dp100
I0
VSine
p101
sI1
VHarmncSweep
p102
sI2
VGlass Sweep
p103
sI3
VDraw Bars
p104
sI4
VCluster
p105
sI5
VInsine Out
p106
sI6
VLanding
p107
sI7
VLiquid Metal
p108
sI8
VOpposition
p109
sI9
VOvertunes 1
p110
sI10
VOvertunes 2
p111
sI11
VScale Trix
p112
sI12
VSine Rider
p113
sI13
VSqr Series
p114
sI14
VUpsine Down
p115
sI15
VThumbs Up
p116
sI16
VWaterphone
p117
sI17
VE-Chime
p118
sI18
VTinkabell
p119
sI19
VBellfizz
p120
sI20
VBellentine
p121
sI21
VRobot Wars
p122
sI22
VAlternator
p123
sI23
VFinger Bass
p124
sI24
VFizzybar
p125
sI25
VFlutes
p126
sI26
VHP Love
p127
sI27
VMajestix
p128
sI28
VHotch Potch
p129
sI29
VResynater
p130
sI30
VSmooth Rough
p131
sI31
VSawsalito
p132
sI32
VBells 1
p133
sI33
VBells 2
p134
sI34
VSportReport
p135
sI35
VMetal Guru
p136
sI36
VBat Cave
p137
sI37
VAcetate
p138
sI38
VBuzzbizz
p139
sI39
VBuzzpartout
p140
sI40
VVanish
p141
sI41
VOverbones
p142
sI42
VPulsechecker
p143
sI43
VStratosfear
p144
sI44
VSooty Sweep
p145
sI45
VThroaty
p146
sI46
VDidgitalis
p147
sI47
VEvil
p148
sI48
VChords
p149
sI49
VFM Grit
p150
sI50
VBellsarnie
p151
sI51
VOctavius
p152
sI52
VEat Pulse
p153
sI53
VSinzin
p154
sI54
VSine System
p155
sI55
VClip Sweep
p156
sI56
VRoughage
p157
sI57
VWaving
p158
sI58
VPling Saw
p159
sI59
VE-Peas
p160
sI60
VBump Sweep
p161
sI61
VFilter Sqr
p162
sI62
VFourmant
p163
sI63
VFormantera
p164
sI64
VSundial 1
p165
sI65
VSundial 2
p166
sI66
VSundial 3
p167
sI67
VClipdial 1
p168
sI68
VClipdial 2
p169
sI69
VVoxonix
p170
sI70
VSolenoid
p171
sI71
VKlingKlang
p172
sI72
VViolator
p173
sI73
VPotassium
p174
sI74
VPile Up
p175
sI75
VTincanali
p176
sI76
VSniper
p177
sI77
VSqueezy
p178
sI78
VDecomposer
p179
sI79
VMorfants
p180
sI80
VPingvox
p181
sI81
VAdenoids
p182
sI82
VNasal
p183
sI83
VPartialism
p184
sI84
VTableDance
p185
sI85
VCascade
p186
sI86
VPrismism
p187
sI87
VFriction
p188
sI88
VRobotix
p189
sI89
VWhizzfizz
p190
sI90
VSpangly
p191
sI91
VFluxbin
p192
sI92
VFiboglide
p193
sI93
VFibonice
p194
sI94
VFibonasty
p195
sI95
VPenetrator
p196
sI96
VBlinder
p197
sI97
VElement 5
p198
sI98
VBad Signs
p199
sI99
VDomina7rix
p200
ssg17
VWaveTable
p201
sbag1
(g24
g3
Ntp202
Rp203
(dp204
g15
(I0
I127
tp205
sg29
(lp206
I0
asg19
(I0
I18
tp207
sg32
I7
sg33
(dp208
I0
V50
p209
sI1
V100
p210
ssg17
VPulse Width
p211
sbag1
(g24
g3
Ntp212
Rp213
(dp214
g15
g205
sg29
(lp215
I3
asg19
g207
sg32
I0
sg33
(dp216
I0
g209
sI1
g210
ssg17
VPulse Width
p217
sbag1
(g24
g3
Ntp218
Rp219
(dp220
g15
(I0
I127
tp221
sg29
(lp222
I1
asg19
(I0
I18
tp223
sg32
I0
sg33
(dp224
sg17
VLocal Detune
p225
sbag1
(g24
g3
Ntp226
Rp227
(dp228
g15
(I0
I127
tp229
sg29
(lp230
I4
aI5
aI6
aI7
asg19
(I3
I42
tp231
sg32
I4
sg33
(dp232
sg17
VF-Shift
p233
sbag1
(g24
g3
Ntp234
Rp235
(dp236
g15
g229
sg29
(lp237
I5
aI7
asg19
(I3
I37
tp238
sg32
I0
sg33
(dp239
sg17
VF-Spread
p240
sbag1
(g24
g3
Ntp241
Rp242
(dp243
g15
g229
sg29
(lp244
I2
aI3
aI4
aI5
aI6
aI7
asg19
(I3
I44
tp245
sg32
I0
sg33
(dp246
sg17
VInterpolation
p247
sbag1
(g24
g3
Ntp248
Rp249
(dp250
g15
g229
sg29
(lp251
I3
aI5
aI7
asg19
(I3
I43
tp252
sg32
I0
sg33
(dp253
sg17
VLocal Detune
p254
sbag1
(g24
g3
Ntp255
Rp256
(dp257
g15
(I0
I127
tp258
sg29
(lp259
sg19
(I0
I17
tp260
sg32
I11
sg33
(dp261
sg17
V----
p262
sbag1
(g24
g3
Ntp263
Rp264
(dp265
g15
(I16
I112
tp266
sg29
(lp267
I0
aI1
aI2
aI3
aI4
aI5
aI6
aI7
asg19
(I0
I20
tp268
sg32
I4
sg33
(dp269
sg17
VSemitone
p270
sbag1
(g24
g3
Ntp271
Rp272
(dp273
g15
(I0
I127
tp274
sg29
(lp275
I0
aI1
aI2
aI3
aI4
aI5
aI6
aI7
asg19
(I0
I21
tp276
sg32
I6
sg33
(dp277
I0
VNorm 32
p278
ssg17
VKey Follow
p279
sbasg33
(dp280
sbag1
(g11
g3
Ntp281
Rp282
(dp283
g15
g16
sg17
VOsc 2
p284
sg19
(I3
I35
tp285
sg21
I1
sg22
(lp286
g1
(g24
g3
Ntp287
Rp288
(dp289
g15
g28
sg29
(lp290
I0
aI1
aI2
aI3
aI4
aI5
aI6
aI7
asg19
(I3
I35
tp291
sg32
I1
sg33
(dp292
I0
g35
sI1
g36
sI2
g37
sI3
g38
sI4
VGrain Simple
p293
sI5
VGrain Complex
p294
sI6
VFormant Simple
p295
sI7
VFormant Complex
p296
ssg17
VMode
p297
sbag1
(g24
g3
Ntp298
Rp299
(dp300
g15
g47
sg29
(lp301
I0
asg19
(I0
I22
tp302
sg32
I2
sg33
(dp303
I0
g51
sI1
g52
sI2
g53
sI3
g54
sI4
g55
ssg17
VShape
p304
sbag1
(g24
g3
Ntp305
Rp306
(dp307
g15
g60
sg29
(lp308
I1
asg19
(I0
I22
tp309
sg32
I8
sg33
(dp310
I0
g64
sI1
g65
sI2
g66
sI3
g67
sI4
g68
sI5
g69
sI6
g70
sI7
g71
sI8
g72
sI9
g73
ssg17
VDensity
p311
sbag1
(g24
g3
Ntp312
Rp313
(dp314
g15
g78
sg29
(lp315
I2
aI3
aI4
aI5
aI6
aI7
asg19
(I0
I22
tp316
sg32
I0
sg33
(dp317
sg17
VIndex
p318
sbag1
(g24
g3
Ntp319
Rp320
(dp321
g15
g86
sg29
(lp322
I0
asg19
(I0
I24
tp323
sg32
I12
sg33
(dp324
I0
g90
sI1
g91
sI2
g92
ssg17
VWave Sel
p325
sbag1
(g24
g3
Ntp326
Rp327
(dp328
g15
g97
sg29
(lp329
I2
aI3
aI4
aI5
aI6
aI7
asg19
(I0
I24
tp330
sg32
I1
sg33
(dp331
I0
g101
sI1
g102
sI2
g103
sI3
g104
sI4
g105
sI5
g106
sI6
g107
sI7
g108
sI8
g109
sI9
g110
sI10
g111
sI11
g112
sI12
g113
sI13
g114
sI14
g115
sI15
g116
sI16
g117
sI17
g118
sI18
g119
sI19
g120
sI20
g121
sI21
g122
sI22
g123
sI23
g124
sI24
g125
sI25
g126
sI26
g127
sI27
g128
sI28
g129
sI29
g130
sI30
g131
sI31
g132
sI32
g133
sI33
g134
sI34
g135
sI35
g136
sI36
g137
sI37
g138
sI38
g139
sI39
g140
sI40
g141
sI41
g142
sI42
g143
sI43
g144
sI44
g145
sI45
g146
sI46
g147
sI47
g148
sI48
g149
sI49
g150
sI50
g151
sI51
g152
sI52
g153
sI53
g154
sI54
g155
sI55
g156
sI56
g157
sI57
g158
sI58
g159
sI59
g160
sI60
g161
sI61
g162
sI62
g163
sI63
g164
sI64
g165
sI65
g166
sI66
g167
sI67
g168
sI68
g169
sI69
g170
sI70
g171
sI71
g172
sI72
g173
sI73
g174
sI74
g175
sI75
g176
sI76
g177
sI77
g178
sI78
g179
sI79
g180
sI80
g181
sI81
g182
sI82
g183
sI83
g184
sI84
g185
sI85
g186
sI86
g187
sI87
g188
sI88
g189
sI89
g190
sI90
g191
sI91
g192
sI92
g193
sI93
g194
sI94
g195
sI95
g196
sI96
g197
sI97
g198
sI98
g199
sI99
g200
ssg17
VWaveTable
p332
sbag1
(g24
g3
Ntp333
Rp334
(dp335
g15
g205
sg29
(lp336
I0
asg19
(I0
I23
tp337
sg32
I7
sg33
(dp338
I0
g209
sI1
g210
ssg17
VPulse Width
p339
sbag1
(g24
g3
Ntp340
Rp341
(dp342
g15
g205
sg29
(lp343
I3
asg19
(I0
I23
tp344
sg32
I0
sg33
(dp345
I0
g209
sI1
g210
ssg17
VPulse Width
p346
sbag1
(g24
g3
Ntp347
Rp348
(dp349
g15
g221
sg29
(lp350
I1
asg19
(I0
I23
tp351
sg32
I0
sg33
(dp352
sg17
VLocal Detune
p353
sbag1
(g24
g3
Ntp354
Rp355
(dp356
g15
g229
sg29
(lp357
I4
aI5
aI6
aI7
asg19
(I3
I62
tp358
sg32
I4
sg33
(dp359
sg17
VF-Shift
p360
sbag1
(g24
g3
Ntp361
Rp362
(dp363
g15
g229
sg29
(lp364
I5
aI7
asg19
(I3
I57
tp365
sg32
I0
sg33
(dp366
sg17
VF-Spread
p367
sbag1
(g24
g3
Ntp368
Rp369
(dp370
g15
g229
sg29
(lp371
I2
aI3
aI4
aI5
aI6
aI7
asg19
(I3
I64
tp372
sg32
I0
sg33
(dp373
sg17
VInterpolation
p374
sbag1
(g24
g3
Ntp375
Rp376
(dp377
g15
g229
sg29
(lp378
I3
aI5
aI7
asg19
(I3
I63
tp379
sg32
I0
sg33
(dp380
sg17
VLocal Detune
p381
sbag1
(g24
g3
Ntp382
Rp383
(dp384
g15
(I0
I127
tp385
sg29
(lp386
sg19
(I0
I17
tp387
sg32
I11
sg33
(dp388
sg17
V--
p389
sbag1
(g24
g3
Ntp390
Rp391
(dp392
g15
g266
sg29
(lp393
I0
aI1
aI2
aI3
aI4
aI5
aI6
aI7
asg19
(I0
I25
tp394
sg32
I4
sg33
(dp395
sg17
VSemitone
p396
sbag1
(g24
g3
Ntp397
Rp398
(dp399
g15
g274
sg29
(lp400
I0
aI1
aI2
aI3
aI4
aI5
aI6
aI7
asg19
(I0
I31
tp401
sg32
I6
sg33
(dp402
I0
g278
ssg17
VKey Follow
p403
sbag1
(g24
g3
Ntp404
Rp405
(dp406
g15
g229
sg29
(lp407
I0
aI1
aI2
aI3
aI4
aI5
aI6
aI7
asg19
(I0
I26
tp408
sg32
I0
sg33
(dp409
sg17
VDetune
p410
sbasg33
(dp411
sbag1
(g11
g3
Ntp412
Rp413
(dp414
g15
(I2
I67
tp415
sg17
VOsc 3
p416
sg19
(I1
I41
tp417
sg21
I2
sg22
(lp418
g1
(g24
g3
Ntp419
Rp420
(dp421
g15
(I6
I67
tp422
sg29
(lp423
I0
aI1
aI2
asg19
(I1
I41
tp424
sg32
I12
sg33
(dp425
I0
VOff
p426
sI1
VSlave
p427
sI2
VSaw
p428
sI3
VPulse
p429
sI4
VSine
p430
sI5
VTriangle
p431
sI6
VWave 3
p432
ssg17
VMode/Wave
p433
sbag1
(g24
g3
Ntp434
Rp435
(dp436
g15
(I16
I112
tp437
sg29
(lp438
I2
asg19
(I1
I43
tp439
sg32
I4
sg33
(dp440
sg17
VSemitone
p441
sbag1
(g24
g3
Ntp442
Rp443
(dp444
g15
(I0
I127
tp445
sg29
(lp446
I2
asg19
(I1
I42
tp447
sg32
I0
sg33
(dp448
sg17
VVolume
p449
sbag1
(g24
g3
Ntp450
Rp451
(dp452
g15
g445
sg29
(lp453
I2
asg19
(I1
I44
tp454
sg32
I0
sg33
(dp455
sg17
VDetune
p456
sbag1
(g24
g3
Ntp457
Rp458
(dp459
g15
(I0
I127
tp460
sg29
(lp461
sg19
(I0
I17
tp462
sg32
I11
sg33
(dp463
sg17
V--
p464
sbasg33
(dp465
sbag1
(g11
g3
Ntp466
Rp467
(dp468
g15
(I0
I7
tp469
sg17
VFM/Sync
p470
sg19
(I3
I35
tp471
sg21
I3
sg22
(lp472
g1
(g24
g3
Ntp473
Rp474
(dp475
g15
(I0
I6
tp476
sg29
(lp477
I0
asg19
(I1
I34
tp478
sg32
I1
sg33
(dp479
I0
VPos Triangle
p480
sI1
VTriangle
p481
sI2
VWave
p482
sI3
VNoise
p483
sI4
VIn L
p484
sI5
VIn L+R
p485
sI6
VIn R
p486
ssg17
VFM Mode
p487
sbag1
(g24
g3
Ntp488
Rp489
(dp490
g15
(I0
I1
tp491
sg29
(lp492
I2
aI3
aI4
aI5
aI6
aI7
asg19
g478
sg32
I1
sg33
(dp493
I0
VFreqMod
p494
sI1
VPhaseMod
p495
sI2
g482
sI3
g483
sI4
g484
sI5
g485
sI6
g486
ssg17
VFM Mode
p496
sbag1
(g24
g3
Ntp497
Rp498
(dp499
g15
g229
sg29
(lp500
I0
asg19
(I0
I27
tp501
sg32
I7
sg33
(dp502
I0
V0
p503
sI1
V100
p504
ssg17
VFM Amount
p505
sbag1
(g24
g3
Ntp506
Rp507
(dp508
g15
g229
sg29
(lp509
I2
aI3
aI4
aI5
aI6
aI7
asg19
g501
sg32
I0
sg33
(dp510
I0
g503
sI1
g504
ssg17
VFM Amount
p511
sbag1
(g24
g3
Ntp512
Rp513
(dp514
g15
(I0
I1
tp515
sg29
(lp516
I0
aI1
aI8
asg19
(I0
I28
tp517
sg32
I9
sg33
(dp518
I0
VOff
p519
sI1
VOn
p520
ssg17
VSync
p521
sbag1
(g24
g3
Ntp522
Rp523
(dp524
g15
g229
sg29
(lp525
I1
aI8
asg19
(I0
I27
tp526
sg32
I0
sg33
(dp527
sg17
VSync Freq
p528
sbasg33
(dp529
I0
V6E 30 1
p530
ssbasg17
V.Osc
p531
sS'cols'
p532
I2
sbag1
(g2
g3
Ntp533
Rp534
(dp535
g7
(dp536
I0
I2
sI1
I2
sI2
I2
ssg9
(lp537
g1
(g11
g3
Ntp538
Rp539
(dp540
g15
(I0
I0
tp541
sg17
VSlot 1
p542
sg19
(I0
I17
tp543
sg21
I0
sg22
(lp544
g1
(g24
g3
Ntp545
Rp546
(dp547
g15
(I0
I37
tp548
sg29
(lp549
sg19
(I1
I64
tp550
sg32
I1
sg33
(dp551
I0
VOff
p552
sI1
VPitch Bend
p553
sI2
VChan Pressure
p554
sI3
VMod Wheel
p555
sI4
VBreath
p556
sI5
VController 3
p557
sI6
VFoot Pedal
p558
sI7
VData Entry
p559
sI8
VBalance
p560
sI9
VController 9
p561
sI10
VExpression
p562
sI11
VController 12
p563
sI12
VController 13
p564
sI13
VController 14
p565
sI14
VController 15
p566
sI15
VController 16
p567
sI16
VHold Pedal
p568
sI17
VPortamento Sw
p569
sI18
VSost Pedal
p570
sI19
VAmp Envelope
p571
sI20
VFilter Envelope
p572
sI21
VLFO 1 bipolar
p573
sI22
VLFO 2 bipolar
p574
sI23
VLFO 3 bipolar
p575
sI24
VVelocity On
p576
sI25
VVelocity Off
p577
sI26
VKey Follow
p578
sI27
VRandom
p579
sI28
VArp Input
p580
sI29
VLFO 1 unipolar
p581
sI30
VLFO 2 unipolar
p582
sI31
VLFO 3 unipolar
p583
sI32
V1% constant
p584
sI33
V10% constant
p585
sI34
VAnaKey1 Fine
p586
sI35
VAnaKey 2 Fine
p587
sI36
VAnaKey1 Coarse
p588
sI37
VAnaKey2 Coarse
p589
ssg17
VSource
p590
sbag1
(g24
g3
Ntp591
Rp592
(dp593
g15
(I0
I127
tp594
sg29
(lp595
sg19
(I1
I66
tp596
sg32
I4
sg33
(dp597
sg17
VAmount 1
p598
sbag1
(g24
g3
Ntp599
Rp600
(dp601
g15
g594
sg29
(lp602
sg19
(I3
I91
tp603
sg32
I4
sg33
(dp604
sg17
VAmount 2
p605
sbag1
(g24
g3
Ntp606
Rp607
(dp608
g15
g594
sg29
(lp609
sg19
(I3
I93
tp610
sg32
I4
sg33
(dp611
sg17
VAmount 3
p612
sbag1
(g24
g3
Ntp613
Rp614
(dp615
g15
g594
sg29
(lp616
sg19
(I1
I65
tp617
sg32
I1
sg33
(dp618
I0
VOff
p619
sI1
VPatch Volume
p620
sI2
VOsc 1 Interpolation
p621
sI3
VPanorama
p622
sI4
VTranspose
p623
sI5
VPortamento
p624
sI6
VOsc 1 Shape
p625
sI7
VOsc 1 Pulse Width
p626
sI8
VOsc 1 Wave Select
p627
sI9
VOsc 1 Pitch
p628
sI10
VSlot 6 Amount 3
p629
sI11
VOsc 2 Shape
p630
sI12
VOsc 2 Pulse Width
p631
sI13
VOsc 2 Wave Select
p632
sI14
VOsc 2 Pitch
p633
sI15
VOsc 2 Detune
p634
sI16
VOsc 2 FM Amount
p635
sI17
VFiltEnv>Osc 2 Pitch
p636
sI18
VFiltEnv>FM/Sync
p637
sI19
VOsc 2 Interpolation
p638
sI20
VOsc Balance
p639
sI21
VSub Osc Volume
p640
sI22
VOsc Volume
p641
sI23
VNoise Volume
p642
sI24
VFilter 1 Cutoff
p643
sI25
VFilter 2 Cutoff
p644
sI26
VFilter 1 Resonance
p645
sI27
VFilter 2 Resonance
p646
sI28
VFilter 1 Env Amount
p647
sI29
VFilter 2 Env Amount
p648
sI30
VSlot 5 Amount 2
p649
sI31
VSlot 5 Amount 3
p650
sI32
VFilter Balance
p651
sI33
VFilter Env Attack
p652
sI34
VFilter Env Decay
p653
sI35
VFilter Env Sustain
p654
sI36
VFilter Env Slope
p655
sI37
VFilter Env Release
p656
sI38
VAmp Env Attack
p657
sI39
VAmp Env Decay
p658
sI40
VAmp Env Sustain
p659
sI41
VAmp Env Slope
p660
sI42
VAmp Env Release
p661
sI43
VLFO 1 Rate
p662
sI44
VLFO 1 Contour
p663
sI45
VLFO 1>Osc 1 Pitch
p664
sI46
VLFO 1>Osc 2 Pitch
p665
sI47
VLFO 1>Pulse Width
p666
sI48
VLFO 1>Resonance
p667
sI49
VLFO 1>Filter Gain
p668
sI50
VLFO 2 Rate
p669
sI51
VLFO 2 Contour
p670
sI52
VLFO 2>Shape
p671
sI53
VLFO 2>FM Amount
p672
sI54
VLFO 2>Cutoff 1
p673
sI55
VLFO 2>Cutoff 2
p674
sI56
VLFO 2>Panorama
p675
sI57
VLFO 3 Rate
p676
sI58
VLFO 3 Assign Amt
p677
sI59
VUnison Detune
p678
sI60
VPan Spread
p679
sI61
VUnison LFO Phase
p680
sI62
VChorus Mix
p681
sI63
VChorus Mod Rate
p682
sI64
VChorus Mod Depth
p683
sI65
VChorus Delay
p684
sI66
VChorus Feedback
p685
sI67
VDelay Send
p686
sI68
VDelay Time
p687
sI69
VDelay Feedback
p688
sI70
VDelay Mod Rate
p689
sI71
VDelay Mod Depth
p690
sI72
VReverb Send
p691
sI73
VOsc 1 WT Index
p692
sI74
VOsc 2 WT Index
p693
sI75
VSlot 6 Amount 2
p694
sI76
VSlot 4 Amount 2
p695
sI77
VSlot 4 Amount 3
p696
sI80
VSlot 2 Amount 3
p697
sI82
VSlot 1 Amount 1
p698
sI83
VSlot 2 Amount 1
p699
sI84
VSlot 2 Amount 2
p700
sI85
VSlot 3 Amount 1
p701
sI86
VSlot 3 Amount 2
p702
sI87
VSlot 3 Amount 3
p703
sI88
VOsc Initial Phase
p704
sI89
VPunch Intensity
p705
sI90
VRing Modulator
p706
sI91
VNoise Color
p707
sI92
VDelay Coloration
p708
sI93
VSlot 1 Amount 2
p709
sI94
VSlot 1 Amount 3
p710
sI95
VDistortion Intensity
p711
sI96
VFreqShifter Freq
p712
sI97
VOsc 3 Volume
p713
sI98
VOsc 3 Pitch
p714
sI99
VOsc 3 Detune
p715
sI100
VLFO 1 Assign Amt
p716
sI101
VLFO 2 Assign Amt
p717
sI102
VPhaser Mix
p718
sI103
VPhaser Mod Rate
p719
sI104
VPhaser Mod Depth
p720
sI105
VPhaser Frequency
p721
sI106
VPhaser Feedback
p722
sI107
VPhaser Spread
p723
sI108
VReverb Time
p724
sI109
VReverb Damping
p725
sI110
VReverb Color
p726
sI111
VReverb PreDelay
p727
sI112
VReverb Feedback
p728
sI113
VSurround Balance
p729
sI114
VArp Note Length
p730
sI115
VArp Swing Factor
p731
sI116
VArp Pattern
p732
sI117
VEQ Mid Gain
p733
sI118
VEQ Mid Frequency
p734
sI119
VEQ Mid Q-Factor
p735
sI120
VSlot 4 Amount 1
p736
sI121
VSlot 5 Amount 1
p737
sI122
VSlot 6 Amount 1
p738
sI123
VOsc 1 F-Shift
p739
sI124
VOsc 2 F-Shift
p740
sI125
VOsc 1 F-Spread
p741
sI126
VOsc 2 F-Spread
p742
sI127
VDistortion Mix
p743
ssg17
VDest 1
p744
sbag1
(g24
g3
Ntp745
Rp746
(dp747
g15
g594
sg29
(lp748
sg19
(I3
I90
tp749
sg32
I1
sg33
(dp750
I0
g619
sI1
g620
sI2
g621
sI3
g622
sI4
g623
sI5
g624
sI6
g625
sI7
g626
sI8
g627
sI9
g628
sI10
g629
sI11
g630
sI12
g631
sI13
g632
sI14
g633
sI15
g634
sI16
g635
sI17
g636
sI18
g637
sI19
g638
sI20
g639
sI21
g640
sI22
g641
sI23
g642
sI24
g643
sI25
g644
sI26
g645
sI27
g646
sI28
g647
sI29
g648
sI30
g649
sI31
g650
sI32
g651
sI33
g652
sI34
g653
sI35
g654
sI36
g655
sI37
g656
sI38
g657
sI39
g658
sI40
g659
sI41
g660
sI42
g661
sI43
g662
sI44
g663
sI45
g664
sI46
g665
sI47
g666
sI48
g667
sI49
g668
sI50
g669
sI51
g670
sI52
g671
sI53
g672
sI54
g673
sI55
g674
sI56
g675
sI57
g676
sI58
g677
sI59
g678
sI60
g679
sI61
g680
sI62
g681
sI63
g682
sI64
g683
sI65
g684
sI66
g685
sI67
g686
sI68
g687
sI69
g688
sI70
g689
sI71
g690
sI72
g691
sI73
g692
sI74
g693
sI75
g694
sI76
g695
sI77
g696
sI80
g697
sI82
g698
sI83
g699
sI84
g700
sI85
g701
sI86
g702
sI87
g703
sI88
g704
sI89
g705
sI90
g706
sI91
g707
sI92
g708
sI93
g709
sI94
g710
sI95
g711
sI96
g712
sI97
g713
sI98
g714
sI99
g715
sI100
g716
sI101
g717
sI102
g718
sI103
g719
sI104
g720
sI105
g721
sI106
g722
sI107
g723
sI108
g724
sI109
g725
sI110
g726
sI111
g727
sI112
g728
sI113
g729
sI114
g730
sI115
g731
sI116
g732
sI117
g733
sI118
g734
sI119
g735
sI120
g736
sI121
g737
sI122
g738
sI123
g739
sI124
g740
sI125
g741
sI126
g742
sI127
g743
ssg17
VDest 2
p751
sbag1
(g24
g3
Ntp752
Rp753
(dp754
g15
g594
sg29
(lp755
sg19
(I3
I92
tp756
sg32
I1
sg33
(dp757
I0
g619
sI1
g620
sI2
g621
sI3
g622
sI4
g623
sI5
g624
sI6
g625
sI7
g626
sI8
g627
sI9
g628
sI10
g629
sI11
g630
sI12
g631
sI13
g632
sI14
g633
sI15
g634
sI16
g635
sI17
g636
sI18
g637
sI19
g638
sI20
g639
sI21
g640
sI22
g641
sI23
g642
sI24
g643
sI25
g644
sI26
g645
sI27
g646
sI28
g647
sI29
g648
sI30
g649
sI31
g650
sI32
g651
sI33
g652
sI34
g653
sI35
g654
sI36
g655
sI37
g656
sI38
g657
sI39
g658
sI40
g659
sI41
g660
sI42
g661
sI43
g662
sI44
g663
sI45
g664
sI46
g665
sI47
g666
sI48
g667
sI49
g668
sI50
g669
sI51
g670
sI52
g671
sI53
g672
sI54
g673
sI55
g674
sI56
g675
sI57
g676
sI58
g677
sI59
g678
sI60
g679
sI61
g680
sI62
g681
sI63
g682
sI64
g683
sI65
g684
sI66
g685
sI67
g686
sI68
g687
sI69
g688
sI70
g689
sI71
g690
sI72
g691
sI73
g692
sI74
g693
sI75
g694
sI76
g695
sI77
g696
sI80
g697
sI82
g698
sI83
g699
sI84
g700
sI85
g701
sI86
g702
sI87
g703
sI88
g704
sI89
g705
sI90
g706
sI91
g707
sI92
g708
sI93
g709
sI94
g710
sI95
g711
sI96
g712
sI97
g713
sI98
g714
sI99
g715
sI100
g716
sI101
g717
sI102
g718
sI103
g719
sI104
g720
sI105
g721
sI106
g722
sI107
g723
sI108
g724
sI109
g725
sI110
g726
sI111
g727
sI112
g728
sI113
g729
sI114
g730
sI115
g731
sI116
g732
sI117
g733
sI118
g734
sI119
g735
sI120
g736
sI121
g737
sI122
g738
sI123
g739
sI124
g740
sI125
g741
sI126
g742
sI127
g743
ssg17
VDest 3
p758
sbasg33
(dp759
sbag1
(g11
g3
Ntp760
Rp761
(dp762
g15
g541
sg17
VSlot 4
p763
sg19
g543
sg21
I0
sg22
(lp764
g1
(g24
g3
Ntp765
Rp766
(dp767
g15
g548
sg29
(lp768
sg19
(I1
I103
tp769
sg32
I1
sg33
(dp770
I0
g552
sI1
g553
sI2
g554
sI3
g555
sI4
g556
sI5
g557
sI6
g558
sI7
g559
sI8
g560
sI9
g561
sI10
g562
sI11
g563
sI12
g564
sI13
g565
sI14
g566
sI15
g567
sI16
g568
sI17
g569
sI18
g570
sI19
g571
sI20
g572
sI21
g573
sI22
g574
sI23
g575
sI24
g576
sI25
g577
sI26
g578
sI27
g579
sI28
g580
sI29
g581
sI30
g582
sI31
g583
sI32
g584
sI33
g585
sI34
g586
sI35
g587
sI36
g588
sI37
g589
ssg17
VSource
p771
sbag1
(g24
g3
Ntp772
Rp773
(dp774
g15
g594
sg29
(lp775
sg19
(I1
I105
tp776
sg32
I4
sg33
(dp777
sg17
VAmount 1
p778
sbag1
(g24
g3
Ntp779
Rp780
(dp781
g15
g594
sg29
(lp782
sg19
(I3
I97
tp783
sg32
I4
sg33
(dp784
sg17
VAmount 2
p785
sbag1
(g24
g3
Ntp786
Rp787
(dp788
g15
g594
sg29
(lp789
sg19
(I3
I99
tp790
sg32
I4
sg33
(dp791
sg17
VAmount 3
p792
sbag1
(g24
g3
Ntp793
Rp794
(dp795
g15
g594
sg29
(lp796
sg19
(I1
I104
tp797
sg32
I1
sg33
(dp798
I0
g619
sI1
g620
sI2
g621
sI3
g622
sI4
g623
sI5
g624
sI6
g625
sI7
g626
sI8
g627
sI9
g628
sI10
g629
sI11
g630
sI12
g631
sI13
g632
sI14
g633
sI15
g634
sI16
g635
sI17
g636
sI18
g637
sI19
g638
sI20
g639
sI21
g640
sI22
g641
sI23
g642
sI24
g643
sI25
g644
sI26
g645
sI27
g646
sI28
g647
sI29
g648
sI30
g649
sI31
g650
sI32
g651
sI33
g652
sI34
g653
sI35
g654
sI36
g655
sI37
g656
sI38
g657
sI39
g658
sI40
g659
sI41
g660
sI42
g661
sI43
g662
sI44
g663
sI45
g664
sI46
g665
sI47
g666
sI48
g667
sI49
g668
sI50
g669
sI51
g670
sI52
g671
sI53
g672
sI54
g673
sI55
g674
sI56
g675
sI57
g676
sI58
g677
sI59
g678
sI60
g679
sI61
g680
sI62
g681
sI63
g682
sI64
g683
sI65
g684
sI66
g685
sI67
g686
sI68
g687
sI69
g688
sI70
g689
sI71
g690
sI72
g691
sI73
g692
sI74
g693
sI75
g694
sI76
g695
sI77
g696
sI80
g697
sI82
g698
sI83
g699
sI84
g700
sI85
g701
sI86
g702
sI87
g703
sI88
g704
sI89
g705
sI90
g706
sI91
g707
sI92
g708
sI93
g709
sI94
g710
sI95
g711
sI96
g712
sI97
g713
sI98
g714
sI99
g715
sI100
g716
sI101
g717
sI102
g718
sI103
g719
sI104
g720
sI105
g721
sI106
g722
sI107
g723
sI108
g724
sI109
g725
sI110
g726
sI111
g727
sI112
g728
sI113
g729
sI114
g730
sI115
g731
sI116
g732
sI117
g733
sI118
g734
sI119
g735
sI120
g736
sI121
g737
sI122
g738
sI123
g739
sI124
g740
sI125
g741
sI126
g742
sI127
g743
ssg17
VDest 1
p799
sbag1
(g24
g3
Ntp800
Rp801
(dp802
g15
g594
sg29
(lp803
sg19
(I3
I96
tp804
sg32
I1
sg33
(dp805
I0
g619
sI1
g620
sI2
g621
sI3
g622
sI4
g623
sI5
g624
sI6
g625
sI7
g626
sI8
g627
sI9
g628
sI10
g629
sI11
g630
sI12
g631
sI13
g632
sI14
g633
sI15
g634
sI16
g635
sI17
g636
sI18
g637
sI19
g638
sI20
g639
sI21
g640
sI22
g641
sI23
g642
sI24
g643
sI25
g644
sI26
g645
sI27
g646
sI28
g647
sI29
g648
sI30
g649
sI31
g650
sI32
g651
sI33
g652
sI34
g653
sI35
g654
sI36
g655
sI37
g656
sI38
g657
sI39
g658
sI40
g659
sI41
g660
sI42
g661
sI43
g662
sI44
g663
sI45
g664
sI46
g665
sI47
g666
sI48
g667
sI49
g668
sI50
g669
sI51
g670
sI52
g671
sI53
g672
sI54
g673
sI55
g674
sI56
g675
sI57
g676
sI58
g677
sI59
g678
sI60
g679
sI61
g680
sI62
g681
sI63
g682
sI64
g683
sI65
g684
sI66
g685
sI67
g686
sI68
g687
sI69
g688
sI70
g689
sI71
g690
sI72
g691
sI73
g692
sI74
g693
sI75
g694
sI76
g695
sI77
g696
sI80
g697
sI82
g698
sI83
g699
sI84
g700
sI85
g701
sI86
g702
sI87
g703
sI88
g704
sI89
g705
sI90
g706
sI91
g707
sI92
g708
sI93
g709
sI94
g710
sI95
g711
sI96
g712
sI97
g713
sI98
g714
sI99
g715
sI100
g716
sI101
g717
sI102
g718
sI103
g719
sI104
g720
sI105
g721
sI106
g722
sI107
g723
sI108
g724
sI109
g725
sI110
g726
sI111
g727
sI112
g728
sI113
g729
sI114
g730
sI115
g731
sI116
g732
sI117
g733
sI118
g734
sI119
g735
sI120
g736
sI121
g737
sI122
g738
sI123
g739
sI124
g740
sI125
g741
sI126
g742
sI127
g743
ssg17
VDest 2
p806
sbag1
(g24
g3
Ntp807
Rp808
(dp809
g15
g594
sg29
(lp810
sg19
(I3
I98
tp811
sg32
I1
sg33
(dp812
I0
g619
sI1
g620
sI2
g621
sI3
g622
sI4
g623
sI5
g624
sI6
g625
sI7
g626
sI8
g627
sI9
g628
sI10
g629
sI11
g630
sI12
g631
sI13
g632
sI14
g633
sI15
g634
sI16
g635
sI17
g636
sI18
g637
sI19
g638
sI20
g639
sI21
g640
sI22
g641
sI23
g642
sI24
g643
sI25
g644
sI26
g645
sI27
g646
sI28
g647
sI29
g648
sI30
g649
sI31
g650
sI32
g651
sI33
g652
sI34
g653
sI35
g654
sI36
g655
sI37
g656
sI38
g657
sI39
g658
sI40
g659
sI41
g660
sI42
g661
sI43
g662
sI44
g663
sI45
g664
sI46
g665
sI47
g666
sI48
g667
sI49
g668
sI50
g669
sI51
g670
sI52
g671
sI53
g672
sI54
g673
sI55
g674
sI56
g675
sI57
g676
sI58
g677
sI59
g678
sI60
g679
sI61
g680
sI62
g681
sI63
g682
sI64
g683
sI65
g684
sI66
g685
sI67
g686
sI68
g687
sI69
g688
sI70
g689
sI71
g690
sI72
g691
sI73
g692
sI74
g693
sI75
g694
sI76
g695
sI77
g696
sI80
g697
sI82
g698
sI83
g699
sI84
g700
sI85
g701
sI86
g702
sI87
g703
sI88
g704
sI89
g705
sI90
g706
sI91
g707
sI92
g708
sI93
g709
sI94
g710
sI95
g711
sI96
g712
sI97
g713
sI98
g714
sI99
g715
sI100
g716
sI101
g717
sI102
g718
sI103
g719
sI104
g720
sI105
g721
sI106
g722
sI107
g723
sI108
g724
sI109
g725
sI110
g726
sI111
g727
sI112
g728
sI113
g729
sI114
g730
sI115
g731
sI116
g732
sI117
g733
sI118
g734
sI119
g735
sI120
g736
sI121
g737
sI122
g738
sI123
g739
sI124
g740
sI125
g741
sI126
g742
sI127
g743
ssg17
VDest 3
p813
sbasg33
(dp814
sbag1
(g11
g3
Ntp815
Rp816
(dp817
g15
g541
sg17
VSlot 2
p818
sg19
g543
sg21
I0
sg22
(lp819
g1
(g24
g3
Ntp820
Rp821
(dp822
g15
g548
sg29
(lp823
sg19
(I1
I67
tp824
sg32
I1
sg33
(dp825
I0
g552
sI1
g553
sI2
g554
sI3
g555
sI4
g556
sI5
g557
sI6
g558
sI7
g559
sI8
g560
sI9
g561
sI10
g562
sI11
g563
sI12
g564
sI13
g565
sI14
g566
sI15
g567
sI16
g568
sI17
g569
sI18
g570
sI19
g571
sI20
g572
sI21
g573
sI22
g574
sI23
g575
sI24
g576
sI25
g577
sI26
g578
sI27
g579
sI28
g580
sI29
g581
sI30
g582
sI31
g583
sI32
g584
sI33
g585
sI34
g586
sI35
g587
sI36
g588
sI37
g589
ssg17
VSource
p826
sbag1
(g24
g3
Ntp827
Rp828
(dp829
g15
g594
sg29
(lp830
sg19
(I1
I69
tp831
sg32
I4
sg33
(dp832
sg17
VAmount 1
p833
sbag1
(g24
g3
Ntp834
Rp835
(dp836
g15
g594
sg29
(lp837
sg19
(I1
I71
tp838
sg32
I4
sg33
(dp839
sg17
VAmount 2
p840
sbag1
(g24
g3
Ntp841
Rp842
(dp843
g15
g594
sg29
(lp844
sg19
(I3
I95
tp845
sg32
I4
sg33
(dp846
sg17
VAmount 3
p847
sbag1
(g24
g3
Ntp848
Rp849
(dp850
g15
g594
sg29
(lp851
sg19
(I1
I68
tp852
sg32
I1
sg33
(dp853
I0
g619
sI1
g620
sI2
g621
sI3
g622
sI4
g623
sI5
g624
sI6
g625
sI7
g626
sI8
g627
sI9
g628
sI10
g629
sI11
g630
sI12
g631
sI13
g632
sI14
g633
sI15
g634
sI16
g635
sI17
g636
sI18
g637
sI19
g638
sI20
g639
sI21
g640
sI22
g641
sI23
g642
sI24
g643
sI25
g644
sI26
g645
sI27
g646
sI28
g647
sI29
g648
sI30
g649
sI31
g650
sI32
g651
sI33
g652
sI34
g653
sI35
g654
sI36
g655
sI37
g656
sI38
g657
sI39
g658
sI40
g659
sI41
g660
sI42
g661
sI43
g662
sI44
g663
sI45
g664
sI46
g665
sI47
g666
sI48
g667
sI49
g668
sI50
g669
sI51
g670
sI52
g671
sI53
g672
sI54
g673
sI55
g674
sI56
g675
sI57
g676
sI58
g677
sI59
g678
sI60
g679
sI61
g680
sI62
g681
sI63
g682
sI64
g683
sI65
g684
sI66
g685
sI67
g686
sI68
g687
sI69
g688
sI70
g689
sI71
g690
sI72
g691
sI73
g692
sI74
g693
sI75
g694
sI76
g695
sI77
g696
sI80
g697
sI82
g698
sI83
g699
sI84
g700
sI85
g701
sI86
g702
sI87
g703
sI88
g704
sI89
g705
sI90
g706
sI91
g707
sI92
g708
sI93
g709
sI94
g710
sI95
g711
sI96
g712
sI97
g713
sI98
g714
sI99
g715
sI100
g716
sI101
g717
sI102
g718
sI103
g719
sI104
g720
sI105
g721
sI106
g722
sI107
g723
sI108
g724
sI109
g725
sI110
g726
sI111
g727
sI112
g728
sI113
g729
sI114
g730
sI115
g731
sI116
g732
sI117
g733
sI118
g734
sI119
g735
sI120
g736
sI121
g737
sI122
g738
sI123
g739
sI124
g740
sI125
g741
sI126
g742
sI127
g743
ssg17
VDest 1
p854
sbag1
(g24
g3
Ntp855
Rp856
(dp857
g15
g594
sg29
(lp858
sg19
(I1
I70
tp859
sg32
I1
sg33
(dp860
I0
g619
sI1
g620
sI2
g621
sI3
g622
sI4
g623
sI5
g624
sI6
g625
sI7
g626
sI8
g627
sI9
g628
sI10
g629
sI11
g630
sI12
g631
sI13
g632
sI14
g633
sI15
g634
sI16
g635
sI17
g636
sI18
g637
sI19
g638
sI20
g639
sI21
g640
sI22
g641
sI23
g642
sI24
g643
sI25
g644
sI26
g645
sI27
g646
sI28
g647
sI29
g648
sI30
g649
sI31
g650
sI32
g651
sI33
g652
sI34
g653
sI35
g654
sI36
g655
sI37
g656
sI38
g657
sI39
g658
sI40
g659
sI41
g660
sI42
g661
sI43
g662
sI44
g663
sI45
g664
sI46
g665
sI47
g666
sI48
g667
sI49
g668
sI50
g669
sI51
g670
sI52
g671
sI53
g672
sI54
g673
sI55
g674
sI56
g675
sI57
g676
sI58
g677
sI59
g678
sI60
g679
sI61
g680
sI62
g681
sI63
g682
sI64
g683
sI65
g684
sI66
g685
sI67
g686
sI68
g687
sI69
g688
sI70
g689
sI71
g690
sI72
g691
sI73
g692
sI74
g693
sI75
g694
sI76
g695
sI77
g696
sI80
g697
sI82
g698
sI83
g699
sI84
g700
sI85
g701
sI86
g702
sI87
g703
sI88
g704
sI89
g705
sI90
g706
sI91
g707
sI92
g708
sI93
g709
sI94
g710
sI95
g711
sI96
g712
sI97
g713
sI98
g714
sI99
g715
sI100
g716
sI101
g717
sI102
g718
sI103
g719
sI104
g720
sI105
g721
sI106
g722
sI107
g723
sI108
g724
sI109
g725
sI110
g726
sI111
g727
sI112
g728
sI113
g729
sI114
g730
sI115
g731
sI116
g732
sI117
g733
sI118
g734
sI119
g735
sI120
g736
sI121
g737
sI122
g738
sI123
g739
sI124
g740
sI125
g741
sI126
g742
sI127
g743
ssg17
VDest 2
p861
sbag1
(g24
g3
Ntp862
Rp863
(dp864
g15
g594
sg29
(lp865
sg19
(I3
I94
tp866
sg32
I1
sg33
(dp867
I0
g619
sI1
g620
sI2
g621
sI3
g622
sI4
g623
sI5
g624
sI6
g625
sI7
g626
sI8
g627
sI9
g628
sI10
g629
sI11
g630
sI12
g631
sI13
g632
sI14
g633
sI15
g634
sI16
g635
sI17
g636
sI18
g637
sI19
g638
sI20
g639
sI21
g640
sI22
g641
sI23
g642
sI24
g643
sI25
g644
sI26
g645
sI27
g646
sI28
g647
sI29
g648
sI30
g649
sI31
g650
sI32
g651
sI33
g652
sI34
g653
sI35
g654
sI36
g655
sI37
g656
sI38
g657
sI39
g658
sI40
g659
sI41
g660
sI42
g661
sI43
g662
sI44
g663
sI45
g664
sI46
g665
sI47
g666
sI48
g667
sI49
g668
sI50
g669
sI51
g670
sI52
g671
sI53
g672
sI54
g673
sI55
g674
sI56
g675
sI57
g676
sI58
g677
sI59
g678
sI60
g679
sI61
g680
sI62
g681
sI63
g682
sI64
g683
sI65
g684
sI66
g685
sI67
g686
sI68
g687
sI69
g688
sI70
g689
sI71
g690
sI72
g691
sI73
g692
sI74
g693
sI75
g694
sI76
g695
sI77
g696
sI80
g697
sI82
g698
sI83
g699
sI84
g700
sI85
g701
sI86
g702
sI87
g703
sI88
g704
sI89
g705
sI90
g706
sI91
g707
sI92
g708
sI93
g709
sI94
g710
sI95
g711
sI96
g712
sI97
g713
sI98
g714
sI99
g715
sI100
g716
sI101
g717
sI102
g718
sI103
g719
sI104
g720
sI105
g721
sI106
g722
sI107
g723
sI108
g724
sI109
g725
sI110
g726
sI111
g727
sI112
g728
sI113
g729
sI114
g730
sI115
g731
sI116
g732
sI117
g733
sI118
g734
sI119
g735
sI120
g736
sI121
g737
sI122
g738
sI123
g739
sI124
g740
sI125
g741
sI126
g742
sI127
g743
ssg17
VDest 3
p868
sbasg33
(dp869
sbag1
(g11
g3
Ntp870
Rp871
(dp872
g15
g541
sg17
VSlot 5
p873
sg19
g543
sg21
I0
sg22
(lp874
g1
(g24
g3
Ntp875
Rp876
(dp877
g15
g548
sg29
(lp878
sg19
(I1
I106
tp879
sg32
I1
sg33
(dp880
I0
g552
sI1
g553
sI2
g554
sI3
g555
sI4
g556
sI5
g557
sI6
g558
sI7
g559
sI8
g560
sI9
g561
sI10
g562
sI11
g563
sI12
g564
sI13
g565
sI14
g566
sI15
g567
sI16
g568
sI17
g569
sI18
g570
sI19
g571
sI20
g572
sI21
g573
sI22
g574
sI23
g575
sI24
g576
sI25
g577
sI26
g578
sI27
g579
sI28
g580
sI29
g581
sI30
g582
sI31
g583
sI32
g584
sI33
g585
sI34
g586
sI35
g587
sI36
g588
sI37
g589
ssg17
VSource
p881
sbag1
(g24
g3
Ntp882
Rp883
(dp884
g15
g594
sg29
(lp885
sg19
(I1
I108
tp886
sg32
I4
sg33
(dp887
sg17
VAmount 1
p888
sbag1
(g24
g3
Ntp889
Rp890
(dp891
g15
g594
sg29
(lp892
sg19
(I3
I101
tp893
sg32
I4
sg33
(dp894
sg17
VAmount 2
p895
sbag1
(g24
g3
Ntp896
Rp897
(dp898
g15
g594
sg29
(lp899
sg19
(I3
I103
tp900
sg32
I4
sg33
(dp901
sg17
VAmount 3
p902
sbag1
(g24
g3
Ntp903
Rp904
(dp905
g15
g594
sg29
(lp906
sg19
(I1
I107
tp907
sg32
I1
sg33
(dp908
I0
g619
sI1
g620
sI2
g621
sI3
g622
sI4
g623
sI5
g624
sI6
g625
sI7
g626
sI8
g627
sI9
g628
sI10
g629
sI11
g630
sI12
g631
sI13
g632
sI14
g633
sI15
g634
sI16
g635
sI17
g636
sI18
g637
sI19
g638
sI20
g639
sI21
g640
sI22
g641
sI23
g642
sI24
g643
sI25
g644
sI26
g645
sI27
g646
sI28
g647
sI29
g648
sI30
g649
sI31
g650
sI32
g651
sI33
g652
sI34
g653
sI35
g654
sI36
g655
sI37
g656
sI38
g657
sI39
g658
sI40
g659
sI41
g660
sI42
g661
sI43
g662
sI44
g663
sI45
g664
sI46
g665
sI47
g666
sI48
g667
sI49
g668
sI50
g669
sI51
g670
sI52
g671
sI53
g672
sI54
g673
sI55
g674
sI56
g675
sI57
g676
sI58
g677
sI59
g678
sI60
g679
sI61
g680
sI62
g681
sI63
g682
sI64
g683
sI65
g684
sI66
g685
sI67
g686
sI68
g687
sI69
g688
sI70
g689
sI71
g690
sI72
g691
sI73
g692
sI74
g693
sI75
g694
sI76
g695
sI77
g696
sI80
g697
sI82
g698
sI83
g699
sI84
g700
sI85
g701
sI86
g702
sI87
g703
sI88
g704
sI89
g705
sI90
g706
sI91
g707
sI92
g708
sI93
g709
sI94
g710
sI95
g711
sI96
g712
sI97
g713
sI98
g714
sI99
g715
sI100
g716
sI101
g717
sI102
g718
sI103
g719
sI104
g720
sI105
g721
sI106
g722
sI107
g723
sI108
g724
sI109
g725
sI110
g726
sI111
g727
sI112
g728
sI113
g729
sI114
g730
sI115
g731
sI116
g732
sI117
g733
sI118
g734
sI119
g735
sI120
g736
sI121
g737
sI122
g738
sI123
g739
sI124
g740
sI125
g741
sI126
g742
sI127
g743
ssg17
VDest 1
p909
sbag1
(g24
g3
Ntp910
Rp911
(dp912
g15
g594
sg29
(lp913
sg19
(I3
I100
tp914
sg32
I1
sg33
(dp915
I0
g619
sI1
g620
sI2
g621
sI3
g622
sI4
g623
sI5
g624
sI6
g625
sI7
g626
sI8
g627
sI9
g628
sI10
g629
sI11
g630
sI12
g631
sI13
g632
sI14
g633
sI15
g634
sI16
g635
sI17
g636
sI18
g637
sI19
g638
sI20
g639
sI21
g640
sI22
g641
sI23
g642
sI24
g643
sI25
g644
sI26
g645
sI27
g646
sI28
g647
sI29
g648
sI30
g649
sI31
g650
sI32
g651
sI33
g652
sI34
g653
sI35
g654
sI36
g655
sI37
g656
sI38
g657
sI39
g658
sI40
g659
sI41
g660
sI42
g661
sI43
g662
sI44
g663
sI45
g664
sI46
g665
sI47
g666
sI48
g667
sI49
g668
sI50
g669
sI51
g670
sI52
g671
sI53
g672
sI54
g673
sI55
g674
sI56
g675
sI57
g676
sI58
g677
sI59
g678
sI60
g679
sI61
g680
sI62
g681
sI63
g682
sI64
g683
sI65
g684
sI66
g685
sI67
g686
sI68
g687
sI69
g688
sI70
g689
sI71
g690
sI72
g691
sI73
g692
sI74
g693
sI75
g694
sI76
g695
sI77
g696
sI80
g697
sI82
g698
sI83
g699
sI84
g700
sI85
g701
sI86
g702
sI87
g703
sI88
g704
sI89
g705
sI90
g706
sI91
g707
sI92
g708
sI93
g709
sI94
g710
sI95
g711
sI96
g712
sI97
g713
sI98
g714
sI99
g715
sI100
g716
sI101
g717
sI102
g718
sI103
g719
sI104
g720
sI105
g721
sI106
g722
sI107
g723
sI108
g724
sI109
g725
sI110
g726
sI111
g727
sI112
g728
sI113
g729
sI114
g730
sI115
g731
sI116
g732
sI117
g733
sI118
g734
sI119
g735
sI120
g736
sI121
g737
sI122
g738
sI123
g739
sI124
g740
sI125
g741
sI126
g742
sI127
g743
ssg17
VDest 2
p916
sbag1
(g24
g3
Ntp917
Rp918
(dp919
g15
g594
sg29
(lp920
sg19
(I3
I102
tp921
sg32
I1
sg33
(dp922
I0
g619
sI1
g620
sI2
g621
sI3
g622
sI4
g623
sI5
g624
sI6
g625
sI7
g626
sI8
g627
sI9
g628
sI10
g629
sI11
g630
sI12
g631
sI13
g632
sI14
g633
sI15
g634
sI16
g635
sI17
g636
sI18
g637
sI19
g638
sI20
g639
sI21
g640
sI22
g641
sI23
g642
sI24
g643
sI25
g644
sI26
g645
sI27
g646
sI28
g647
sI29
g648
sI30
g649
sI31
g650
sI32
g651
sI33
g652
sI34
g653
sI35
g654
sI36
g655
sI37
g656
sI38
g657
sI39
g658
sI40
g659
sI41
g660
sI42
g661
sI43
g662
sI44
g663
sI45
g664
sI46
g665
sI47
g666
sI48
g667
sI49
g668
sI50
g669
sI51
g670
sI52
g671
sI53
g672
sI54
g673
sI55
g674
sI56
g675
sI57
g676
sI58
g677
sI59
g678
sI60
g679
sI61
g680
sI62
g681
sI63
g682
sI64
g683
sI65
g684
sI66
g685
sI67
g686
sI68
g687
sI69
g688
sI70
g689
sI71
g690
sI72
g691
sI73
g692
sI74
g693
sI75
g694
sI76
g695
sI77
g696
sI80
g697
sI82
g698
sI83
g699
sI84
g700
sI85
g701
sI86
g702
sI87
g703
sI88
g704
sI89
g705
sI90
g706
sI91
g707
sI92
g708
sI93
g709
sI94
g710
sI95
g711
sI96
g712
sI97
g713
sI98
g714
sI99
g715
sI100
g716
sI101
g717
sI102
g718
sI103
g719
sI104
g720
sI105
g721
sI106
g722
sI107
g723
sI108
g724
sI109
g725
sI110
g726
sI111
g727
sI112
g728
sI113
g729
sI114
g730
sI115
g731
sI116
g732
sI117
g733
sI118
g734
sI119
g735
sI120
g736
sI121
g737
sI122
g738
sI123
g739
sI124
g740
sI125
g741
sI126
g742
sI127
g743
ssg17
VDest 3
p923
sbasg33
(dp924
sbag1
(g11
g3
Ntp925
Rp926
(dp927
g15
g541
sg17
VSlot 3
p928
sg19
g543
sg21
I0
sg22
(lp929
g1
(g24
g3
Ntp930
Rp931
(dp932
g15
g548
sg29
(lp933
sg19
(I1
I72
tp934
sg32
I1
sg33
(dp935
I0
g552
sI1
g553
sI2
g554
sI3
g555
sI4
g556
sI5
g557
sI6
g558
sI7
g559
sI8
g560
sI9
g561
sI10
g562
sI11
g563
sI12
g564
sI13
g565
sI14
g566
sI15
g567
sI16
g568
sI17
g569
sI18
g570
sI19
g571
sI20
g572
sI21
g573
sI22
g574
sI23
g575
sI24
g576
sI25
g577
sI26
g578
sI27
g579
sI28
g580
sI29
g581
sI30
g582
sI31
g583
sI32
g584
sI33
g585
sI34
g586
sI35
g587
sI36
g588
sI37
g589
ssg17
VSource
p936
sbag1
(g24
g3
Ntp937
Rp938
(dp939
g15
g594
sg29
(lp940
sg19
(I1
I74
tp941
sg32
I4
sg33
(dp942
sg17
VAmount 1
p943
sbag1
(g24
g3
Ntp944
Rp945
(dp946
g15
g594
sg29
(lp947
sg19
(I1
I76
tp948
sg32
I4
sg33
(dp949
sg17
VAmount 2
p950
sbag1
(g24
g3
Ntp951
Rp952
(dp953
g15
g594
sg29
(lp954
sg19
(I1
I78
tp955
sg32
I4
sg33
(dp956
sg17
VAmount 3
p957
sbag1
(g24
g3
Ntp958
Rp959
(dp960
g15
g594
sg29
(lp961
sg19
(I1
I73
tp962
sg32
I1
sg33
(dp963
I0
g619
sI1
g620
sI2
g621
sI3
g622
sI4
g623
sI5
g624
sI6
g625
sI7
g626
sI8
g627
sI9
g628
sI10
g629
sI11
g630
sI12
g631
sI13
g632
sI14
g633
sI15
g634
sI16
g635
sI17
g636
sI18
g637
sI19
g638
sI20
g639
sI21
g640
sI22
g641
sI23
g642
sI24
g643
sI25
g644
sI26
g645
sI27
g646
sI28
g647
sI29
g648
sI30
g649
sI31
g650
sI32
g651
sI33
g652
sI34
g653
sI35
g654
sI36
g655
sI37
g656
sI38
g657
sI39
g658
sI40
g659
sI41
g660
sI42
g661
sI43
g662
sI44
g663
sI45
g664
sI46
g665
sI47
g666
sI48
g667
sI49
g668
sI50
g669
sI51
g670
sI52
g671
sI53
g672
sI54
g673
sI55
g674
sI56
g675
sI57
g676
sI58
g677
sI59
g678
sI60
g679
sI61
g680
sI62
g681
sI63
g682
sI64
g683
sI65
g684
sI66
g685
sI67
g686
sI68
g687
sI69
g688
sI70
g689
sI71
g690
sI72
g691
sI73
g692
sI74
g693
sI75
g694
sI76
g695
sI77
g696
sI80
g697
sI82
g698
sI83
g699
sI84
g700
sI85
g701
sI86
g702
sI87
g703
sI88
g704
sI89
g705
sI90
g706
sI91
g707
sI92
g708
sI93
g709
sI94
g710
sI95
g711
sI96
g712
sI97
g713
sI98
g714
sI99
g715
sI100
g716
sI101
g717
sI102
g718
sI103
g719
sI104
g720
sI105
g721
sI106
g722
sI107
g723
sI108
g724
sI109
g725
sI110
g726
sI111
g727
sI112
g728
sI113
g729
sI114
g730
sI115
g731
sI116
g732
sI117
g733
sI118
g734
sI119
g735
sI120
g736
sI121
g737
sI122
g738
sI123
g739
sI124
g740
sI125
g741
sI126
g742
sI127
g743
ssg17
VDest 1
p964
sbag1
(g24
g3
Ntp965
Rp966
(dp967
g15
g594
sg29
(lp968
sg19
(I1
I75
tp969
sg32
I1
sg33
(dp970
I0
g619
sI1
g620
sI2
g621
sI3
g622
sI4
g623
sI5
g624
sI6
g625
sI7
g626
sI8
g627
sI9
g628
sI10
g629
sI11
g630
sI12
g631
sI13
g632
sI14
g633
sI15
g634
sI16
g635
sI17
g636
sI18
g637
sI19
g638
sI20
g639
sI21
g640
sI22
g641
sI23
g642
sI24
g643
sI25
g644
sI26
g645
sI27
g646
sI28
g647
sI29
g648
sI30
g649
sI31
g650
sI32
g651
sI33
g652
sI34
g653
sI35
g654
sI36
g655
sI37
g656
sI38
g657
sI39
g658
sI40
g659
sI41
g660
sI42
g661
sI43
g662
sI44
g663
sI45
g664
sI46
g665
sI47
g666
sI48
g667
sI49
g668
sI50
g669
sI51
g670
sI52
g671
sI53
g672
sI54
g673
sI55
g674
sI56
g675
sI57
g676
sI58
g677
sI59
g678
sI60
g679
sI61
g680
sI62
g681
sI63
g682
sI64
g683
sI65
g684
sI66
g685
sI67
g686
sI68
g687
sI69
g688
sI70
g689
sI71
g690
sI72
g691
sI73
g692
sI74
g693
sI75
g694
sI76
g695
sI77
g696
sI80
g697
sI82
g698
sI83
g699
sI84
g700
sI85
g701
sI86
g702
sI87
g703
sI88
g704
sI89
g705
sI90
g706
sI91
g707
sI92
g708
sI93
g709
sI94
g710
sI95
g711
sI96
g712
sI97
g713
sI98
g714
sI99
g715
sI100
g716
sI101
g717
sI102
g718
sI103
g719
sI104
g720
sI105
g721
sI106
g722
sI107
g723
sI108
g724
sI109
g725
sI110
g726
sI111
g727
sI112
g728
sI113
g729
sI114
g730
sI115
g731
sI116
g732
sI117
g733
sI118
g734
sI119
g735
sI120
g736
sI121
g737
sI122
g738
sI123
g739
sI124
g740
sI125
g741
sI126
g742
sI127
g743
ssg17
VDest 2
p971
sbag1
(g24
g3
Ntp972
Rp973
(dp974
g15
g594
sg29
(lp975
sg19
(I1
I77
tp976
sg32
I1
sg33
(dp977
I0
g619
sI1
g620
sI2
g621
sI3
g622
sI4
g623
sI5
g624
sI6
g625
sI7
g626
sI8
g627
sI9
g628
sI10
g629
sI11
g630
sI12
g631
sI13
g632
sI14
g633
sI15
g634
sI16
g635
sI17
g636
sI18
g637
sI19
g638
sI20
g639
sI21
g640
sI22
g641
sI23
g642
sI24
g643
sI25
g644
sI26
g645
sI27
g646
sI28
g647
sI29
g648
sI30
g649
sI31
g650
sI32
g651
sI33
g652
sI34
g653
sI35
g654
sI36
g655
sI37
g656
sI38
g657
sI39
g658
sI40
g659
sI41
g660
sI42
g661
sI43
g662
sI44
g663
sI45
g664
sI46
g665
sI47
g666
sI48
g667
sI49
g668
sI50
g669
sI51
g670
sI52
g671
sI53
g672
sI54
g673
sI55
g674
sI56
g675
sI57
g676
sI58
g677
sI59
g678
sI60
g679
sI61
g680
sI62
g681
sI63
g682
sI64
g683
sI65
g684
sI66
g685
sI67
g686
sI68
g687
sI69
g688
sI70
g689
sI71
g690
sI72
g691
sI73
g692
sI74
g693
sI75
g694
sI76
g695
sI77
g696
sI80
g697
sI82
g698
sI83
g699
sI84
g700
sI85
g701
sI86
g702
sI87
g703
sI88
g704
sI89
g705
sI90
g706
sI91
g707
sI92
g708
sI93
g709
sI94
g710
sI95
g711
sI96
g712
sI97
g713
sI98
g714
sI99
g715
sI100
g716
sI101
g717
sI102
g718
sI103
g719
sI104
g720
sI105
g721
sI106
g722
sI107
g723
sI108
g724
sI109
g725
sI110
g726
sI111
g727
sI112
g728
sI113
g729
sI114
g730
sI115
g731
sI116
g732
sI117
g733
sI118
g734
sI119
g735
sI120
g736
sI121
g737
sI122
g738
sI123
g739
sI124
g740
sI125
g741
sI126
g742
sI127
g743
ssg17
VDest 3
p978
sbasg33
(dp979
sbag1
(g11
g3
Ntp980
Rp981
(dp982
g15
g541
sg17
VSlot 6
p983
sg19
g543
sg21
I0
sg22
(lp984
g1
(g24
g3
Ntp985
Rp986
(dp987
g15
g548
sg29
(lp988
sg19
(I1
I109
tp989
sg32
I1
sg33
(dp990
I0
g552
sI1
g553
sI2
g554
sI3
g555
sI4
g556
sI5
g557
sI6
g558
sI7
g559
sI8
g560
sI9
g561
sI10
g562
sI11
g563
sI12
g564
sI13
g565
sI14
g566
sI15
g567
sI16
g568
sI17
g569
sI18
g570
sI19
g571
sI20
g572
sI21
g573
sI22
g574
sI23
g575
sI24
g576
sI25
g577
sI26
g578
sI27
g579
sI28
g580
sI29
g581
sI30
g582
sI31
g583
sI32
g584
sI33
g585
sI34
g586
sI35
g587
sI36
g588
sI37
g589
ssg17
VSource
p991
sbag1
(g24
g3
Ntp992
Rp993
(dp994
g15
g594
sg29
(lp995
sg19
(I1
I111
tp996
sg32
I4
sg33
(dp997
sg17
VAmount 1
p998
sbag1
(g24
g3
Ntp999
Rp1000
(dp1001
g15
g594
sg29
(lp1002
sg19
(I3
I105
tp1003
sg32
I4
sg33
(dp1004
sg17
VAmount 2
p1005
sbag1
(g24
g3
Ntp1006
Rp1007
(dp1008
g15
g594
sg29
(lp1009
sg19
(I3
I107
tp1010
sg32
I4
sg33
(dp1011
sg17
VAmount 3
p1012
sbag1
(g24
g3
Ntp1013
Rp1014
(dp1015
g15
g594
sg29
(lp1016
sg19
(I1
I110
tp1017
sg32
I1
sg33
(dp1018
I0
g619
sI1
g620
sI2
g621
sI3
g622
sI4
g623
sI5
g624
sI6
g625
sI7
g626
sI8
g627
sI9
g628
sI10
g629
sI11
g630
sI12
g631
sI13
g632
sI14
g633
sI15
g634
sI16
g635
sI17
g636
sI18
g637
sI19
g638
sI20
g639
sI21
g640
sI22
g641
sI23
g642
sI24
g643
sI25
g644
sI26
g645
sI27
g646
sI28
g647
sI29
g648
sI30
g649
sI31
g650
sI32
g651
sI33
g652
sI34
g653
sI35
g654
sI36
g655
sI37
g656
sI38
g657
sI39
g658
sI40
g659
sI41
g660
sI42
g661
sI43
g662
sI44
g663
sI45
g664
sI46
g665
sI47
g666
sI48
g667
sI49
g668
sI50
g669
sI51
g670
sI52
g671
sI53
g672
sI54
g673
sI55
g674
sI56
g675
sI57
g676
sI58
g677
sI59
g678
sI60
g679
sI61
g680
sI62
g681
sI63
g682
sI64
g683
sI65
g684
sI66
g685
sI67
g686
sI68
g687
sI69
g688
sI70
g689
sI71
g690
sI72
g691
sI73
g692
sI74
g693
sI75
g694
sI76
g695
sI77
g696
sI80
g697
sI82
g698
sI83
g699
sI84
g700
sI85
g701
sI86
g702
sI87
g703
sI88
g704
sI89
g705
sI90
g706
sI91
g707
sI92
g708
sI93
g709
sI94
g710
sI95
g711
sI96
g712
sI97
g713
sI98
g714
sI99
g715
sI100
g716
sI101
g717
sI102
g718
sI103
g719
sI104
g720
sI105
g721
sI106
g722
sI107
g723
sI108
g724
sI109
g725
sI110
g726
sI111
g727
sI112
g728
sI113
g729
sI114
g730
sI115
g731
sI116
g732
sI117
g733
sI118
g734
sI119
g735
sI120
g736
sI121
g737
sI122
g738
sI123
g739
sI124
g740
sI125
g741
sI126
g742
sI127
g743
ssg17
VDest 1
p1019
sbag1
(g24
g3
Ntp1020
Rp1021
(dp1022
g15
g594
sg29
(lp1023
sg19
(I3
I104
tp1024
sg32
I1
sg33
(dp1025
I0
g619
sI1
g620
sI2
g621
sI3
g622
sI4
g623
sI5
g624
sI6
g625
sI7
g626
sI8
g627
sI9
g628
sI10
g629
sI11
g630
sI12
g631
sI13
g632
sI14
g633
sI15
g634
sI16
g635
sI17
g636
sI18
g637
sI19
g638
sI20
g639
sI21
g640
sI22
g641
sI23
g642
sI24
g643
sI25
g644
sI26
g645
sI27
g646
sI28
g647
sI29
g648
sI30
g649
sI31
g650
sI32
g651
sI33
g652
sI34
g653
sI35
g654
sI36
g655
sI37
g656
sI38
g657
sI39
g658
sI40
g659
sI41
g660
sI42
g661
sI43
g662
sI44
g663
sI45
g664
sI46
g665
sI47
g666
sI48
g667
sI49
g668
sI50
g669
sI51
g670
sI52
g671
sI53
g672
sI54
g673
sI55
g674
sI56
g675
sI57
g676
sI58
g677
sI59
g678
sI60
g679
sI61
g680
sI62
g681
sI63
g682
sI64
g683
sI65
g684
sI66
g685
sI67
g686
sI68
g687
sI69
g688
sI70
g689
sI71
g690
sI72
g691
sI73
g692
sI74
g693
sI75
g694
sI76
g695
sI77
g696
sI80
g697
sI82
g698
sI83
g699
sI84
g700
sI85
g701
sI86
g702
sI87
g703
sI88
g704
sI89
g705
sI90
g706
sI91
g707
sI92
g708
sI93
g709
sI94
g710
sI95
g711
sI96
g712
sI97
g713
sI98
g714
sI99
g715
sI100
g716
sI101
g717
sI102
g718
sI103
g719
sI104
g720
sI105
g721
sI106
g722
sI107
g723
sI108
g724
sI109
g725
sI110
g726
sI111
g727
sI112
g728
sI113
g729
sI114
g730
sI115
g731
sI116
g732
sI117
g733
sI118
g734
sI119
g735
sI120
g736
sI121
g737
sI122
g738
sI123
g739
sI124
g740
sI125
g741
sI126
g742
sI127
g743
ssg17
VDest 2
p1026
sbag1
(g24
g3
Ntp1027
Rp1028
(dp1029
g15
g594
sg29
(lp1030
sg19
(I3
I106
tp1031
sg32
I1
sg33
(dp1032
I0
g619
sI1
g620
sI2
g621
sI3
g622
sI4
g623
sI5
g624
sI6
g625
sI7
g626
sI8
g627
sI9
g628
sI10
g629
sI11
g630
sI12
g631
sI13
g632
sI14
g633
sI15
g634
sI16
g635
sI17
g636
sI18
g637
sI19
g638
sI20
g639
sI21
g640
sI22
g641
sI23
g642
sI24
g643
sI25
g644
sI26
g645
sI27
g646
sI28
g647
sI29
g648
sI30
g649
sI31
g650
sI32
g651
sI33
g652
sI34
g653
sI35
g654
sI36
g655
sI37
g656
sI38
g657
sI39
g658
sI40
g659
sI41
g660
sI42
g661
sI43
g662
sI44
g663
sI45
g664
sI46
g665
sI47
g666
sI48
g667
sI49
g668
sI50
g669
sI51
g670
sI52
g671
sI53
g672
sI54
g673
sI55
g674
sI56
g675
sI57
g676
sI58
g677
sI59
g678
sI60
g679
sI61
g680
sI62
g681
sI63
g682
sI64
g683
sI65
g684
sI66
g685
sI67
g686
sI68
g687
sI69
g688
sI70
g689
sI71
g690
sI72
g691
sI73
g692
sI74
g693
sI75
g694
sI76
g695
sI77
g696
sI80
g697
sI82
g698
sI83
g699
sI84
g700
sI85
g701
sI86
g702
sI87
g703
sI88
g704
sI89
g705
sI90
g706
sI91
g707
sI92
g708
sI93
g709
sI94
g710
sI95
g711
sI96
g712
sI97
g713
sI98
g714
sI99
g715
sI100
g716
sI101
g717
sI102
g718
sI103
g719
sI104
g720
sI105
g721
sI106
g722
sI107
g723
sI108
g724
sI109
g725
sI110
g726
sI111
g727
sI112
g728
sI113
g729
sI114
g730
sI115
g731
sI116
g732
sI117
g733
sI118
g734
sI119
g735
sI120
g736
sI121
g737
sI122
g738
sI123
g739
sI124
g740
sI125
g741
sI126
g742
sI127
g743
ssg17
VDest 3
p1033
sbasg33
(dp1034
sbasg17
V.Matrix
p1035
sg532
I3
sba.