(lp0
ccopy_reg
_reconstructor
p1
(cvxcctrl
PageDef
p2
c__builtin__
object
p3
Ntp4
Rp5
(dp6
S'collength'
p7
(dp8
sS'blocks'
p9
(lp10
g1
(cvxcctrl
BlockDef
p11
g3
Ntp12
Rp13
(dp14
S'valrange'
p15
(I0
I0
tp16
sS'name'
p17
VMute Osc
p18
sS'cid'
p19
(I0
I17
tp20
sS'modetype'
p21
I4
sS'ctrldefs'
p22
(lp23
g1
(cvxcctrl
CtrlDef
p24
g3
Ntp25
Rp26
(dp27
g15
(I0
I127
tp28
sS'modes'
p29
(lp30
sg19
(I0
I34
tp31
sS'ctype'
p32
I0
sS'valinfo'
p33
(dp34
sg17
VSubOsc Vol
p35
sbag1
(g24
g3
Ntp36
Rp37
(dp38
g15
(I6
I67
tp39
sg29
(lp40
sg19
(I1
I41
tp41
sg32
I12
sg33
(dp42
I0
VOff
p43
sI1
VSlave
p44
sI2
VSaw
p45
sI3
VPulse
p46
sI4
VSine
p47
sI5
VTriangle
p48
sI6
VWave 3
p49
ssg17
VOsc 3 Mode
p50
sbasg33
(dp51
sbasg17
VOverview
p52
sS'cols'
p53
I0
sbag1
(g2
g3
Ntp54
Rp55
(dp56
g7
(dp57
I0
I2
sI1
I2
sI2
I2
ssg9
(lp58
g1
(g11
g3
Ntp59
Rp60
(dp61
g15
(I0
I7
tp62
sg17
VOsc 1
p63
sg19
(I3
I30
tp64
sg21
I1
sg22
(lp65
g1
(g24
g3
Ntp66
Rp67
(dp68
g15
(I0
I7
tp69
sg29
(lp70
I0
aI1
aI2
aI3
aI4
aI5
aI6
aI7
asg19
(I3
I30
tp71
sg32
I1
sg33
(dp72
I0
VClassic
p73
sI1
VHyperSaw
p74
sI2
VWavetable
p75
sI3
VWave PWM
p76
sI4
VGrain Simple
p77
sI5
VGrain Complex
p78
sI6
VFormant Simple
p79
sI7
VFormant Complex
p80
ssg17
VMode
p81
sbag1
(g24
g3
Ntp82
Rp83
(dp84
g15
(I0
I127
tp85
sg29
(lp86
I0
asg19
(I0
I17
tp87
sg32
I2
sg33
(dp88
I0
VWave
p89
sI1
VWave>Saw
p90
sI2
VSaw
p91
sI3
VSaw>Pulse
p92
sI4
VPulse
p93
ssg17
VShape
p94
sbag1
(g24
g3
Ntp95
Rp96
(dp97
g15
(I0
I127
tp98
sg29
(lp99
I1
asg19
(I0
I17
tp100
sg32
I8
sg33
(dp101
I0
V1 0
p102
sI1
V1.6 17
p103
sI2
V2 32
p104
sI3
V3 64
p105
sI4
V4 80
p106
sI5
V5 96
p107
sI6
V6 104
p108
sI7
V7 112
p109
sI8
V8 120
p110
sI9
V9 127
p111
ssg17
VDensity
p112
sbag1
(g24
g3
Ntp113
Rp114
(dp115
g15
(I0
I127
tp116
sg29
(lp117
I2
aI3
aI4
aI5
aI6
aI7
asg19
(I0
I17
tp118
sg32
I0
sg33
(dp119
sg17
VIndex
p120
sbag1
(g24
g3
Ntp121
Rp122
(dp123
g15
(I2
I63
tp124
sg29
(lp125
I0
asg19
(I0
I19
tp126
sg32
I12
sg33
(dp127
I0
VSine
p128
sI1
VTriangle
p129
sI2
VWave 3
p130
ssg17
VWave Sel
p131
sbag1
(g24
g3
Ntp132
Rp133
(dp134
g15
(I0
I99
tp135
sg29
(lp136
I2
aI3
aI4
aI5
aI6
aI7
asg19
(I0
I19
tp137
sg32
I1
sg33
(dp138
I0
VSine
p139
sI1
VHarmncSweep
p140
sI2
VGlass Sweep
p141
sI3
VDraw Bars
p142
sI4
VCluster
p143
sI5
VInsine Out
p144
sI6
VLanding
p145
sI7
VLiquid Metal
p146
sI8
VOpposition
p147
sI9
VOvertunes 1
p148
sI10
VOvertunes 2
p149
sI11
VScale Trix
p150
sI12
VSine Rider
p151
sI13
VSqr Series
p152
sI14
VUpsine Down
p153
sI15
VThumbs Up
p154
sI16
VWaterphone
p155
sI17
VE-Chime
p156
sI18
VTinkabell
p157
sI19
VBellfizz
p158
sI20
VBellentine
p159
sI21
VRobot Wars
p160
sI22
VAlternator
p161
sI23
VFinger Bass
p162
sI24
VFizzybar
p163
sI25
VFlutes
p164
sI26
VHP Love
p165
sI27
VMajestix
p166
sI28
VHotch Potch
p167
sI29
VResynater
p168
sI30
VSmooth Rough
p169
sI31
VSawsalito
p170
sI32
VBells 1
p171
sI33
VBells 2
p172
sI34
VSportReport
p173
sI35
VMetal Guru
p174
sI36
VBat Cave
p175
sI37
VAcetate
p176
sI38
VBuzzbizz
p177
sI39
VBuzzpartout
p178
sI40
VVanish
p179
sI41
VOverbones
p180
sI42
VPulsechecker
p181
sI43
VStratosfear
p182
sI44
VSooty Sweep
p183
sI45
VThroaty
p184
sI46
VDidgitalis
p185
sI47
VEvil
p186
sI48
VChords
p187
sI49
VFM Grit
p188
sI50
VBellsarnie
p189
sI51
VOctavius
p190
sI52
VEat Pulse
p191
sI53
VSinzin
p192
sI54
VSine System
p193
sI55
VClip Sweep
p194
sI56
VRoughage
p195
sI57
VWaving
p196
sI58
VPling Saw
p197
sI59
VE-Peas
p198
sI60
VBump Sweep
p199
sI61
VFilter Sqr
p200
sI62
VFourmant
p201
sI63
VFormantera
p202
sI64
VSundial 1
p203
sI65
VSundial 2
p204
sI66
VSundial 3
p205
sI67
VClipdial 1
p206
sI68
VClipdial 2
p207
sI69
VVoxonix
p208
sI70
VSolenoid
p209
sI71
VKlingKlang
p210
sI72
VViolator
p211
sI73
VPotassium
p212
sI74
VPile Up
p213
sI75
VTincanali
p214
sI76
VSniper
p215
sI77
VSqueezy
p216
sI78
VDecomposer
p217
sI79
VMorfants
p218
sI80
VPingvox
p219
sI81
VAdenoids
p220
sI82
VNasal
p221
sI83
VPartialism
p222
sI84
VTableDance
p223
sI85
VCascade
p224
sI86
VPrismism
p225
sI87
VFriction
p226
sI88
VRobotix
p227
sI89
VWhizzfizz
p228
sI90
VSpangly
p229
sI91
VFluxbin
p230
sI92
VFiboglide
p231
sI93
VFibonice
p232
sI94
VFibonasty
p233
sI95
VPenetrator
p234
sI96
VBlinder
p235
sI97
VElement 5
p236
sI98
VBad Signs
p237
sI99
VDomina7rix
p238
ssg17
VWaveTable
p239
sbag1
(g24
g3
Ntp240
Rp241
(dp242
g15
(I0
I127
tp243
sg29
(lp244
I0
asg19
(I0
I18
tp245
sg32
I7
sg33
(dp246
I0
V50
p247
sI1
V100
p248
ssg17
VPulse Width
p249
sbag1
(g24
g3
Ntp250
Rp251
(dp252
g15
g243
sg29
(lp253
I3
asg19
g245
sg32
I0
sg33
(dp254
I0
g247
sI1
g248
ssg17
VPulse Width
p255
sbag1
(g24
g3
Ntp256
Rp257
(dp258
g15
(I0
I127
tp259
sg29
(lp260
I1
asg19
(I0
I18
tp261
sg32
I0
sg33
(dp262
sg17
VLocal Detune
p263
sbag1
(g24
g3
Ntp264
Rp265
(dp266
g15
(I0
I127
tp267
sg29
(lp268
I4
aI5
aI6
aI7
asg19
(I3
I42
tp269
sg32
I4
sg33
(dp270
sg17
VF-Shift
p271
sbag1
(g24
g3
Ntp272
Rp273
(dp274
g15
g267
sg29
(lp275
I5
aI7
asg19
(I3
I37
tp276
sg32
I0
sg33
(dp277
sg17
VF-Spread
p278
sbag1
(g24
g3
Ntp279
Rp280
(dp281
g15
g267
sg29
(lp282
I2
aI3
aI4
aI5
aI6
aI7
asg19
(I3
I44
tp283
sg32
I0
sg33
(dp284
sg17
VInterpolation
p285
sbag1
(g24
g3
Ntp286
Rp287
(dp288
g15
g267
sg29
(lp289
I3
aI5
aI7
asg19
(I3
I43
tp290
sg32
I0
sg33
(dp291
sg17
VLocal Detune
p292
sbag1
(g24
g3
Ntp293
Rp294
(dp295
g15
(I0
I127
tp296
sg29
(lp297
sg19
(I0
I17
tp298
sg32
I11
sg33
(dp299
sg17
V----
p300
sbag1
(g24
g3
Ntp301
Rp302
(dp303
g15
(I16
I112
tp304
sg29
(lp305
I0
aI1
aI2
aI3
aI4
aI5
aI6
aI7
asg19
(I0
I20
tp306
sg32
I4
sg33
(dp307
sg17
VSemitone
p308
sbag1
(g24
g3
Ntp309
Rp310
(dp311
g15
(I0
I127
tp312
sg29
(lp313
I0
aI1
aI2
aI3
aI4
aI5
aI6
aI7
asg19
(I0
I21
tp314
sg32
I6
sg33
(dp315
I0
VNorm 32
p316
ssg17
VKey Follow
p317
sbasg33
(dp318
sbag1
(g11
g3
Ntp319
Rp320
(dp321
g15
(I0
I0
tp322
sg17
VCommon
p323
sg19
(I0
I17
tp324
sg21
I0
sg22
(lp325
g1
(g24
g3
Ntp326
Rp327
(dp328
g15
(I0
I127
tp329
sg29
(lp330
sg19
(I1
I35
tp331
sg32
I13
sg33
(dp332
I0
VOff 0
p333
ssg17
VPhase Init
p334
sbag1
(g24
g3
Ntp335
Rp336
(dp337
g15
(I0
I5
tp338
sg29
(lp339
sg19
(I0
I94
tp340
sg32
I1
sg33
(dp341
I0
VPoly
p342
sI1
VMono 1
p343
sI2
VMono 2
p344
sI3
VMono 3
p345
sI4
VMono 4
p346
sI5
VHold
p347
ssg17
VKey Mode
p348
sbag1
(g24
g3
Ntp349
Rp350
(dp351
g15
g329
sg29
(lp352
sg19
(I0
I5
tp353
sg32
I0
sg33
(dp354
sg17
VPortamento
p355
sbag1
(g24
g3
Ntp356
Rp357
(dp358
g15
g329
sg29
(lp359
sg19
(I1
I36
tp360
sg32
I0
sg33
(dp361
sg17
VPunch
p362
sbag1
(g24
g3
Ntp363
Rp364
(dp365
g15
(I0
I127
tp366
sg29
(lp367
sg19
(I0
I17
tp368
sg32
I11
sg33
(dp369
sg17
V--
p370
sbag1
(g24
g3
Ntp371
Rp372
(dp373
g15
g366
sg29
(lp374
sg19
(I0
I29
tp375
sg32
I5
sg33
(dp376
sg17
VFiltEnv>O2Pitch
p377
sbag1
(g24
g3
Ntp378
Rp379
(dp380
g15
g366
sg29
(lp381
sg19
(I0
I30
tp382
sg32
I5
sg33
(dp383
sg17
VFiltEnv>FM/Sync
p384
sbasg33
(dp385
sbag1
(g11
g3
Ntp386
Rp387
(dp388
g15
g62
sg17
VOsc 2
p389
sg19
(I3
I35
tp390
sg21
I1
sg22
(lp391
g1
(g24
g3
Ntp392
Rp393
(dp394
g15
g69
sg29
(lp395
I0
aI1
aI2
aI3
aI4
aI5
aI6
aI7
asg19
(I3
I35
tp396
sg32
I1
sg33
(dp397
I0
g73
sI1
g74
sI2
g75
sI3
g76
sI4
VGrain Simple
p398
sI5
VGrain Complex
p399
sI6
VFormant Simple
p400
sI7
VFormant Complex
p401
ssg17
VMode
p402
sbag1
(g24
g3
Ntp403
Rp404
(dp405
g15
g85
sg29
(lp406
I0
asg19
(I0
I22
tp407
sg32
I2
sg33
(dp408
I0
g89
sI1
g90
sI2
g91
sI3
g92
sI4
g93
ssg17
VShape
p409
sbag1
(g24
g3
Ntp410
Rp411
(dp412
g15
g98
sg29
(lp413
I1
asg19
(I0
I22
tp414
sg32
I8
sg33
(dp415
I0
g102
sI1
g103
sI2
g104
sI3
g105
sI4
g106
sI5
g107
sI6
g108
sI7
g109
sI8
g110
sI9
g111
ssg17
VDensity
p416
sbag1
(g24
g3
Ntp417
Rp418
(dp419
g15
g116
sg29
(lp420
I2
aI3
aI4
aI5
aI6
aI7
asg19
(I0
I22
tp421
sg32
I0
sg33
(dp422
sg17
VIndex
p423
sbag1
(g24
g3
Ntp424
Rp425
(dp426
g15
g124
sg29
(lp427
I0
asg19
(I0
I24
tp428
sg32
I12
sg33
(dp429
I0
g128
sI1
g129
sI2
g130
ssg17
VWave Sel
p430
sbag1
(g24
g3
Ntp431
Rp432
(dp433
g15
g135
sg29
(lp434
I2
aI3
aI4
aI5
aI6
aI7
asg19
(I0
I24
tp435
sg32
I1
sg33
(dp436
I0
g139
sI1
g140
sI2
g141
sI3
g142
sI4
g143
sI5
g144
sI6
g145
sI7
g146
sI8
g147
sI9
g148
sI10
g149
sI11
g150
sI12
g151
sI13
g152
sI14
g153
sI15
g154
sI16
g155
sI17
g156
sI18
g157
sI19
g158
sI20
g159
sI21
g160
sI22
g161
sI23
g162
sI24
g163
sI25
g164
sI26
g165
sI27
g166
sI28
g167
sI29
g168
sI30
g169
sI31
g170
sI32
g171
sI33
g172
sI34
g173
sI35
g174
sI36
g175
sI37
g176
sI38
g177
sI39
g178
sI40
g179
sI41
g180
sI42
g181
sI43
g182
sI44
g183
sI45
g184
sI46
g185
sI47
g186
sI48
g187
sI49
g188
sI50
g189
sI51
g190
sI52
g191
sI53
g192
sI54
g193
sI55
g194
sI56
g195
sI57
g196
sI58
g197
sI59
g198
sI60
g199
sI61
g200
sI62
g201
sI63
g202
sI64
g203
sI65
g204
sI66
g205
sI67
g206
sI68
g207
sI69
g208
sI70
g209
sI71
g210
sI72
g211
sI73
g212
sI74
g213
sI75
g214
sI76
g215
sI77
g216
sI78
g217
sI79
g218
sI80
g219
sI81
g220
sI82
g221
sI83
g222
sI84
g223
sI85
g224
sI86
g225
sI87
g226
sI88
g227
sI89
g228
sI90
g229
sI91
g230
sI92
g231
sI93
g232
sI94
g233
sI95
g234
sI96
g235
sI97
g236
sI98
g237
sI99
g238
ssg17
VWaveTable
p437
sbag1
(g24
g3
Ntp438
Rp439
(dp440
g15
g243
sg29
(lp441
I0
asg19
(I0
I23
tp442
sg32
I7
sg33
(dp443
I0
g247
sI1
g248
ssg17
VPulse Width
p444
sbag1
(g24
g3
Ntp445
Rp446
(dp447
g15
g243
sg29
(lp448
I3
asg19
(I0
I23
tp449
sg32
I0
sg33
(dp450
I0
g247
sI1
g248
ssg17
VPulse Width
p451
sbag1
(g24
g3
Ntp452
Rp453
(dp454
g15
g259
sg29
(lp455
I1
asg19
(I0
I23
tp456
sg32
I0
sg33
(dp457
sg17
VLocal Detune
p458
sbag1
(g24
g3
Ntp459
Rp460
(dp461
g15
g267
sg29
(lp462
I4
aI5
aI6
aI7
asg19
(I3
I62
tp463
sg32
I4
sg33
(dp464
sg17
VF-Shift
p465
sbag1
(g24
g3
Ntp466
Rp467
(dp468
g15
g267
sg29
(lp469
I5
aI7
asg19
(I3
I57
tp470
sg32
I0
sg33
(dp471
sg17
VF-Spread
p472
sbag1
(g24
g3
Ntp473
Rp474
(dp475
g15
g267
sg29
(lp476
I2
aI3
aI4
aI5
aI6
aI7
asg19
(I3
I64
tp477
sg32
I0
sg33
(dp478
sg17
VInterpolation
p479
sbag1
(g24
g3
Ntp480
Rp481
(dp482
g15
g267
sg29
(lp483
I3
aI5
aI7
asg19
(I3
I63
tp484
sg32
I0
sg33
(dp485
sg17
VLocal Detune
p486
sbag1
(g24
g3
Ntp487
Rp488
(dp489
g15
(I0
I127
tp490
sg29
(lp491
sg19
(I0
I17
tp492
sg32
I11
sg33
(dp493
sg17
V--
p494
sbag1
(g24
g3
Ntp495
Rp496
(dp497
g15
g304
sg29
(lp498
I0
aI1
aI2
aI3
aI4
aI5
aI6
aI7
asg19
(I0
I25
tp499
sg32
I4
sg33
(dp500
sg17
VSemitone
p501
sbag1
(g24
g3
Ntp502
Rp503
(dp504
g15
g312
sg29
(lp505
I0
aI1
aI2
aI3
aI4
aI5
aI6
aI7
asg19
(I0
I31
tp506
sg32
I6
sg33
(dp507
I0
g316
ssg17
VKey Follow
p508
sbag1
(g24
g3
Ntp509
Rp510
(dp511
g15
g267
sg29
(lp512
I0
aI1
aI2
aI3
aI4
aI5
aI6
aI7
asg19
(I0
I26
tp513
sg32
I0
sg33
(dp514
sg17
VDetune
p515
sbasg33
(dp516
sbag1
(g11
g3
Ntp517
Rp518
(dp519
g15
(I0
I7
tp520
sg17
VFM / Sync
p521
sg19
(I3
I35
tp522
sg21
I3
sg22
(lp523
g1
(g24
g3
Ntp524
Rp525
(dp526
g15
(I0
I6
tp527
sg29
(lp528
I0
asg19
(I1
I34
tp529
sg32
I1
sg33
(dp530
I0
VPos Triangle
p531
sI1
VTriangle
p532
sI2
VWave
p533
sI3
VNoise
p534
sI4
VIn L
p535
sI5
VIn L+R
p536
sI6
VIn R
p537
ssg17
VFM Mode
p538
sbag1
(g24
g3
Ntp539
Rp540
(dp541
g15
(I0
I1
tp542
sg29
(lp543
I2
aI3
aI4
aI5
aI6
aI7
asg19
g529
sg32
I1
sg33
(dp544
I0
VFreqMod
p545
sI1
VPhaseMod
p546
sI2
g533
sI3
g534
sI4
g535
sI5
g536
sI6
g537
ssg17
VFM Mode
p547
sbag1
(g24
g3
Ntp548
Rp549
(dp550
g15
g267
sg29
(lp551
I0
asg19
(I0
I27
tp552
sg32
I7
sg33
(dp553
I0
V0
p554
sI1
V100
p555
ssg17
VFM Amount
p556
sbag1
(g24
g3
Ntp557
Rp558
(dp559
g15
g267
sg29
(lp560
I2
aI3
aI4
aI5
aI6
aI7
asg19
g552
sg32
I0
sg33
(dp561
I0
g554
sI1
g555
ssg17
VFM Amount
p562
sbag1
(g24
g3
Ntp563
Rp564
(dp565
g15
g366
sg29
(lp566
sg19
g368
sg32
I11
sg33
(dp567
sg17
V--
p568
sbag1
(g24
g3
Ntp569
Rp570
(dp571
g15
(I0
I1
tp572
sg29
(lp573
I0
aI1
aI8
asg19
(I0
I28
tp574
sg32
I9
sg33
(dp575
I0
VOff
p576
sI1
VOn
p577
ssg17
VSync
p578
sbag1
(g24
g3
Ntp579
Rp580
(dp581
g15
g267
sg29
(lp582
I1
aI8
asg19
(I0
I27
tp583
sg32
I0
sg33
(dp584
sg17
VSync Freq
p585
sbag1
(g24
g3
Ntp586
Rp587
(dp588
g15
(I0
I127
tp589
sg29
(lp590
sg19
(I0
I17
tp591
sg32
I11
sg33
(dp592
sg17
V--
p593
sbasg33
(dp594
I0
V6E 30 1 1
p595
ssbag1
(g11
g3
Ntp596
Rp597
(dp598
g15
(I0
I7
tp599
sg17
VSub Oscillator
p600
sg19
(I3
I35
tp601
sg21
I3
sg22
(lp602
g1
(g24
g3
Ntp603
Rp604
(dp605
g15
g28
sg29
(lp606
I1
aI8
aI9
asg19
g31
sg32
I0
sg33
(dp607
sg17
VVolume
p608
sbag1
(g24
g3
Ntp609
Rp610
(dp611
g15
(I0
I1
tp612
sg29
(lp613
I8
asg19
(I0
I35
tp614
sg32
I1
sg33
(dp615
I0
VSquare
p616
sI1
VTriangle
p617
ssg17
VShape
p618
sbag1
(g24
g3
Ntp619
Rp620
(dp621
g15
g589
sg29
(lp622
sg19
g591
sg32
I11
sg33
(dp623
sg17
V--
p624
sbasg33
(dp625
I0
V6E 30 0 1
p626
ssbag1
(g11
g3
Ntp627
Rp628
(dp629
g15
(I2
I67
tp630
sg17
VOsc 3
p631
sg19
(I1
I41
tp632
sg21
I2
sg22
(lp633
g1
(g24
g3
Ntp634
Rp635
(dp636
g15
g39
sg29
(lp637
I0
aI1
aI2
asg19
g41
sg32
I12
sg33
(dp638
I0
g43
sI1
g44
sI2
g45
sI3
g46
sI4
g47
sI5
g48
sI6
g49
ssg17
VMode/Wave
p639
sbag1
(g24
g3
Ntp640
Rp641
(dp642
g15
(I0
I127
tp643
sg29
(lp644
I2
asg19
(I1
I42
tp645
sg32
I0
sg33
(dp646
sg17
VVolume
p647
sbag1
(g24
g3
Ntp648
Rp649
(dp650
g15
(I16
I112
tp651
sg29
(lp652
I2
asg19
(I1
I43
tp653
sg32
I4
sg33
(dp654
sg17
VSemitone
p655
sbag1
(g24
g3
Ntp656
Rp657
(dp658
g15
g643
sg29
(lp659
I2
asg19
(I1
I44
tp660
sg32
I0
sg33
(dp661
sg17
VDetune
p662
sbag1
(g24
g3
Ntp663
Rp664
(dp665
g15
(I0
I127
tp666
sg29
(lp667
sg19
(I0
I17
tp668
sg32
I11
sg33
(dp669
sg17
V--
p670
sbasg33
(dp671
sbag1
(g11
g3
Ntp672
Rp673
(dp674
g15
g322
sg17
VMix
p675
sg19
g324
sg21
I0
sg22
(lp676
g1
(g24
g3
Ntp677
Rp678
(dp679
g15
g589
sg29
(lp680
sg19
(I0
I33
tp681
sg32
I5
sg33
(dp682
sg17
VOsc1/2 Bal
p683
sbag1
(g24
g3
Ntp684
Rp685
(dp686
g15
g589
sg29
(lp687
sg19
(I0
I36
tp688
sg32
I4
sg33
(dp689
sg17
VOsc Vol/Sat
p690
sbasg33
(dp691
sbag1
(g11
g3
Ntp692
Rp693
(dp694
g15
(I0
I3
tp695
sg17
VRing Mod
p696
sg19
(I0
I53
tp697
sg21
I1
sg22
(lp698
g1
(g24
g3
Ntp699
Rp700
(dp701
g15
g589
sg29
(lp702
I0
aI1
aI2
asg19
(I0
I50
tp703
sg32
I13
sg33
(dp704
I0
VOff 0
p705
ssg17
VVolume
p706
sbasg33
(dp707
sbag1
(g11
g3
Ntp708
Rp709
(dp710
g15
g322
sg17
VNoise
p711
sg19
g324
sg21
I0
sg22
(lp712
g1
(g24
g3
Ntp713
Rp714
(dp715
g15
g589
sg29
(lp716
sg19
(I0
I37
tp717
sg32
I13
sg33
(dp718
I0
VOff 0
p719
ssg17
VVolume
p720
sbag1
(g24
g3
Ntp721
Rp722
(dp723
g15
g589
sg29
(lp724
sg19
(I0
I39
tp725
sg32
I4
sg33
(dp726
sg17
VColor
p727
sbasg33
(dp728
sbasg17
VOsc
p729
sg53
I2
sbag1
(g2
g3
Ntp730
Rp731
(dp732
g7
(dp733
I0
I2
sI1
I2
ssg9
(lp734
g1
(g11
g3
Ntp735
Rp736
(dp737
g15
(I0
I0
tp738
sg17
VFilter 1
p739
sg19
(I0
I17
tp740
sg21
I0
sg22
(lp741
g1
(g24
g3
Ntp742
Rp743
(dp744
g15
(I0
I7
tp745
sg29
(lp746
sg19
(I0
I51
tp747
sg32
I1
sg33
(dp748
I0
VLow Pass
p749
sI1
VHigh Pass
p750
sI2
VBand Pass
p751
sI3
VBand Stop
p752
sI4
VAnalog 1 Pole
p753
sI5
VAnalog 2 Pole
p754
sI6
VAnalog 3 Pole
p755
sI7
VAnalog 4 Pole
p756
ssg17
VMode
p757
sbag1
(g24
g3
Ntp758
Rp759
(dp760
g15
g28
sg29
(lp761
sg19
(I0
I40
tp762
sg32
I0
sg33
(dp763
sg17
VCutoff
p764
sbag1
(g24
g3
Ntp765
Rp766
(dp767
g15
g28
sg29
(lp768
sg19
(I0
I42
tp769
sg32
I0
sg33
(dp770
sg17
VResonance
p771
sbag1
(g24
g3
Ntp772
Rp773
(dp774
g15
g28
sg29
(lp775
sg19
(I0
I44
tp776
sg32
I7
sg33
(dp777
sg17
VEnv Amount
p778
sbag1
(g24
g3
Ntp779
Rp780
(dp781
g15
g28
sg29
(lp782
sg19
(I0
I46
tp783
sg32
I4
sg33
(dp784
sg17
VKey Follow
p785
sbag1
(g24
g3
Ntp786
Rp787
(dp788
g15
(I0
I1
tp789
sg29
(lp790
sg19
(I1
I30
tp791
sg32
I1
sg33
(dp792
I0
VNegative
p793
sI1
VPositive
p794
ssg17
VEnv Polarity
p795
sbasg33
(dp796
sbag1
(g11
g3
Ntp797
Rp798
(dp799
g15
(I0
I1
tp800
sg17
VFilter 2
p801
sg19
(I1
I32
tp802
sg21
I1
sg22
(lp803
g1
(g24
g3
Ntp804
Rp805
(dp806
g15
(I0
I3
tp807
sg29
(lp808
I0
aI1
asg19
(I0
I52
tp809
sg32
I1
sg33
(dp810
I0
g749
sI1
g750
sI2
g751
sI3
g752
sI4
g753
sI5
g754
sI6
g755
sI7
g756
ssg17
VMode
p811
sbag1
(g24
g3
Ntp812
Rp813
(dp814
g15
g28
sg29
(lp815
I0
asg19
(I0
I41
tp816
sg32
I0
sg33
(dp817
sg17
VCutoff
p818
sbag1
(g24
g3
Ntp819
Rp820
(dp821
g15
g28
sg29
(lp822
I1
asg19
(I0
I41
tp823
sg32
I4
sg33
(dp824
sg17
VOffset
p825
sbag1
(g24
g3
Ntp826
Rp827
(dp828
g15
g28
sg29
(lp829
I0
aI1
asg19
(I0
I43
tp830
sg32
I0
sg33
(dp831
sg17
VResonance
p832
sbag1
(g24
g3
Ntp833
Rp834
(dp835
g15
g28
sg29
(lp836
I0
aI1
asg19
(I0
I45
tp837
sg32
I7
sg33
(dp838
sg17
VEnv Amount
p839
sbag1
(g24
g3
Ntp840
Rp841
(dp842
g15
g28
sg29
(lp843
I0
aI1
asg19
(I0
I47
tp844
sg32
I4
sg33
(dp845
sg17
VKey Follow
p846
sbag1
(g24
g3
Ntp847
Rp848
(dp849
g15
g789
sg29
(lp850
I0
aI1
asg19
(I1
I31
tp851
sg32
I1
sg33
(dp852
I0
g793
sI1
g794
ssg17
VEnv Polarity
p853
sbasg33
(dp854
sbag1
(g11
g3
Ntp855
Rp856
(dp857
g15
(I0
I3
tp858
sg17
VCommon
p859
sg19
(I0
I53
tp860
sg21
I1
sg22
(lp861
g1
(g24
g3
Ntp862
Rp863
(dp864
g15
(I0
I3
tp865
sg29
(lp866
I0
aI1
aI2
aI3
asg19
(I0
I53
tp867
sg32
I1
sg33
(dp868
I0
VSerial 4
p869
sI1
VSerial 6
p870
sI2
VParallel 4
p871
sI3
VSplit Mode
p872
ssg17
VRouting
p873
sbag1
(g24
g3
Ntp874
Rp875
(dp876
g15
g28
sg29
(lp877
I0
aI1
aI2
aI3
asg19
(I0
I48
tp878
sg32
I4
sg33
(dp879
sg17
VFilter Balance
p880
sbag1
(g24
g3
Ntp881
Rp882
(dp883
g15
(I0
I1
tp884
sg29
(lp885
I0
aI1
aI2
aI3
asg19
(I1
I32
tp886
sg32
I9
sg33
(dp887
sg17
VCutoff Link
p888
sbag1
(g24
g3
Ntp889
Rp890
(dp891
g15
g28
sg29
(lp892
I0
aI1
aI2
aI3
asg19
(I1
I33
tp893
sg32
I15
sg33
(dp894
sg17
VKey Follow Base
p895
sbag1
(g24
g3
Ntp896
Rp897
(dp898
g15
g28
sg29
(lp899
I3
asg19
(I4
I122
tp900
sg32
I0
sg33
(dp901
sg17
VPan Spread
p902
sbasg33
(dp903
sbag1
(g11
g3
Ntp904
Rp905
(dp906
g15
g738
sg17
VSaturation
p907
sg19
g740
sg21
I0
sg22
(lp908
g1
(g24
g3
Ntp909
Rp910
(dp911
g15
(I0
I14
tp912
sg29
(lp913
sg19
(I0
I49
tp914
sg32
I1
sg33
(dp915
I0
VOff
p916
sI1
VLight
p917
sI2
VSoft
p918
sI3
VMiddle
p919
sI4
VHard
p920
sI5
VDigital
p921
sI6
VWave Shaper
p922
sI7
VRectifier
p923
sI8
VBit Reducer
p924
sI9
VRate Reducer
p925
sI10
VRate+Follow
p926
sI11
VLow Pass
p927
sI12
VLow+Follow
p928
sI13
VHigh Pass
p929
sI14
VHigh+Follow
p930
ssg17
VType
p931
sbasg33
(dp932
sbag1
(g11
g3
Ntp933
Rp934
(dp935
g15
g738
sg17
VFilter Envelope
p936
sg19
g740
sg21
I0
sg22
(lp937
g1
(g24
g3
Ntp938
Rp939
(dp940
g15
g28
sg29
(lp941
sg19
(I0
I54
tp942
sg32
I0
sg33
(dp943
sg17
VAttack
p944
sbag1
(g24
g3
Ntp945
Rp946
(dp947
g15
g28
sg29
(lp948
sg19
(I0
I55
tp949
sg32
I0
sg33
(dp950
sg17
VDecay
p951
sbag1
(g24
g3
Ntp952
Rp953
(dp954
g15
g28
sg29
(lp955
sg19
(I0
I56
tp956
sg32
I7
sg33
(dp957
sg17
VSustain
p958
sbag1
(g24
g3
Ntp959
Rp960
(dp961
g15
g28
sg29
(lp962
sg19
(I0
I57
tp963
sg32
I4
sg33
(dp964
sg17
VSustain Slope
p965
sbag1
(g24
g3
Ntp966
Rp967
(dp968
g15
g28
sg29
(lp969
sg19
(I0
I58
tp970
sg32
I0
sg33
(dp971
sg17
VRelease
p972
sbasg33
(dp973
sbag1
(g11
g3
Ntp974
Rp975
(dp976
g15
g738
sg17
VAmp Envelope
p977
sg19
g740
sg21
I0
sg22
(lp978
g1
(g24
g3
Ntp979
Rp980
(dp981
g15
g28
sg29
(lp982
sg19
(I0
I59
tp983
sg32
I0
sg33
(dp984
sg17
VAttack
p985
sbag1
(g24
g3
Ntp986
Rp987
(dp988
g15
g28
sg29
(lp989
sg19
(I0
I60
tp990
sg32
I0
sg33
(dp991
sg17
VDecay
p992
sbag1
(g24
g3
Ntp993
Rp994
(dp995
g15
g28
sg29
(lp996
sg19
(I0
I61
tp997
sg32
I7
sg33
(dp998
sg17
VSustain
p999
sbag1
(g24
g3
Ntp1000
Rp1001
(dp1002
g15
g28
sg29
(lp1003
sg19
(I0
I62
tp1004
sg32
I4
sg33
(dp1005
sg17
VSustain Slope
p1006
sbag1
(g24
g3
Ntp1007
Rp1008
(dp1009
g15
g28
sg29
(lp1010
sg19
(I0
I63
tp1011
sg32
I0
sg33
(dp1012
sg17
VRelease
p1013
sbasg33
(dp1014
sbasg17
V.Filter
p1015
sg53
I2
sbag1
(g2
g3
Ntp1016
Rp1017
(dp1018
g7
(dp1019
I0
I2
sI1
I2
sI2
I2
ssg9
(lp1020
g1
(g11
g3
Ntp1021
Rp1022
(dp1023
g15
(I1
I21
tp1024
sg17
VLFO 1
p1025
sg19
(I1
I18
tp1026
sg21
I2
sg22
(lp1027
g1
(g24
g3
Ntp1028
Rp1029
(dp1030
g15
(I0
I21
tp1031
sg29
(lp1032
I0
aI1
asg19
(I1
I18
tp1033
sg32
I1
sg33
(dp1034
I0
VOff
p1035
sI1
V1/64
p1036
sI2
V1/32
p1037
sI3
V1/16
p1038
sI4
V1/8
p1039
sI5
V1/4
p1040
sI6
V1/2
p1041
sI7
V3/64
p1042
sI8
V3/32
p1043
sI9
V3/16
p1044
sI10
V3/8
p1045
sI11
V1/24
p1046
sI12
V1/12
p1047
sI13
V1/6
p1048
sI14
V1/3
p1049
sI15
V2/3
p1050
sI16
V3/4
p1051
sI17
V1/1
p1052
sI18
V2/1
p1053
sI19
V4/1
p1054
sI20
V8/1
p1055
sI21
V16/1
p1056
ssg17
VClock
p1057
sbag1
(g24
g3
Ntp1058
Rp1059
(dp1060
g15
g28
sg29
(lp1061
I0
asg19
(I0
I67
tp1062
sg32
I0
sg33
(dp1063
sg17
VRate
p1064
sbag1
(g24
g3
Ntp1065
Rp1066
(dp1067
g15
g28
sg29
(lp1068
sg19
(I0
I17
tp1069
sg32
I11
sg33
(dp1070
sg17
V--
p1071
sbag1
(g24
g3
Ntp1072
Rp1073
(dp1074
g15
(I6
I67
tp1075
sg29
(lp1076
I0
aI1
asg19
(I0
I68
tp1077
sg32
I12
sg33
(dp1078
I0
VSine
p1079
sI1
VTriangle
p1080
sI2
VSawtooth
p1081
sI3
VSquare
p1082
sI4
VS&H
p1083
sI5
VS&G
p1084
sI6
VWave 3
p1085
ssg17
VShape
p1086
sbag1
(g24
g3
Ntp1087
Rp1088
(dp1089
g15
g28
sg29
(lp1090
I0
aI1
asg19
(I0
I71
tp1091
sg32
I4
sg33
(dp1092
sg17
VContour
p1093
sbag1
(g24
g3
Ntp1094
Rp1095
(dp1096
g15
(I0
I1
tp1097
sg29
(lp1098
I0
aI1
asg19
(I0
I70
tp1099
sg32
I1
sg33
(dp1100
I0
VPoly
p1101
sI1
VMono
p1102
ssg17
VMode
p1103
sbag1
(g24
g3
Ntp1104
Rp1105
(dp1106
g15
g28
sg29
(lp1107
I0
aI1
asg19
(I0
I69
tp1108
sg32
I9
sg33
(dp1109
sg17
VEnvelope Mode
p1110
sbag1
(g24
g3
Ntp1111
Rp1112
(dp1113
g15
g28
sg29
(lp1114
I0
aI1
asg19
(I0
I73
tp1115
sg32
I13
sg33
(dp1116
I0
VOff 0
p1117
ssg17
VTrigger Phase
p1118
sbag1
(g24
g3
Ntp1119
Rp1120
(dp1121
g15
g28
sg29
(lp1122
I0
aI1
asg19
(I0
I72
tp1123
sg32
I14
sg33
(dp1124
I0
VOff 0
p1125
ssg17
VKey Follow
p1126
sbasg33
(dp1127
sbag1
(g11
g3
Ntp1128
Rp1129
(dp1130
g15
g738
sg17
VLFO 1 Dest
p1131
sg19
g740
sg21
I0
sg22
(lp1132
g1
(g24
g3
Ntp1133
Rp1134
(dp1135
g15
g28
sg29
(lp1136
sg19
(I0
I74
tp1137
sg32
I5
sg33
(dp1138
sg17
VOsc1 Pitch
p1139
sbag1
(g24
g3
Ntp1140
Rp1141
(dp1142
g15
g28
sg29
(lp1143
sg19
(I0
I75
tp1144
sg32
I5
sg33
(dp1145
sg17
VOsc2 Pitch
p1146
sbag1
(g24
g3
Ntp1147
Rp1148
(dp1149
g15
g28
sg29
(lp1150
sg19
(I0
I76
tp1151
sg32
I5
sg33
(dp1152
sg17
VPulse Width
p1153
sbag1
(g24
g3
Ntp1154
Rp1155
(dp1156
g15
g28
sg29
(lp1157
sg19
(I0
I77
tp1158
sg32
I5
sg33
(dp1159
sg17
VResonance
p1160
sbag1
(g24
g3
Ntp1161
Rp1162
(dp1163
g15
g28
sg29
(lp1164
sg19
(I0
I78
tp1165
sg32
I5
sg33
(dp1166
sg17
VFilter Gain
p1167
sbag1
(g24
g3
Ntp1168
Rp1169
(dp1170
g15
(I0
I127
tp1171
sg29
(lp1172
sg19
(I1
I79
tp1173
sg32
I1
sg33
(dp1174
I0
VOff
p1175
sI1
VPatch Volume
p1176
sI2
VOsc 1 Interpolation
p1177
sI3
VPanorama
p1178
sI4
VTranspose
p1179
sI5
VPortamento
p1180
sI6
VOsc 1 Shape
p1181
sI7
VOsc 1 Pulse Width
p1182
sI8
VOsc 1 Wave Select
p1183
sI9
VOsc 1 Pitch
p1184
sI10
VSlot 6 Amount 3
p1185
sI11
VOsc 2 Shape
p1186
sI12
VOsc 2 Pulse Width
p1187
sI13
VOsc 2 Wave Select
p1188
sI14
VOsc 2 Pitch
p1189
sI15
VOsc 2 Detune
p1190
sI16
VOsc 2 FM Amount
p1191
sI17
VFiltEnv>Osc 2 Pitch
p1192
sI18
VFiltEnv>FM/Sync
p1193
sI19
VOsc 2 Interpolation
p1194
sI20
VOsc Balance
p1195
sI21
VSub Osc Volume
p1196
sI22
VOsc Volume
p1197
sI23
VNoise Volume
p1198
sI24
VFilter 1 Cutoff
p1199
sI25
VFilter 2 Cutoff
p1200
sI26
VFilter 1 Resonance
p1201
sI27
VFilter 2 Resonance
p1202
sI28
VFilter 1 Env Amount
p1203
sI29
VFilter 2 Env Amount
p1204
sI30
VSlot 5 Amount 2
p1205
sI31
VSlot 5 Amount 3
p1206
sI32
VFilter Balance
p1207
sI33
VFilter Env Attack
p1208
sI34
VFilter Env Decay
p1209
sI35
VFilter Env Sustain
p1210
sI36
VFilter Env Slope
p1211
sI37
VFilter Env Release
p1212
sI38
VAmp Env Attack
p1213
sI39
VAmp Env Decay
p1214
sI40
VAmp Env Sustain
p1215
sI41
VAmp Env Slope
p1216
sI42
VAmp Env Release
p1217
sI43
VLFO 1 Rate
p1218
sI44
VLFO 1 Contour
p1219
sI45
VLFO 1>Osc 1 Pitch
p1220
sI46
VLFO 1>Osc 2 Pitch
p1221
sI47
VLFO 1>Pulse Width
p1222
sI48
VLFO 1>Resonance
p1223
sI49
VLFO 1>Filter Gain
p1224
sI50
VLFO 2 Rate
p1225
sI51
VLFO 2 Contour
p1226
sI52
VLFO 2>Shape
p1227
sI53
VLFO 2>FM Amount
p1228
sI54
VLFO 2>Cutoff 1
p1229
sI55
VLFO 2>Cutoff 2
p1230
sI56
VLFO 2>Panorama
p1231
sI57
VLFO 3 Rate
p1232
sI58
VLFO 3 Assign Amt
p1233
sI59
VUnison Detune
p1234
sI60
VPan Spread
p1235
sI61
VUnison LFO Phase
p1236
sI62
VChorus Mix
p1237
sI63
VChorus Mod Rate
p1238
sI64
VChorus Mod Depth
p1239
sI65
VChorus Delay
p1240
sI66
VChorus Feedback
p1241
sI67
VDelay Send
p1242
sI68
VDelay Time
p1243
sI69
VDelay Feedback
p1244
sI70
VDelay Mod Rate
p1245
sI71
VDelay Mod Depth
p1246
sI72
VReverb Send
p1247
sI73
VOsc 1 WT Index
p1248
sI74
VOsc 2 WT Index
p1249
sI75
VSlot 6 Amount 2
p1250
sI76
VSlot 4 Amount 2
p1251
sI77
VSlot 4 Amount 3
p1252
sI80
VSlot 2 Amount 3
p1253
sI82
VSlot 1 Amount 1
p1254
sI83
VSlot 2 Amount 1
p1255
sI84
VSlot 2 Amount 2
p1256
sI85
VSlot 3 Amount 1
p1257
sI86
VSlot 3 Amount 2
p1258
sI87
VSlot 3 Amount 3
p1259
sI88
VOsc Initial Phase
p1260
sI89
VPunch Intensity
p1261
sI90
VRing Modulator
p1262
sI91
VNoise Color
p1263
sI92
VDelay Coloration
p1264
sI93
VSlot 1 Amount 2
p1265
sI94
VSlot 1 Amount 3
p1266
sI95
VDistortion Intensity
p1267
sI96
VFreqShifter Freq
p1268
sI97
VOsc 3 Volume
p1269
sI98
VOsc 3 Pitch
p1270
sI99
VOsc 3 Detune
p1271
sI100
VLFO 1 Assign Amt
p1272
sI101
VLFO 2 Assign Amt
p1273
sI102
VPhaser Mix
p1274
sI103
VPhaser Mod Rate
p1275
sI104
VPhaser Mod Depth
p1276
sI105
VPhaser Frequency
p1277
sI106
VPhaser Feedback
p1278
sI107
VPhaser Spread
p1279
sI108
VReverb Time
p1280
sI109
VReverb Damping
p1281
sI110
VReverb Color
p1282
sI111
VReverb PreDelay
p1283
sI112
VReverb Feedback
p1284
sI113
VSurround Balance
p1285
sI114
VArp Note Length
p1286
sI115
VArp Swing Factor
p1287
sI116
VArp Pattern
p1288
sI117
VEQ Mid Gain
p1289
sI118
VEQ Mid Frequency
p1290
sI119
VEQ Mid Q-Factor
p1291
sI120
VSlot 4 Amount 1
p1292
sI121
VSlot 5 Amount 1
p1293
sI122
VSlot 6 Amount 1
p1294
sI123
VOsc 1 F-Shift
p1295
sI124
VOsc 2 F-Shift
p1296
sI125
VOsc 1 F-Spread
p1297
sI126
VOsc 2 F-Spread
p1298
sI127
VDistortion Mix
p1299
ssg17
VAssign Target
p1300
sbag1
(g24
g3
Ntp1301
Rp1302
(dp1303
g15
g28
sg29
(lp1304
sg19
(I1
I80
tp1305
sg32
I5
sg33
(dp1306
sg17
VAmount
p1307
sbasg33
(dp1308
sbag1
(g11
g3
Ntp1309
Rp1310
(dp1311
g15
g1024
sg17
VLFO 2
p1312
sg19
(I1
I19
tp1313
sg21
I2
sg22
(lp1314
g1
(g24
g3
Ntp1315
Rp1316
(dp1317
g15
g1031
sg29
(lp1318
I0
aI1
asg19
(I1
I19
tp1319
sg32
I1
sg33
(dp1320
I0
g1035
sI1
g1036
sI2
g1037
sI3
g1038
sI4
g1039
sI5
g1040
sI6
g1041
sI7
g1042
sI8
g1043
sI9
g1044
sI10
g1045
sI11
g1046
sI12
g1047
sI13
g1048
sI14
g1049
sI15
g1050
sI16
g1051
sI17
g1052
sI18
g1053
sI19
g1054
sI20
g1055
sI21
g1056
ssg17
VClock
p1321
sbag1
(g24
g3
Ntp1322
Rp1323
(dp1324
g15
g28
sg29
(lp1325
I0
asg19
(I0
I79
tp1326
sg32
I0
sg33
(dp1327
sg17
VRate
p1328
sbag1
(g24
g3
Ntp1329
Rp1330
(dp1331
g15
g28
sg29
g1068
sg19
g1069
sg32
I11
sg33
(dp1332
sg17
g1071
sbag1
(g24
g3
Ntp1333
Rp1334
(dp1335
g15
g1075
sg29
(lp1336
I0
aI1
asg19
(I0
I80
tp1337
sg32
I12
sg33
(dp1338
I0
g1079
sI1
g1080
sI2
g1081
sI3
g1082
sI4
g1083
sI5
g1084
sI6
g1085
ssg17
VShape
p1339
sbag1
(g24
g3
Ntp1340
Rp1341
(dp1342
g15
g28
sg29
(lp1343
I0
aI1
asg19
(I0
I83
tp1344
sg32
I4
sg33
(dp1345
sg17
VContour
p1346
sbag1
(g24
g3
Ntp1347
Rp1348
(dp1349
g15
g1097
sg29
(lp1350
I0
aI1
asg19
(I0
I82
tp1351
sg32
I1
sg33
(dp1352
I0
g1101
sI1
g1102
ssg17
VMode
p1353
sbag1
(g24
g3
Ntp1354
Rp1355
(dp1356
g15
g28
sg29
(lp1357
I0
aI1
asg19
(I0
I81
tp1358
sg32
I9
sg33
(dp1359
sg17
VEnvelope Mode
p1360
sbag1
(g24
g3
Ntp1361
Rp1362
(dp1363
g15
g28
sg29
(lp1364
I0
aI1
asg19
(I0
I85
tp1365
sg32
I13
sg33
(dp1366
I0
VOff 0
p1367
ssg17
VTrigger Phase
p1368
sbag1
(g24
g3
Ntp1369
Rp1370
(dp1371
g15
g28
sg29
(lp1372
I0
aI1
asg19
(I0
I84
tp1373
sg32
I14
sg33
(dp1374
I0
VOff 0
p1375
ssg17
VKey Follow
p1376
sbasg33
(dp1377
sbag1
(g11
g3
Ntp1378
Rp1379
(dp1380
g15
g738
sg17
VLFO 2 Dest
p1381
sg19
g740
sg21
I0
sg22
(lp1382
g1
(g24
g3
Ntp1383
Rp1384
(dp1385
g15
g28
sg29
(lp1386
sg19
(I0
I88
tp1387
sg32
I5
sg33
(dp1388
sg17
VCutoff 1
p1389
sbag1
(g24
g3
Ntp1390
Rp1391
(dp1392
g15
g28
sg29
(lp1393
sg19
(I0
I89
tp1394
sg32
I5
sg33
(dp1395
sg17
VCutoff 2
p1396
sbag1
(g24
g3
Ntp1397
Rp1398
(dp1399
g15
g28
sg29
(lp1400
sg19
(I0
I86
tp1401
sg32
I5
sg33
(dp1402
sg17
VShape 1+2
p1403
sbag1
(g24
g3
Ntp1404
Rp1405
(dp1406
g15
g28
sg29
(lp1407
sg19
(I0
I87
tp1408
sg32
I5
sg33
(dp1409
sg17
VFM Amount
p1410
sbag1
(g24
g3
Ntp1411
Rp1412
(dp1413
g15
g28
sg29
(lp1414
sg19
(I0
I90
tp1415
sg32
I5
sg33
(dp1416
sg17
VPanorama
p1417
sbag1
(g24
g3
Ntp1418
Rp1419
(dp1420
g15
g1171
sg29
(lp1421
sg19
(I1
I81
tp1422
sg32
I1
sg33
(dp1423
I0
g1175
sI1
g1176
sI2
g1177
sI3
g1178
sI4
g1179
sI5
g1180
sI6
g1181
sI7
g1182
sI8
g1183
sI9
g1184
sI10
g1185
sI11
g1186
sI12
g1187
sI13
g1188
sI14
g1189
sI15
g1190
sI16
g1191
sI17
g1192
sI18
g1193
sI19
g1194
sI20
g1195
sI21
g1196
sI22
g1197
sI23
g1198
sI24
g1199
sI25
g1200
sI26
g1201
sI27
g1202
sI28
g1203
sI29
g1204
sI30
g1205
sI31
g1206
sI32
g1207
sI33
g1208
sI34
g1209
sI35
g1210
sI36
g1211
sI37
g1212
sI38
g1213
sI39
g1214
sI40
g1215
sI41
g1216
sI42
g1217
sI43
g1218
sI44
g1219
sI45
g1220
sI46
g1221
sI47
g1222
sI48
g1223
sI49
g1224
sI50
g1225
sI51
g1226
sI52
g1227
sI53
g1228
sI54
g1229
sI55
g1230
sI56
g1231
sI57
g1232
sI58
g1233
sI59
g1234
sI60
g1235
sI61
g1236
sI62
g1237
sI63
g1238
sI64
g1239
sI65
g1240
sI66
g1241
sI67
g1242
sI68
g1243
sI69
g1244
sI70
g1245
sI71
g1246
sI72
g1247
sI73
g1248
sI74
g1249
sI75
g1250
sI76
g1251
sI77
g1252
sI80
g1253
sI82
g1254
sI83
g1255
sI84
g1256
sI85
g1257
sI86
g1258
sI87
g1259
sI88
g1260
sI89
g1261
sI90
g1262
sI91
g1263
sI92
g1264
sI93
g1265
sI94
g1266
sI95
g1267
sI96
g1268
sI97
g1269
sI98
g1270
sI99
g1271
sI100
g1272
sI101
g1273
sI102
g1274
sI103
g1275
sI104
g1276
sI105
g1277
sI106
g1278
sI107
g1279
sI108
g1280
sI109
g1281
sI110
g1282
sI111
g1283
sI112
g1284
sI113
g1285
sI114
g1286
sI115
g1287
sI116
g1288
sI117
g1289
sI118
g1290
sI119
g1291
sI120
g1292
sI121
g1293
sI122
g1294
sI123
g1295
sI124
g1296
sI125
g1297
sI126
g1298
sI127
g1299
ssg17
VAssign Target
p1424
sbag1
(g24
g3
Ntp1425
Rp1426
(dp1427
g15
g28
sg29
(lp1428
sg19
(I1
I82
tp1429
sg32
I5
sg33
(dp1430
sg17
VAmount
p1431
sbasg33
(dp1432
sbag1
(g11
g3
Ntp1433
Rp1434
(dp1435
g15
g1024
sg17
VLFO 3
p1436
sg19
(I1
I21
tp1437
sg21
I2
sg22
(lp1438
g1
(g24
g3
Ntp1439
Rp1440
(dp1441
g15
g1031
sg29
(lp1442
I0
aI1
asg19
(I1
I21
tp1443
sg32
I1
sg33
(dp1444
I0
g1035
sI1
g1036
sI2
g1037
sI3
g1038
sI4
g1039
sI5
g1040
sI6
g1041
sI7
g1042
sI8
g1043
sI9
g1044
sI10
g1045
sI11
g1046
sI12
g1047
sI13
g1048
sI14
g1049
sI15
g1050
sI16
g1051
sI17
g1052
sI18
g1053
sI19
g1054
sI20
g1055
sI21
g1056
ssg17
VClock
p1445
sbag1
(g24
g3
Ntp1446
Rp1447
(dp1448
g15
g28
sg29
(lp1449
I0
asg19
(I1
I7
tp1450
sg32
I0
sg33
(dp1451
sg17
VRate
p1452
sbag1
(g24
g3
Ntp1453
Rp1454
(dp1455
g15
g28
sg29
g1068
sg19
g1069
sg32
I11
sg33
(dp1456
sg17
g1071
sbag1
(g24
g3
Ntp1457
Rp1458
(dp1459
g15
g1075
sg29
(lp1460
I0
aI1
asg19
(I1
I8
tp1461
sg32
I12
sg33
(dp1462
I0
g1079
sI1
g1080
sI2
g1081
sI3
g1082
sI4
g1083
sI5
g1084
sI6
g1085
ssg17
VShape
p1463
sbag1
(g24
g3
Ntp1464
Rp1465
(dp1466
g15
g1097
sg29
(lp1467
I0
aI1
asg19
(I1
I9
tp1468
sg32
I1
sg33
(dp1469
I0
g1101
sI1
g1102
ssg17
VMode
p1470
sbag1
(g24
g3
Ntp1471
Rp1472
(dp1473
g15
g28
sg29
(lp1474
I0
aI1
asg19
(I1
I10
tp1475
sg32
I0
sg33
(dp1476
sg17
VKey Follow
p1477
sbasg33
(dp1478
sbag1
(g11
g3
Ntp1479
Rp1480
(dp1481
g15
g738
sg17
VLFO 3 Dest
p1482
sg19
g740
sg21
I0
sg22
(lp1483
g1
(g24
g3
Ntp1484
Rp1485
(dp1486
g15
g28
sg29
(lp1487
sg19
(I1
I13
tp1488
sg32
I0
sg33
(dp1489
sg17
VFade In
p1490
sbag1
(g24
g3
Ntp1491
Rp1492
(dp1493
g15
(I0
I6
tp1494
sg29
(lp1495
sg19
(I1
I11
tp1496
sg32
I1
sg33
(dp1497
I0
VOsc 1 Pitch
p1498
sI1
VOsc 1+2 Pitch
p1499
sI2
VOsc 2 Pitch
p1500
sI3
VOsc 1 Pulse Width
p1501
sI4
VOsc 1+2 Pulse Width
p1502
sI5
VOsc 2 Pulse Width
p1503
sI6
VSync Phase
p1504
ssg17
VAssign Target
p1505
sbag1
(g24
g3
Ntp1506
Rp1507
(dp1508
g15
g28
sg29
(lp1509
sg19
(I1
I12
tp1510
sg32
I7
sg33
(dp1511
sg17
VAmount
p1512
sbasg33
(dp1513
sbasg17
V.LFO
p1514
sg53
I3
sbag1
(g2
g3
Ntp1515
Rp1516
(dp1517
g7
(dp1518
I0
I2
sI1
I2
sI2
I2
ssg9
(lp1519
g1
(g11
g3
Ntp1520
Rp1521
(dp1522
g15
(I0
I0
tp1523
sg17
VSlot 1
p1524
sg19
(I0
I17
tp1525
sg21
I0
sg22
(lp1526
g1
(g24
g3
Ntp1527
Rp1528
(dp1529
g15
(I0
I37
tp1530
sg29
(lp1531
sg19
(I1
I64
tp1532
sg32
I1
sg33
(dp1533
I0
VOff
p1534
sI1
VPitch Bend
p1535
sI2
VChan Pressure
p1536
sI3
VMod Wheel
p1537
sI4
VBreath
p1538
sI5
VController 3
p1539
sI6
VFoot Pedal
p1540
sI7
VData Entry
p1541
sI8
VBalance
p1542
sI9
VController 9
p1543
sI10
VExpression
p1544
sI11
VController 12
p1545
sI12
VController 13
p1546
sI13
VController 14
p1547
sI14
VController 15
p1548
sI15
VController 16
p1549
sI16
VHold Pedal
p1550
sI17
VPortamento Sw
p1551
sI18
VSost Pedal
p1552
sI19
VAmp Envelope
p1553
sI20
VFilter Envelope
p1554
sI21
VLFO 1 bipolar
p1555
sI22
VLFO 2 bipolar
p1556
sI23
VLFO 3 bipolar
p1557
sI24
VVelocity On
p1558
sI25
VVelocity Off
p1559
sI26
VKey Follow
p1560
sI27
VRandom
p1561
sI28
VArp Input
p1562
sI29
VLFO 1 unipolar
p1563
sI30
VLFO 2 unipolar
p1564
sI31
VLFO 3 unipolar
p1565
sI32
V1% constant
p1566
sI33
V10% constant
p1567
sI34
VAnaKey1 Fine
p1568
sI35
VAnaKey 2 Fine
p1569
sI36
VAnaKey1 Coarse
p1570
sI37
VAnaKey2 Coarse
p1571
ssg17
VSource
p1572
sbag1
(g24
g3
Ntp1573
Rp1574
(dp1575
g15
g1171
sg29
(lp1576
sg19
(I1
I66
tp1577
sg32
I4
sg33
(dp1578
sg17
VAmount 1
p1579
sbag1
(g24
g3
Ntp1580
Rp1581
(dp1582
g15
g1171
sg29
(lp1583
sg19
(I3
I91
tp1584
sg32
I4
sg33
(dp1585
sg17
VAmount 2
p1586
sbag1
(g24
g3
Ntp1587
Rp1588
(dp1589
g15
g1171
sg29
(lp1590
sg19
(I3
I93
tp1591
sg32
I4
sg33
(dp1592
sg17
VAmount 3
p1593
sbag1
(g24
g3
Ntp1594
Rp1595
(dp1596
g15
g1171
sg29
(lp1597
sg19
(I1
I65
tp1598
sg32
I1
sg33
(dp1599
I0
g1175
sI1
g1176
sI2
g1177
sI3
g1178
sI4
g1179
sI5
g1180
sI6
g1181
sI7
g1182
sI8
g1183
sI9
g1184
sI10
g1185
sI11
g1186
sI12
g1187
sI13
g1188
sI14
g1189
sI15
g1190
sI16
g1191
sI17
g1192
sI18
g1193
sI19
g1194
sI20
g1195
sI21
g1196
sI22
g1197
sI23
g1198
sI24
g1199
sI25
g1200
sI26
g1201
sI27
g1202
sI28
g1203
sI29
g1204
sI30
g1205
sI31
g1206
sI32
g1207
sI33
g1208
sI34
g1209
sI35
g1210
sI36
g1211
sI37
g1212
sI38
g1213
sI39
g1214
sI40
g1215
sI41
g1216
sI42
g1217
sI43
g1218
sI44
g1219
sI45
g1220
sI46
g1221
sI47
g1222
sI48
g1223
sI49
g1224
sI50
g1225
sI51
g1226
sI52
g1227
sI53
g1228
sI54
g1229
sI55
g1230
sI56
g1231
sI57
g1232
sI58
g1233
sI59
g1234
sI60
g1235
sI61
g1236
sI62
g1237
sI63
g1238
sI64
g1239
sI65
g1240
sI66
g1241
sI67
g1242
sI68
g1243
sI69
g1244
sI70
g1245
sI71
g1246
sI72
g1247
sI73
g1248
sI74
g1249
sI75
g1250
sI76
g1251
sI77
g1252
sI80
g1253
sI82
g1254
sI83
g1255
sI84
g1256
sI85
g1257
sI86
g1258
sI87
g1259
sI88
g1260
sI89
g1261
sI90
g1262
sI91
g1263
sI92
g1264
sI93
g1265
sI94
g1266
sI95
g1267
sI96
g1268
sI97
g1269
sI98
g1270
sI99
g1271
sI100
g1272
sI101
g1273
sI102
g1274
sI103
g1275
sI104
g1276
sI105
g1277
sI106
g1278
sI107
g1279
sI108
g1280
sI109
g1281
sI110
g1282
sI111
g1283
sI112
g1284
sI113
g1285
sI114
g1286
sI115
g1287
sI116
g1288
sI117
g1289
sI118
g1290
sI119
g1291
sI120
g1292
sI121
g1293
sI122
g1294
sI123
g1295
sI124
g1296
sI125
g1297
sI126
g1298
sI127
g1299
ssg17
VDest 1
p1600
sbag1
(g24
g3
Ntp1601
Rp1602
(dp1603
g15
g1171
sg29
(lp1604
sg19
(I3
I90
tp1605
sg32
I1
sg33
(dp1606
I0
g1175
sI1
g1176
sI2
g1177
sI3
g1178
sI4
g1179
sI5
g1180
sI6
g1181
sI7
g1182
sI8
g1183
sI9
g1184
sI10
g1185
sI11
g1186
sI12
g1187
sI13
g1188
sI14
g1189
sI15
g1190
sI16
g1191
sI17
g1192
sI18
g1193
sI19
g1194
sI20
g1195
sI21
g1196
sI22
g1197
sI23
g1198
sI24
g1199
sI25
g1200
sI26
g1201
sI27
g1202
sI28
g1203
sI29
g1204
sI30
g1205
sI31
g1206
sI32
g1207
sI33
g1208
sI34
g1209
sI35
g1210
sI36
g1211
sI37
g1212
sI38
g1213
sI39
g1214
sI40
g1215
sI41
g1216
sI42
g1217
sI43
g1218
sI44
g1219
sI45
g1220
sI46
g1221
sI47
g1222
sI48
g1223
sI49
g1224
sI50
g1225
sI51
g1226
sI52
g1227
sI53
g1228
sI54
g1229
sI55
g1230
sI56
g1231
sI57
g1232
sI58
g1233
sI59
g1234
sI60
g1235
sI61
g1236
sI62
g1237
sI63
g1238
sI64
g1239
sI65
g1240
sI66
g1241
sI67
g1242
sI68
g1243
sI69
g1244
sI70
g1245
sI71
g1246
sI72
g1247
sI73
g1248
sI74
g1249
sI75
g1250
sI76
g1251
sI77
g1252
sI80
g1253
sI82
g1254
sI83
g1255
sI84
g1256
sI85
g1257
sI86
g1258
sI87
g1259
sI88
g1260
sI89
g1261
sI90
g1262
sI91
g1263
sI92
g1264
sI93
g1265
sI94
g1266
sI95
g1267
sI96
g1268
sI97
g1269
sI98
g1270
sI99
g1271
sI100
g1272
sI101
g1273
sI102
g1274
sI103
g1275
sI104
g1276
sI105
g1277
sI106
g1278
sI107
g1279
sI108
g1280
sI109
g1281
sI110
g1282
sI111
g1283
sI112
g1284
sI113
g1285
sI114
g1286
sI115
g1287
sI116
g1288
sI117
g1289
sI118
g1290
sI119
g1291
sI120
g1292
sI121
g1293
sI122
g1294
sI123
g1295
sI124
g1296
sI125
g1297
sI126
g1298
sI127
g1299
ssg17
VDest 2
p1607
sbag1
(g24
g3
Ntp1608
Rp1609
(dp1610
g15
g1171
sg29
(lp1611
sg19
(I3
I92
tp1612
sg32
I1
sg33
(dp1613
I0
g1175
sI1
g1176
sI2
g1177
sI3
g1178
sI4
g1179
sI5
g1180
sI6
g1181
sI7
g1182
sI8
g1183
sI9
g1184
sI10
g1185
sI11
g1186
sI12
g1187
sI13
g1188
sI14
g1189
sI15
g1190
sI16
g1191
sI17
g1192
sI18
g1193
sI19
g1194
sI20
g1195
sI21
g1196
sI22
g1197
sI23
g1198
sI24
g1199
sI25
g1200
sI26
g1201
sI27
g1202
sI28
g1203
sI29
g1204
sI30
g1205
sI31
g1206
sI32
g1207
sI33
g1208
sI34
g1209
sI35
g1210
sI36
g1211
sI37
g1212
sI38
g1213
sI39
g1214
sI40
g1215
sI41
g1216
sI42
g1217
sI43
g1218
sI44
g1219
sI45
g1220
sI46
g1221
sI47
g1222
sI48
g1223
sI49
g1224
sI50
g1225
sI51
g1226
sI52
g1227
sI53
g1228
sI54
g1229
sI55
g1230
sI56
g1231
sI57
g1232
sI58
g1233
sI59
g1234
sI60
g1235
sI61
g1236
sI62
g1237
sI63
g1238
sI64
g1239
sI65
g1240
sI66
g1241
sI67
g1242
sI68
g1243
sI69
g1244
sI70
g1245
sI71
g1246
sI72
g1247
sI73
g1248
sI74
g1249
sI75
g1250
sI76
g1251
sI77
g1252
sI80
g1253
sI82
g1254
sI83
g1255
sI84
g1256
sI85
g1257
sI86
g1258
sI87
g1259
sI88
g1260
sI89
g1261
sI90
g1262
sI91
g1263
sI92
g1264
sI93
g1265
sI94
g1266
sI95
g1267
sI96
g1268
sI97
g1269
sI98
g1270
sI99
g1271
sI100
g1272
sI101
g1273
sI102
g1274
sI103
g1275
sI104
g1276
sI105
g1277
sI106
g1278
sI107
g1279
sI108
g1280
sI109
g1281
sI110
g1282
sI111
g1283
sI112
g1284
sI113
g1285
sI114
g1286
sI115
g1287
sI116
g1288
sI117
g1289
sI118
g1290
sI119
g1291
sI120
g1292
sI121
g1293
sI122
g1294
sI123
g1295
sI124
g1296
sI125
g1297
sI126
g1298
sI127
g1299
ssg17
VDest 3
p1614
sbasg33
(dp1615
sbag1
(g11
g3
Ntp1616
Rp1617
(dp1618
g15
g1523
sg17
VSlot 4
p1619
sg19
g1525
sg21
I0
sg22
(lp1620
g1
(g24
g3
Ntp1621
Rp1622
(dp1623
g15
g1530
sg29
(lp1624
sg19
(I1
I103
tp1625
sg32
I1
sg33
(dp1626
I0
g1534
sI1
g1535
sI2
g1536
sI3
g1537
sI4
g1538
sI5
g1539
sI6
g1540
sI7
g1541
sI8
g1542
sI9
g1543
sI10
g1544
sI11
g1545
sI12
g1546
sI13
g1547
sI14
g1548
sI15
g1549
sI16
g1550
sI17
g1551
sI18
g1552
sI19
g1553
sI20
g1554
sI21
g1555
sI22
g1556
sI23
g1557
sI24
g1558
sI25
g1559
sI26
g1560
sI27
g1561
sI28
g1562
sI29
g1563
sI30
g1564
sI31
g1565
sI32
g1566
sI33
g1567
sI34
g1568
sI35
g1569
sI36
g1570
sI37
g1571
ssg17
VSource
p1627
sbag1
(g24
g3
Ntp1628
Rp1629
(dp1630
g15
g1171
sg29
(lp1631
sg19
(I1
I105
tp1632
sg32
I4
sg33
(dp1633
sg17
VAmount 1
p1634
sbag1
(g24
g3
Ntp1635
Rp1636
(dp1637
g15
g1171
sg29
(lp1638
sg19
(I3
I97
tp1639
sg32
I4
sg33
(dp1640
sg17
VAmount 2
p1641
sbag1
(g24
g3
Ntp1642
Rp1643
(dp1644
g15
g1171
sg29
(lp1645
sg19
(I3
I99
tp1646
sg32
I4
sg33
(dp1647
sg17
VAmount 3
p1648
sbag1
(g24
g3
Ntp1649
Rp1650
(dp1651
g15
g1171
sg29
(lp1652
sg19
(I1
I104
tp1653
sg32
I1
sg33
(dp1654
I0
g1175
sI1
g1176
sI2
g1177
sI3
g1178
sI4
g1179
sI5
g1180
sI6
g1181
sI7
g1182
sI8
g1183
sI9
g1184
sI10
g1185
sI11
g1186
sI12
g1187
sI13
g1188
sI14
g1189
sI15
g1190
sI16
g1191
sI17
g1192
sI18
g1193
sI19
g1194
sI20
g1195
sI21
g1196
sI22
g1197
sI23
g1198
sI24
g1199
sI25
g1200
sI26
g1201
sI27
g1202
sI28
g1203
sI29
g1204
sI30
g1205
sI31
g1206
sI32
g1207
sI33
g1208
sI34
g1209
sI35
g1210
sI36
g1211
sI37
g1212
sI38
g1213
sI39
g1214
sI40
g1215
sI41
g1216
sI42
g1217
sI43
g1218
sI44
g1219
sI45
g1220
sI46
g1221
sI47
g1222
sI48
g1223
sI49
g1224
sI50
g1225
sI51
g1226
sI52
g1227
sI53
g1228
sI54
g1229
sI55
g1230
sI56
g1231
sI57
g1232
sI58
g1233
sI59
g1234
sI60
g1235
sI61
g1236
sI62
g1237
sI63
g1238
sI64
g1239
sI65
g1240
sI66
g1241
sI67
g1242
sI68
g1243
sI69
g1244
sI70
g1245
sI71
g1246
sI72
g1247
sI73
g1248
sI74
g1249
sI75
g1250
sI76
g1251
sI77
g1252
sI80
g1253
sI82
g1254
sI83
g1255
sI84
g1256
sI85
g1257
sI86
g1258
sI87
g1259
sI88
g1260
sI89
g1261
sI90
g1262
sI91
g1263
sI92
g1264
sI93
g1265
sI94
g1266
sI95
g1267
sI96
g1268
sI97
g1269
sI98
g1270
sI99
g1271
sI100
g1272
sI101
g1273
sI102
g1274
sI103
g1275
sI104
g1276
sI105
g1277
sI106
g1278
sI107
g1279
sI108
g1280
sI109
g1281
sI110
g1282
sI111
g1283
sI112
g1284
sI113
g1285
sI114
g1286
sI115
g1287
sI116
g1288
sI117
g1289
sI118
g1290
sI119
g1291
sI120
g1292
sI121
g1293
sI122
g1294
sI123
g1295
sI124
g1296
sI125
g1297
sI126
g1298
sI127
g1299
ssg17
VDest 1
p1655
sbag1
(g24
g3
Ntp1656
Rp1657
(dp1658
g15
g1171
sg29
(lp1659
sg19
(I3
I96
tp1660
sg32
I1
sg33
(dp1661
I0
g1175
sI1
g1176
sI2
g1177
sI3
g1178
sI4
g1179
sI5
g1180
sI6
g1181
sI7
g1182
sI8
g1183
sI9
g1184
sI10
g1185
sI11
g1186
sI12
g1187
sI13
g1188
sI14
g1189
sI15
g1190
sI16
g1191
sI17
g1192
sI18
g1193
sI19
g1194
sI20
g1195
sI21
g1196
sI22
g1197
sI23
g1198
sI24
g1199
sI25
g1200
sI26
g1201
sI27
g1202
sI28
g1203
sI29
g1204
sI30
g1205
sI31
g1206
sI32
g1207
sI33
g1208
sI34
g1209
sI35
g1210
sI36
g1211
sI37
g1212
sI38
g1213
sI39
g1214
sI40
g1215
sI41
g1216
sI42
g1217
sI43
g1218
sI44
g1219
sI45
g1220
sI46
g1221
sI47
g1222
sI48
g1223
sI49
g1224
sI50
g1225
sI51
g1226
sI52
g1227
sI53
g1228
sI54
g1229
sI55
g1230
sI56
g1231
sI57
g1232
sI58
g1233
sI59
g1234
sI60
g1235
sI61
g1236
sI62
g1237
sI63
g1238
sI64
g1239
sI65
g1240
sI66
g1241
sI67
g1242
sI68
g1243
sI69
g1244
sI70
g1245
sI71
g1246
sI72
g1247
sI73
g1248
sI74
g1249
sI75
g1250
sI76
g1251
sI77
g1252
sI80
g1253
sI82
g1254
sI83
g1255
sI84
g1256
sI85
g1257
sI86
g1258
sI87
g1259
sI88
g1260
sI89
g1261
sI90
g1262
sI91
g1263
sI92
g1264
sI93
g1265
sI94
g1266
sI95
g1267
sI96
g1268
sI97
g1269
sI98
g1270
sI99
g1271
sI100
g1272
sI101
g1273
sI102
g1274
sI103
g1275
sI104
g1276
sI105
g1277
sI106
g1278
sI107
g1279
sI108
g1280
sI109
g1281
sI110
g1282
sI111
g1283
sI112
g1284
sI113
g1285
sI114
g1286
sI115
g1287
sI116
g1288
sI117
g1289
sI118
g1290
sI119
g1291
sI120
g1292
sI121
g1293
sI122
g1294
sI123
g1295
sI124
g1296
sI125
g1297
sI126
g1298
sI127
g1299
ssg17
VDest 2
p1662
sbag1
(g24
g3
Ntp1663
Rp1664
(dp1665
g15
g1171
sg29
(lp1666
sg19
(I3
I98
tp1667
sg32
I1
sg33
(dp1668
I0
g1175
sI1
g1176
sI2
g1177
sI3
g1178
sI4
g1179
sI5
g1180
sI6
g1181
sI7
g1182
sI8
g1183
sI9
g1184
sI10
g1185
sI11
g1186
sI12
g1187
sI13
g1188
sI14
g1189
sI15
g1190
sI16
g1191
sI17
g1192
sI18
g1193
sI19
g1194
sI20
g1195
sI21
g1196
sI22
g1197
sI23
g1198
sI24
g1199
sI25
g1200
sI26
g1201
sI27
g1202
sI28
g1203
sI29
g1204
sI30
g1205
sI31
g1206
sI32
g1207
sI33
g1208
sI34
g1209
sI35
g1210
sI36
g1211
sI37
g1212
sI38
g1213
sI39
g1214
sI40
g1215
sI41
g1216
sI42
g1217
sI43
g1218
sI44
g1219
sI45
g1220
sI46
g1221
sI47
g1222
sI48
g1223
sI49
g1224
sI50
g1225
sI51
g1226
sI52
g1227
sI53
g1228
sI54
g1229
sI55
g1230
sI56
g1231
sI57
g1232
sI58
g1233
sI59
g1234
sI60
g1235
sI61
g1236
sI62
g1237
sI63
g1238
sI64
g1239
sI65
g1240
sI66
g1241
sI67
g1242
sI68
g1243
sI69
g1244
sI70
g1245
sI71
g1246
sI72
g1247
sI73
g1248
sI74
g1249
sI75
g1250
sI76
g1251
sI77
g1252
sI80
g1253
sI82
g1254
sI83
g1255
sI84
g1256
sI85
g1257
sI86
g1258
sI87
g1259
sI88
g1260
sI89
g1261
sI90
g1262
sI91
g1263
sI92
g1264
sI93
g1265
sI94
g1266
sI95
g1267
sI96
g1268
sI97
g1269
sI98
g1270
sI99
g1271
sI100
g1272
sI101
g1273
sI102
g1274
sI103
g1275
sI104
g1276
sI105
g1277
sI106
g1278
sI107
g1279
sI108
g1280
sI109
g1281
sI110
g1282
sI111
g1283
sI112
g1284
sI113
g1285
sI114
g1286
sI115
g1287
sI116
g1288
sI117
g1289
sI118
g1290
sI119
g1291
sI120
g1292
sI121
g1293
sI122
g1294
sI123
g1295
sI124
g1296
sI125
g1297
sI126
g1298
sI127
g1299
ssg17
VDest 3
p1669
sbasg33
(dp1670
sbag1
(g11
g3
Ntp1671
Rp1672
(dp1673
g15
g1523
sg17
VSlot 2
p1674
sg19
g1525
sg21
I0
sg22
(lp1675
g1
(g24
g3
Ntp1676
Rp1677
(dp1678
g15
g1530
sg29
(lp1679
sg19
(I1
I67
tp1680
sg32
I1
sg33
(dp1681
I0
g1534
sI1
g1535
sI2
g1536
sI3
g1537
sI4
g1538
sI5
g1539
sI6
g1540
sI7
g1541
sI8
g1542
sI9
g1543
sI10
g1544
sI11
g1545
sI12
g1546
sI13
g1547
sI14
g1548
sI15
g1549
sI16
g1550
sI17
g1551
sI18
g1552
sI19
g1553
sI20
g1554
sI21
g1555
sI22
g1556
sI23
g1557
sI24
g1558
sI25
g1559
sI26
g1560
sI27
g1561
sI28
g1562
sI29
g1563
sI30
g1564
sI31
g1565
sI32
g1566
sI33
g1567
sI34
g1568
sI35
g1569
sI36
g1570
sI37
g1571
ssg17
VSource
p1682
sbag1
(g24
g3
Ntp1683
Rp1684
(dp1685
g15
g1171
sg29
(lp1686
sg19
(I1
I69
tp1687
sg32
I4
sg33
(dp1688
sg17
VAmount 1
p1689
sbag1
(g24
g3
Ntp1690
Rp1691
(dp1692
g15
g1171
sg29
(lp1693
sg19
(I1
I71
tp1694
sg32
I4
sg33
(dp1695
sg17
VAmount 2
p1696
sbag1
(g24
g3
Ntp1697
Rp1698
(dp1699
g15
g1171
sg29
(lp1700
sg19
(I3
I95
tp1701
sg32
I4
sg33
(dp1702
sg17
VAmount 3
p1703
sbag1
(g24
g3
Ntp1704
Rp1705
(dp1706
g15
g1171
sg29
(lp1707
sg19
(I1
I68
tp1708
sg32
I1
sg33
(dp1709
I0
g1175
sI1
g1176
sI2
g1177
sI3
g1178
sI4
g1179
sI5
g1180
sI6
g1181
sI7
g1182
sI8
g1183
sI9
g1184
sI10
g1185
sI11
g1186
sI12
g1187
sI13
g1188
sI14
g1189
sI15
g1190
sI16
g1191
sI17
g1192
sI18
g1193
sI19
g1194
sI20
g1195
sI21
g1196
sI22
g1197
sI23
g1198
sI24
g1199
sI25
g1200
sI26
g1201
sI27
g1202
sI28
g1203
sI29
g1204
sI30
g1205
sI31
g1206
sI32
g1207
sI33
g1208
sI34
g1209
sI35
g1210
sI36
g1211
sI37
g1212
sI38
g1213
sI39
g1214
sI40
g1215
sI41
g1216
sI42
g1217
sI43
g1218
sI44
g1219
sI45
g1220
sI46
g1221
sI47
g1222
sI48
g1223
sI49
g1224
sI50
g1225
sI51
g1226
sI52
g1227
sI53
g1228
sI54
g1229
sI55
g1230
sI56
g1231
sI57
g1232
sI58
g1233
sI59
g1234
sI60
g1235
sI61
g1236
sI62
g1237
sI63
g1238
sI64
g1239
sI65
g1240
sI66
g1241
sI67
g1242
sI68
g1243
sI69
g1244
sI70
g1245
sI71
g1246
sI72
g1247
sI73
g1248
sI74
g1249
sI75
g1250
sI76
g1251
sI77
g1252
sI80
g1253
sI82
g1254
sI83
g1255
sI84
g1256
sI85
g1257
sI86
g1258
sI87
g1259
sI88
g1260
sI89
g1261
sI90
g1262
sI91
g1263
sI92
g1264
sI93
g1265
sI94
g1266
sI95
g1267
sI96
g1268
sI97
g1269
sI98
g1270
sI99
g1271
sI100
g1272
sI101
g1273
sI102
g1274
sI103
g1275
sI104
g1276
sI105
g1277
sI106
g1278
sI107
g1279
sI108
g1280
sI109
g1281
sI110
g1282
sI111
g1283
sI112
g1284
sI113
g1285
sI114
g1286
sI115
g1287
sI116
g1288
sI117
g1289
sI118
g1290
sI119
g1291
sI120
g1292
sI121
g1293
sI122
g1294
sI123
g1295
sI124
g1296
sI125
g1297
sI126
g1298
sI127
g1299
ssg17
VDest 1
p1710
sbag1
(g24
g3
Ntp1711
Rp1712
(dp1713
g15
g1171
sg29
(lp1714
sg19
(I1
I70
tp1715
sg32
I1
sg33
(dp1716
I0
g1175
sI1
g1176
sI2
g1177
sI3
g1178
sI4
g1179
sI5
g1180
sI6
g1181
sI7
g1182
sI8
g1183
sI9
g1184
sI10
g1185
sI11
g1186
sI12
g1187
sI13
g1188
sI14
g1189
sI15
g1190
sI16
g1191
sI17
g1192
sI18
g1193
sI19
g1194
sI20
g1195
sI21
g1196
sI22
g1197
sI23
g1198
sI24
g1199
sI25
g1200
sI26
g1201
sI27
g1202
sI28
g1203
sI29
g1204
sI30
g1205
sI31
g1206
sI32
g1207
sI33
g1208
sI34
g1209
sI35
g1210
sI36
g1211
sI37
g1212
sI38
g1213
sI39
g1214
sI40
g1215
sI41
g1216
sI42
g1217
sI43
g1218
sI44
g1219
sI45
g1220
sI46
g1221
sI47
g1222
sI48
g1223
sI49
g1224
sI50
g1225
sI51
g1226
sI52
g1227
sI53
g1228
sI54
g1229
sI55
g1230
sI56
g1231
sI57
g1232
sI58
g1233
sI59
g1234
sI60
g1235
sI61
g1236
sI62
g1237
sI63
g1238
sI64
g1239
sI65
g1240
sI66
g1241
sI67
g1242
sI68
g1243
sI69
g1244
sI70
g1245
sI71
g1246
sI72
g1247
sI73
g1248
sI74
g1249
sI75
g1250
sI76
g1251
sI77
g1252
sI80
g1253
sI82
g1254
sI83
g1255
sI84
g1256
sI85
g1257
sI86
g1258
sI87
g1259
sI88
g1260
sI89
g1261
sI90
g1262
sI91
g1263
sI92
g1264
sI93
g1265
sI94
g1266
sI95
g1267
sI96
g1268
sI97
g1269
sI98
g1270
sI99
g1271
sI100
g1272
sI101
g1273
sI102
g1274
sI103
g1275
sI104
g1276
sI105
g1277
sI106
g1278
sI107
g1279
sI108
g1280
sI109
g1281
sI110
g1282
sI111
g1283
sI112
g1284
sI113
g1285
sI114
g1286
sI115
g1287
sI116
g1288
sI117
g1289
sI118
g1290
sI119
g1291
sI120
g1292
sI121
g1293
sI122
g1294
sI123
g1295
sI124
g1296
sI125
g1297
sI126
g1298
sI127
g1299
ssg17
VDest 2
p1717
sbag1
(g24
g3
Ntp1718
Rp1719
(dp1720
g15
g1171
sg29
(lp1721
sg19
(I3
I94
tp1722
sg32
I1
sg33
(dp1723
I0
g1175
sI1
g1176
sI2
g1177
sI3
g1178
sI4
g1179
sI5
g1180
sI6
g1181
sI7
g1182
sI8
g1183
sI9
g1184
sI10
g1185
sI11
g1186
sI12
g1187
sI13
g1188
sI14
g1189
sI15
g1190
sI16
g1191
sI17
g1192
sI18
g1193
sI19
g1194
sI20
g1195
sI21
g1196
sI22
g1197
sI23
g1198
sI24
g1199
sI25
g1200
sI26
g1201
sI27
g1202
sI28
g1203
sI29
g1204
sI30
g1205
sI31
g1206
sI32
g1207
sI33
g1208
sI34
g1209
sI35
g1210
sI36
g1211
sI37
g1212
sI38
g1213
sI39
g1214
sI40
g1215
sI41
g1216
sI42
g1217
sI43
g1218
sI44
g1219
sI45
g1220
sI46
g1221
sI47
g1222
sI48
g1223
sI49
g1224
sI50
g1225
sI51
g1226
sI52
g1227
sI53
g1228
sI54
g1229
sI55
g1230
sI56
g1231
sI57
g1232
sI58
g1233
sI59
g1234
sI60
g1235
sI61
g1236
sI62
g1237
sI63
g1238
sI64
g1239
sI65
g1240
sI66
g1241
sI67
g1242
sI68
g1243
sI69
g1244
sI70
g1245
sI71
g1246
sI72
g1247
sI73
g1248
sI74
g1249
sI75
g1250
sI76
g1251
sI77
g1252
sI80
g1253
sI82
g1254
sI83
g1255
sI84
g1256
sI85
g1257
sI86
g1258
sI87
g1259
sI88
g1260
sI89
g1261
sI90
g1262
sI91
g1263
sI92
g1264
sI93
g1265
sI94
g1266
sI95
g1267
sI96
g1268
sI97
g1269
sI98
g1270
sI99
g1271
sI100
g1272
sI101
g1273
sI102
g1274
sI103
g1275
sI104
g1276
sI105
g1277
sI106
g1278
sI107
g1279
sI108
g1280
sI109
g1281
sI110
g1282
sI111
g1283
sI112
g1284
sI113
g1285
sI114
g1286
sI115
g1287
sI116
g1288
sI117
g1289
sI118
g1290
sI119
g1291
sI120
g1292
sI121
g1293
sI122
g1294
sI123
g1295
sI124
g1296
sI125
g1297
sI126
g1298
sI127
g1299
ssg17
VDest 3
p1724
sbasg33
(dp1725
sbag1
(g11
g3
Ntp1726
Rp1727
(dp1728
g15
g1523
sg17
VSlot 5
p1729
sg19
g1525
sg21
I0
sg22
(lp1730
g1
(g24
g3
Ntp1731
Rp1732
(dp1733
g15
g1530
sg29
(lp1734
sg19
(I1
I106
tp1735
sg32
I1
sg33
(dp1736
I0
g1534
sI1
g1535
sI2
g1536
sI3
g1537
sI4
g1538
sI5
g1539
sI6
g1540
sI7
g1541
sI8
g1542
sI9
g1543
sI10
g1544
sI11
g1545
sI12
g1546
sI13
g1547
sI14
g1548
sI15
g1549
sI16
g1550
sI17
g1551
sI18
g1552
sI19
g1553
sI20
g1554
sI21
g1555
sI22
g1556
sI23
g1557
sI24
g1558
sI25
g1559
sI26
g1560
sI27
g1561
sI28
g1562
sI29
g1563
sI30
g1564
sI31
g1565
sI32
g1566
sI33
g1567
sI34
g1568
sI35
g1569
sI36
g1570
sI37
g1571
ssg17
VSource
p1737
sbag1
(g24
g3
Ntp1738
Rp1739
(dp1740
g15
g1171
sg29
(lp1741
sg19
(I1
I108
tp1742
sg32
I4
sg33
(dp1743
sg17
VAmount 1
p1744
sbag1
(g24
g3
Ntp1745
Rp1746
(dp1747
g15
g1171
sg29
(lp1748
sg19
(I3
I101
tp1749
sg32
I4
sg33
(dp1750
sg17
VAmount 2
p1751
sbag1
(g24
g3
Ntp1752
Rp1753
(dp1754
g15
g1171
sg29
(lp1755
sg19
(I3
I103
tp1756
sg32
I4
sg33
(dp1757
sg17
VAmount 3
p1758
sbag1
(g24
g3
Ntp1759
Rp1760
(dp1761
g15
g1171
sg29
(lp1762
sg19
(I1
I107
tp1763
sg32
I1
sg33
(dp1764
I0
g1175
sI1
g1176
sI2
g1177
sI3
g1178
sI4
g1179
sI5
g1180
sI6
g1181
sI7
g1182
sI8
g1183
sI9
g1184
sI10
g1185
sI11
g1186
sI12
g1187
sI13
g1188
sI14
g1189
sI15
g1190
sI16
g1191
sI17
g1192
sI18
g1193
sI19
g1194
sI20
g1195
sI21
g1196
sI22
g1197
sI23
g1198
sI24
g1199
sI25
g1200
sI26
g1201
sI27
g1202
sI28
g1203
sI29
g1204
sI30
g1205
sI31
g1206
sI32
g1207
sI33
g1208
sI34
g1209
sI35
g1210
sI36
g1211
sI37
g1212
sI38
g1213
sI39
g1214
sI40
g1215
sI41
g1216
sI42
g1217
sI43
g1218
sI44
g1219
sI45
g1220
sI46
g1221
sI47
g1222
sI48
g1223
sI49
g1224
sI50
g1225
sI51
g1226
sI52
g1227
sI53
g1228
sI54
g1229
sI55
g1230
sI56
g1231
sI57
g1232
sI58
g1233
sI59
g1234
sI60
g1235
sI61
g1236
sI62
g1237
sI63
g1238
sI64
g1239
sI65
g1240
sI66
g1241
sI67
g1242
sI68
g1243
sI69
g1244
sI70
g1245
sI71
g1246
sI72
g1247
sI73
g1248
sI74
g1249
sI75
g1250
sI76
g1251
sI77
g1252
sI80
g1253
sI82
g1254
sI83
g1255
sI84
g1256
sI85
g1257
sI86
g1258
sI87
g1259
sI88
g1260
sI89
g1261
sI90
g1262
sI91
g1263
sI92
g1264
sI93
g1265
sI94
g1266
sI95
g1267
sI96
g1268
sI97
g1269
sI98
g1270
sI99
g1271
sI100
g1272
sI101
g1273
sI102
g1274
sI103
g1275
sI104
g1276
sI105
g1277
sI106
g1278
sI107
g1279
sI108
g1280
sI109
g1281
sI110
g1282
sI111
g1283
sI112
g1284
sI113
g1285
sI114
g1286
sI115
g1287
sI116
g1288
sI117
g1289
sI118
g1290
sI119
g1291
sI120
g1292
sI121
g1293
sI122
g1294
sI123
g1295
sI124
g1296
sI125
g1297
sI126
g1298
sI127
g1299
ssg17
VDest 1
p1765
sbag1
(g24
g3
Ntp1766
Rp1767
(dp1768
g15
g1171
sg29
(lp1769
sg19
(I3
I100
tp1770
sg32
I1
sg33
(dp1771
I0
g1175
sI1
g1176
sI2
g1177
sI3
g1178
sI4
g1179
sI5
g1180
sI6
g1181
sI7
g1182
sI8
g1183
sI9
g1184
sI10
g1185
sI11
g1186
sI12
g1187
sI13
g1188
sI14
g1189
sI15
g1190
sI16
g1191
sI17
g1192
sI18
g1193
sI19
g1194
sI20
g1195
sI21
g1196
sI22
g1197
sI23
g1198
sI24
g1199
sI25
g1200
sI26
g1201
sI27
g1202
sI28
g1203
sI29
g1204
sI30
g1205
sI31
g1206
sI32
g1207
sI33
g1208
sI34
g1209
sI35
g1210
sI36
g1211
sI37
g1212
sI38
g1213
sI39
g1214
sI40
g1215
sI41
g1216
sI42
g1217
sI43
g1218
sI44
g1219
sI45
g1220
sI46
g1221
sI47
g1222
sI48
g1223
sI49
g1224
sI50
g1225
sI51
g1226
sI52
g1227
sI53
g1228
sI54
g1229
sI55
g1230
sI56
g1231
sI57
g1232
sI58
g1233
sI59
g1234
sI60
g1235
sI61
g1236
sI62
g1237
sI63
g1238
sI64
g1239
sI65
g1240
sI66
g1241
sI67
g1242
sI68
g1243
sI69
g1244
sI70
g1245
sI71
g1246
sI72
g1247
sI73
g1248
sI74
g1249
sI75
g1250
sI76
g1251
sI77
g1252
sI80
g1253
sI82
g1254
sI83
g1255
sI84
g1256
sI85
g1257
sI86
g1258
sI87
g1259
sI88
g1260
sI89
g1261
sI90
g1262
sI91
g1263
sI92
g1264
sI93
g1265
sI94
g1266
sI95
g1267
sI96
g1268
sI97
g1269
sI98
g1270
sI99
g1271
sI100
g1272
sI101
g1273
sI102
g1274
sI103
g1275
sI104
g1276
sI105
g1277
sI106
g1278
sI107
g1279
sI108
g1280
sI109
g1281
sI110
g1282
sI111
g1283
sI112
g1284
sI113
g1285
sI114
g1286
sI115
g1287
sI116
g1288
sI117
g1289
sI118
g1290
sI119
g1291
sI120
g1292
sI121
g1293
sI122
g1294
sI123
g1295
sI124
g1296
sI125
g1297
sI126
g1298
sI127
g1299
ssg17
VDest 2
p1772
sbag1
(g24
g3
Ntp1773
Rp1774
(dp1775
g15
g1171
sg29
(lp1776
sg19
(I3
I102
tp1777
sg32
I1
sg33
(dp1778
I0
g1175
sI1
g1176
sI2
g1177
sI3
g1178
sI4
g1179
sI5
g1180
sI6
g1181
sI7
g1182
sI8
g1183
sI9
g1184
sI10
g1185
sI11
g1186
sI12
g1187
sI13
g1188
sI14
g1189
sI15
g1190
sI16
g1191
sI17
g1192
sI18
g1193
sI19
g1194
sI20
g1195
sI21
g1196
sI22
g1197
sI23
g1198
sI24
g1199
sI25
g1200
sI26
g1201
sI27
g1202
sI28
g1203
sI29
g1204
sI30
g1205
sI31
g1206
sI32
g1207
sI33
g1208
sI34
g1209
sI35
g1210
sI36
g1211
sI37
g1212
sI38
g1213
sI39
g1214
sI40
g1215
sI41
g1216
sI42
g1217
sI43
g1218
sI44
g1219
sI45
g1220
sI46
g1221
sI47
g1222
sI48
g1223
sI49
g1224
sI50
g1225
sI51
g1226
sI52
g1227
sI53
g1228
sI54
g1229
sI55
g1230
sI56
g1231
sI57
g1232
sI58
g1233
sI59
g1234
sI60
g1235
sI61
g1236
sI62
g1237
sI63
g1238
sI64
g1239
sI65
g1240
sI66
g1241
sI67
g1242
sI68
g1243
sI69
g1244
sI70
g1245
sI71
g1246
sI72
g1247
sI73
g1248
sI74
g1249
sI75
g1250
sI76
g1251
sI77
g1252
sI80
g1253
sI82
g1254
sI83
g1255
sI84
g1256
sI85
g1257
sI86
g1258
sI87
g1259
sI88
g1260
sI89
g1261
sI90
g1262
sI91
g1263
sI92
g1264
sI93
g1265
sI94
g1266
sI95
g1267
sI96
g1268
sI97
g1269
sI98
g1270
sI99
g1271
sI100
g1272
sI101
g1273
sI102
g1274
sI103
g1275
sI104
g1276
sI105
g1277
sI106
g1278
sI107
g1279
sI108
g1280
sI109
g1281
sI110
g1282
sI111
g1283
sI112
g1284
sI113
g1285
sI114
g1286
sI115
g1287
sI116
g1288
sI117
g1289
sI118
g1290
sI119
g1291
sI120
g1292
sI121
g1293
sI122
g1294
sI123
g1295
sI124
g1296
sI125
g1297
sI126
g1298
sI127
g1299
ssg17
VDest 3
p1779
sbasg33
(dp1780
sbag1
(g11
g3
Ntp1781
Rp1782
(dp1783
g15
g1523
sg17
VSlot 3
p1784
sg19
g1525
sg21
I0
sg22
(lp1785
g1
(g24
g3
Ntp1786
Rp1787
(dp1788
g15
g1530
sg29
(lp1789
sg19
(I1
I72
tp1790
sg32
I1
sg33
(dp1791
I0
g1534
sI1
g1535
sI2
g1536
sI3
g1537
sI4
g1538
sI5
g1539
sI6
g1540
sI7
g1541
sI8
g1542
sI9
g1543
sI10
g1544
sI11
g1545
sI12
g1546
sI13
g1547
sI14
g1548
sI15
g1549
sI16
g1550
sI17
g1551
sI18
g1552
sI19
g1553
sI20
g1554
sI21
g1555
sI22
g1556
sI23
g1557
sI24
g1558
sI25
g1559
sI26
g1560
sI27
g1561
sI28
g1562
sI29
g1563
sI30
g1564
sI31
g1565
sI32
g1566
sI33
g1567
sI34
g1568
sI35
g1569
sI36
g1570
sI37
g1571
ssg17
VSource
p1792
sbag1
(g24
g3
Ntp1793
Rp1794
(dp1795
g15
g1171
sg29
(lp1796
sg19
(I1
I74
tp1797
sg32
I4
sg33
(dp1798
sg17
VAmount 1
p1799
sbag1
(g24
g3
Ntp1800
Rp1801
(dp1802
g15
g1171
sg29
(lp1803
sg19
(I1
I76
tp1804
sg32
I4
sg33
(dp1805
sg17
VAmount 2
p1806
sbag1
(g24
g3
Ntp1807
Rp1808
(dp1809
g15
g1171
sg29
(lp1810
sg19
(I1
I78
tp1811
sg32
I4
sg33
(dp1812
sg17
VAmount 3
p1813
sbag1
(g24
g3
Ntp1814
Rp1815
(dp1816
g15
g1171
sg29
(lp1817
sg19
(I1
I73
tp1818
sg32
I1
sg33
(dp1819
I0
g1175
sI1
g1176
sI2
g1177
sI3
g1178
sI4
g1179
sI5
g1180
sI6
g1181
sI7
g1182
sI8
g1183
sI9
g1184
sI10
g1185
sI11
g1186
sI12
g1187
sI13
g1188
sI14
g1189
sI15
g1190
sI16
g1191
sI17
g1192
sI18
g1193
sI19
g1194
sI20
g1195
sI21
g1196
sI22
g1197
sI23
g1198
sI24
g1199
sI25
g1200
sI26
g1201
sI27
g1202
sI28
g1203
sI29
g1204
sI30
g1205
sI31
g1206
sI32
g1207
sI33
g1208
sI34
g1209
sI35
g1210
sI36
g1211
sI37
g1212
sI38
g1213
sI39
g1214
sI40
g1215
sI41
g1216
sI42
g1217
sI43
g1218
sI44
g1219
sI45
g1220
sI46
g1221
sI47
g1222
sI48
g1223
sI49
g1224
sI50
g1225
sI51
g1226
sI52
g1227
sI53
g1228
sI54
g1229
sI55
g1230
sI56
g1231
sI57
g1232
sI58
g1233
sI59
g1234
sI60
g1235
sI61
g1236
sI62
g1237
sI63
g1238
sI64
g1239
sI65
g1240
sI66
g1241
sI67
g1242
sI68
g1243
sI69
g1244
sI70
g1245
sI71
g1246
sI72
g1247
sI73
g1248
sI74
g1249
sI75
g1250
sI76
g1251
sI77
g1252
sI80
g1253
sI82
g1254
sI83
g1255
sI84
g1256
sI85
g1257
sI86
g1258
sI87
g1259
sI88
g1260
sI89
g1261
sI90
g1262
sI91
g1263
sI92
g1264
sI93
g1265
sI94
g1266
sI95
g1267
sI96
g1268
sI97
g1269
sI98
g1270
sI99
g1271
sI100
g1272
sI101
g1273
sI102
g1274
sI103
g1275
sI104
g1276
sI105
g1277
sI106
g1278
sI107
g1279
sI108
g1280
sI109
g1281
sI110
g1282
sI111
g1283
sI112
g1284
sI113
g1285
sI114
g1286
sI115
g1287
sI116
g1288
sI117
g1289
sI118
g1290
sI119
g1291
sI120
g1292
sI121
g1293
sI122
g1294
sI123
g1295
sI124
g1296
sI125
g1297
sI126
g1298
sI127
g1299
ssg17
VDest 1
p1820
sbag1
(g24
g3
Ntp1821
Rp1822
(dp1823
g15
g1171
sg29
(lp1824
sg19
(I1
I75
tp1825
sg32
I1
sg33
(dp1826
I0
g1175
sI1
g1176
sI2
g1177
sI3
g1178
sI4
g1179
sI5
g1180
sI6
g1181
sI7
g1182
sI8
g1183
sI9
g1184
sI10
g1185
sI11
g1186
sI12
g1187
sI13
g1188
sI14
g1189
sI15
g1190
sI16
g1191
sI17
g1192
sI18
g1193
sI19
g1194
sI20
g1195
sI21
g1196
sI22
g1197
sI23
g1198
sI24
g1199
sI25
g1200
sI26
g1201
sI27
g1202
sI28
g1203
sI29
g1204
sI30
g1205
sI31
g1206
sI32
g1207
sI33
g1208
sI34
g1209
sI35
g1210
sI36
g1211
sI37
g1212
sI38
g1213
sI39
g1214
sI40
g1215
sI41
g1216
sI42
g1217
sI43
g1218
sI44
g1219
sI45
g1220
sI46
g1221
sI47
g1222
sI48
g1223
sI49
g1224
sI50
g1225
sI51
g1226
sI52
g1227
sI53
g1228
sI54
g1229
sI55
g1230
sI56
g1231
sI57
g1232
sI58
g1233
sI59
g1234
sI60
g1235
sI61
g1236
sI62
g1237
sI63
g1238
sI64
g1239
sI65
g1240
sI66
g1241
sI67
g1242
sI68
g1243
sI69
g1244
sI70
g1245
sI71
g1246
sI72
g1247
sI73
g1248
sI74
g1249
sI75
g1250
sI76
g1251
sI77
g1252
sI80
g1253
sI82
g1254
sI83
g1255
sI84
g1256
sI85
g1257
sI86
g1258
sI87
g1259
sI88
g1260
sI89
g1261
sI90
g1262
sI91
g1263
sI92
g1264
sI93
g1265
sI94
g1266
sI95
g1267
sI96
g1268
sI97
g1269
sI98
g1270
sI99
g1271
sI100
g1272
sI101
g1273
sI102
g1274
sI103
g1275
sI104
g1276
sI105
g1277
sI106
g1278
sI107
g1279
sI108
g1280
sI109
g1281
sI110
g1282
sI111
g1283
sI112
g1284
sI113
g1285
sI114
g1286
sI115
g1287
sI116
g1288
sI117
g1289
sI118
g1290
sI119
g1291
sI120
g1292
sI121
g1293
sI122
g1294
sI123
g1295
sI124
g1296
sI125
g1297
sI126
g1298
sI127
g1299
ssg17
VDest 2
p1827
sbag1
(g24
g3
Ntp1828
Rp1829
(dp1830
g15
g1171
sg29
(lp1831
sg19
(I1
I77
tp1832
sg32
I1
sg33
(dp1833
I0
g1175
sI1
g1176
sI2
g1177
sI3
g1178
sI4
g1179
sI5
g1180
sI6
g1181
sI7
g1182
sI8
g1183
sI9
g1184
sI10
g1185
sI11
g1186
sI12
g1187
sI13
g1188
sI14
g1189
sI15
g1190
sI16
g1191
sI17
g1192
sI18
g1193
sI19
g1194
sI20
g1195
sI21
g1196
sI22
g1197
sI23
g1198
sI24
g1199
sI25
g1200
sI26
g1201
sI27
g1202
sI28
g1203
sI29
g1204
sI30
g1205
sI31
g1206
sI32
g1207
sI33
g1208
sI34
g1209
sI35
g1210
sI36
g1211
sI37
g1212
sI38
g1213
sI39
g1214
sI40
g1215
sI41
g1216
sI42
g1217
sI43
g1218
sI44
g1219
sI45
g1220
sI46
g1221
sI47
g1222
sI48
g1223
sI49
g1224
sI50
g1225
sI51
g1226
sI52
g1227
sI53
g1228
sI54
g1229
sI55
g1230
sI56
g1231
sI57
g1232
sI58
g1233
sI59
g1234
sI60
g1235
sI61
g1236
sI62
g1237
sI63
g1238
sI64
g1239
sI65
g1240
sI66
g1241
sI67
g1242
sI68
g1243
sI69
g1244
sI70
g1245
sI71
g1246
sI72
g1247
sI73
g1248
sI74
g1249
sI75
g1250
sI76
g1251
sI77
g1252
sI80
g1253
sI82
g1254
sI83
g1255
sI84
g1256
sI85
g1257
sI86
g1258
sI87
g1259
sI88
g1260
sI89
g1261
sI90
g1262
sI91
g1263
sI92
g1264
sI93
g1265
sI94
g1266
sI95
g1267
sI96
g1268
sI97
g1269
sI98
g1270
sI99
g1271
sI100
g1272
sI101
g1273
sI102
g1274
sI103
g1275
sI104
g1276
sI105
g1277
sI106
g1278
sI107
g1279
sI108
g1280
sI109
g1281
sI110
g1282
sI111
g1283
sI112
g1284
sI113
g1285
sI114
g1286
sI115
g1287
sI116
g1288
sI117
g1289
sI118
g1290
sI119
g1291
sI120
g1292
sI121
g1293
sI122
g1294
sI123
g1295
sI124
g1296
sI125
g1297
sI126
g1298
sI127
g1299
ssg17
VDest 3
p1834
sbasg33
(dp1835
sbag1
(g11
g3
Ntp1836
Rp1837
(dp1838
g15
g1523
sg17
VSlot 6
p1839
sg19
g1525
sg21
I0
sg22
(lp1840
g1
(g24
g3
Ntp1841
Rp1842
(dp1843
g15
g1530
sg29
(lp1844
sg19
(I1
I109
tp1845
sg32
I1
sg33
(dp1846
I0
g1534
sI1
g1535
sI2
g1536
sI3
g1537
sI4
g1538
sI5
g1539
sI6
g1540
sI7
g1541
sI8
g1542
sI9
g1543
sI10
g1544
sI11
g1545
sI12
g1546
sI13
g1547
sI14
g1548
sI15
g1549
sI16
g1550
sI17
g1551
sI18
g1552
sI19
g1553
sI20
g1554
sI21
g1555
sI22
g1556
sI23
g1557
sI24
g1558
sI25
g1559
sI26
g1560
sI27
g1561
sI28
g1562
sI29
g1563
sI30
g1564
sI31
g1565
sI32
g1566
sI33
g1567
sI34
g1568
sI35
g1569
sI36
g1570
sI37
g1571
ssg17
VSource
p1847
sbag1
(g24
g3
Ntp1848
Rp1849
(dp1850
g15
g1171
sg29
(lp1851
sg19
(I1
I111
tp1852
sg32
I4
sg33
(dp1853
sg17
VAmount 1
p1854
sbag1
(g24
g3
Ntp1855
Rp1856
(dp1857
g15
g1171
sg29
(lp1858
sg19
(I3
I105
tp1859
sg32
I4
sg33
(dp1860
sg17
VAmount 2
p1861
sbag1
(g24
g3
Ntp1862
Rp1863
(dp1864
g15
g1171
sg29
(lp1865
sg19
(I3
I107
tp1866
sg32
I4
sg33
(dp1867
sg17
VAmount 3
p1868
sbag1
(g24
g3
Ntp1869
Rp1870
(dp1871
g15
g1171
sg29
(lp1872
sg19
(I1
I110
tp1873
sg32
I1
sg33
(dp1874
I0
g1175
sI1
g1176
sI2
g1177
sI3
g1178
sI4
g1179
sI5
g1180
sI6
g1181
sI7
g1182
sI8
g1183
sI9
g1184
sI10
g1185
sI11
g1186
sI12
g1187
sI13
g1188
sI14
g1189
sI15
g1190
sI16
g1191
sI17
g1192
sI18
g1193
sI19
g1194
sI20
g1195
sI21
g1196
sI22
g1197
sI23
g1198
sI24
g1199
sI25
g1200
sI26
g1201
sI27
g1202
sI28
g1203
sI29
g1204
sI30
g1205
sI31
g1206
sI32
g1207
sI33
g1208
sI34
g1209
sI35
g1210
sI36
g1211
sI37
g1212
sI38
g1213
sI39
g1214
sI40
g1215
sI41
g1216
sI42
g1217
sI43
g1218
sI44
g1219
sI45
g1220
sI46
g1221
sI47
g1222
sI48
g1223
sI49
g1224
sI50
g1225
sI51
g1226
sI52
g1227
sI53
g1228
sI54
g1229
sI55
g1230
sI56
g1231
sI57
g1232
sI58
g1233
sI59
g1234
sI60
g1235
sI61
g1236
sI62
g1237
sI63
g1238
sI64
g1239
sI65
g1240
sI66
g1241
sI67
g1242
sI68
g1243
sI69
g1244
sI70
g1245
sI71
g1246
sI72
g1247
sI73
g1248
sI74
g1249
sI75
g1250
sI76
g1251
sI77
g1252
sI80
g1253
sI82
g1254
sI83
g1255
sI84
g1256
sI85
g1257
sI86
g1258
sI87
g1259
sI88
g1260
sI89
g1261
sI90
g1262
sI91
g1263
sI92
g1264
sI93
g1265
sI94
g1266
sI95
g1267
sI96
g1268
sI97
g1269
sI98
g1270
sI99
g1271
sI100
g1272
sI101
g1273
sI102
g1274
sI103
g1275
sI104
g1276
sI105
g1277
sI106
g1278
sI107
g1279
sI108
g1280
sI109
g1281
sI110
g1282
sI111
g1283
sI112
g1284
sI113
g1285
sI114
g1286
sI115
g1287
sI116
g1288
sI117
g1289
sI118
g1290
sI119
g1291
sI120
g1292
sI121
g1293
sI122
g1294
sI123
g1295
sI124
g1296
sI125
g1297
sI126
g1298
sI127
g1299
ssg17
VDest 1
p1875
sbag1
(g24
g3
Ntp1876
Rp1877
(dp1878
g15
g1171
sg29
(lp1879
sg19
(I3
I104
tp1880
sg32
I1
sg33
(dp1881
I0
g1175
sI1
g1176
sI2
g1177
sI3
g1178
sI4
g1179
sI5
g1180
sI6
g1181
sI7
g1182
sI8
g1183
sI9
g1184
sI10
g1185
sI11
g1186
sI12
g1187
sI13
g1188
sI14
g1189
sI15
g1190
sI16
g1191
sI17
g1192
sI18
g1193
sI19
g1194
sI20
g1195
sI21
g1196
sI22
g1197
sI23
g1198
sI24
g1199
sI25
g1200
sI26
g1201
sI27
g1202
sI28
g1203
sI29
g1204
sI30
g1205
sI31
g1206
sI32
g1207
sI33
g1208
sI34
g1209
sI35
g1210
sI36
g1211
sI37
g1212
sI38
g1213
sI39
g1214
sI40
g1215
sI41
g1216
sI42
g1217
sI43
g1218
sI44
g1219
sI45
g1220
sI46
g1221
sI47
g1222
sI48
g1223
sI49
g1224
sI50
g1225
sI51
g1226
sI52
g1227
sI53
g1228
sI54
g1229
sI55
g1230
sI56
g1231
sI57
g1232
sI58
g1233
sI59
g1234
sI60
g1235
sI61
g1236
sI62
g1237
sI63
g1238
sI64
g1239
sI65
g1240
sI66
g1241
sI67
g1242
sI68
g1243
sI69
g1244
sI70
g1245
sI71
g1246
sI72
g1247
sI73
g1248
sI74
g1249
sI75
g1250
sI76
g1251
sI77
g1252
sI80
g1253
sI82
g1254
sI83
g1255
sI84
g1256
sI85
g1257
sI86
g1258
sI87
g1259
sI88
g1260
sI89
g1261
sI90
g1262
sI91
g1263
sI92
g1264
sI93
g1265
sI94
g1266
sI95
g1267
sI96
g1268
sI97
g1269
sI98
g1270
sI99
g1271
sI100
g1272
sI101
g1273
sI102
g1274
sI103
g1275
sI104
g1276
sI105
g1277
sI106
g1278
sI107
g1279
sI108
g1280
sI109
g1281
sI110
g1282
sI111
g1283
sI112
g1284
sI113
g1285
sI114
g1286
sI115
g1287
sI116
g1288
sI117
g1289
sI118
g1290
sI119
g1291
sI120
g1292
sI121
g1293
sI122
g1294
sI123
g1295
sI124
g1296
sI125
g1297
sI126
g1298
sI127
g1299
ssg17
VDest 2
p1882
sbag1
(g24
g3
Ntp1883
Rp1884
(dp1885
g15
g1171
sg29
(lp1886
sg19
(I3
I106
tp1887
sg32
I1
sg33
(dp1888
I0
g1175
sI1
g1176
sI2
g1177
sI3
g1178
sI4
g1179
sI5
g1180
sI6
g1181
sI7
g1182
sI8
g1183
sI9
g1184
sI10
g1185
sI11
g1186
sI12
g1187
sI13
g1188
sI14
g1189
sI15
g1190
sI16
g1191
sI17
g1192
sI18
g1193
sI19
g1194
sI20
g1195
sI21
g1196
sI22
g1197
sI23
g1198
sI24
g1199
sI25
g1200
sI26
g1201
sI27
g1202
sI28
g1203
sI29
g1204
sI30
g1205
sI31
g1206
sI32
g1207
sI33
g1208
sI34
g1209
sI35
g1210
sI36
g1211
sI37
g1212
sI38
g1213
sI39
g1214
sI40
g1215
sI41
g1216
sI42
g1217
sI43
g1218
sI44
g1219
sI45
g1220
sI46
g1221
sI47
g1222
sI48
g1223
sI49
g1224
sI50
g1225
sI51
g1226
sI52
g1227
sI53
g1228
sI54
g1229
sI55
g1230
sI56
g1231
sI57
g1232
sI58
g1233
sI59
g1234
sI60
g1235
sI61
g1236
sI62
g1237
sI63
g1238
sI64
g1239
sI65
g1240
sI66
g1241
sI67
g1242
sI68
g1243
sI69
g1244
sI70
g1245
sI71
g1246
sI72
g1247
sI73
g1248
sI74
g1249
sI75
g1250
sI76
g1251
sI77
g1252
sI80
g1253
sI82
g1254
sI83
g1255
sI84
g1256
sI85
g1257
sI86
g1258
sI87
g1259
sI88
g1260
sI89
g1261
sI90
g1262
sI91
g1263
sI92
g1264
sI93
g1265
sI94
g1266
sI95
g1267
sI96
g1268
sI97
g1269
sI98
g1270
sI99
g1271
sI100
g1272
sI101
g1273
sI102
g1274
sI103
g1275
sI104
g1276
sI105
g1277
sI106
g1278
sI107
g1279
sI108
g1280
sI109
g1281
sI110
g1282
sI111
g1283
sI112
g1284
sI113
g1285
sI114
g1286
sI115
g1287
sI116
g1288
sI117
g1289
sI118
g1290
sI119
g1291
sI120
g1292
sI121
g1293
sI122
g1294
sI123
g1295
sI124
g1296
sI125
g1297
sI126
g1298
sI127
g1299
ssg17
VDest 3
p1889
sbasg33
(dp1890
sbasg17
V.Matrix
p1891
sg53
I3
sbag1
(g2
g3
Ntp1892
Rp1893
(dp1894
g7
(dp1895
I0
I1
ssg9
(lp1896
g1
(g11
g3
Ntp1897
Rp1898
(dp1899
g15
(I0
I3
tp1900
sg17
VDelay
p1901
sg19
(I3
I10
tp1902
sg21
I1
sg22
(lp1903
g1
(g24
g3
Ntp1904
Rp1905
(dp1906
g15
(I0
I3
tp1907
sg29
(lp1908
I0
aI1
aI2
aI3
asg19
(I3
I10
tp1909
sg32
I1
sg33
(dp1910
I0
VClassic
p1911
sI1
VTape Clocked
p1912
sI2
VTape Free
p1913
sI3
VTape Doppler
p1914
ssg17
VType
p1915
sbag1
(g24
g3
Ntp1916
Rp1917
(dp1918
g15
(I0
I127
tp1919
sg29
(lp1920
I0
aI1
aI2
aI3
asg19
(I0
I113
tp1921
sg32
I13
sg33
(dp1922
I0
VOff 0
p1923
ssg17
VSend
p1924
sbag1
(g24
g3
Ntp1925
Rp1926
(dp1927
g15
g1919
sg29
(lp1928
I0
asg19
(I0
I115
tp1929
sg32
I7
sg33
(dp1930
sg17
VFeedback
p1931
sbag1
(g24
g3
Ntp1932
Rp1933
(dp1934
g15
g1919
sg29
(lp1935
I1
aI2
aI3
asg19
g1929
sg32
I7
sg33
(dp1936
I0
V0
p1937
sI1
V200
p1938
ssg17
VFeedback
p1939
sbag1
(g24
g3
Ntp1940
Rp1941
(dp1942
g15
g1919
sg29
(lp1943
sg19
(I0
I17
tp1944
sg32
I11
sg33
(dp1945
sg17
V--
p1946
sbag1
(g24
g3
Ntp1947
Rp1948
(dp1949
g15
(I1
I22
tp1950
sg29
(lp1951
I0
asg19
(I0
I112
tp1952
sg32
I1
sg33
(dp1953
I0
VSimple Delay
p1954
sI1
VSimple Delay
p1955
sI2
VPing Pong 2:1
p1956
sI3
VPing Pong 4:3
p1957
sI4
VPing Pong 4:1
p1958
sI5
VPing Pong 8:7
p1959
sI6
VPattern 1+1
p1960
sI7
VPattern 2+1
p1961
sI8
VPattern 3+1
p1962
sI9
VPattern 4+1
p1963
sI10
VPattern 5+1
p1964
sI11
VPattern 2+3
p1965
sI12
VPattern 2+5
p1966
sI13
VPattern 3+2
p1967
sI14
VPattern 3+3
p1968
sI15
VPattern 3+4
p1969
sI16
VPattern 3+5
p1970
sI17
VPattern 4+3
p1971
sI18
VPattern 4+5
p1972
sI19
VPattern 5+2
p1973
sI20
VPattern 5+3
p1974
sI21
VPattern 5+4
p1975
sI22
VPattern 5+5
p1976
ssg17
VMode
p1977
sbag1
(g24
g3
Ntp1978
Rp1979
(dp1980
g15
(I0
I16
tp1981
sg29
(lp1982
I0
asg19
(I1
I20
tp1983
sg32
I1
sg33
(dp1984
I0
VOff
p1985
sI1
V1/64
p1986
sI2
V1/32
p1987
sI3
V1/16
p1988
sI4
V1/8
p1989
sI5
V1/4
p1990
sI6
V1/2
p1991
sI7
V3/64
p1992
sI8
V3/32
p1993
sI9
V3/16
p1994
sI10
V3/8
p1995
sI11
V1/24
p1996
sI12
V1/12
p1997
sI13
V1/6
p1998
sI14
V1/3
p1999
sI15
V2/3
p2000
sI16
V3/4
p2001
ssg17
VClock
p2002
sbag1
(g24
g3
Ntp2003
Rp2004
(dp2005
g15
(I0
I127
tp2006
sg29
(lp2007
I0
asg19
(I0
I114
tp2008
sg32
I0
sg33
(dp2009
sg17
VDelay Time
p2010
sbag1
(g24
g3
Ntp2011
Rp2012
(dp2013
g15
g2006
sg29
(lp2014
I0
asg19
(I0
I119
tp2015
sg32
I4
sg33
(dp2016
sg17
VColoration
p2017
sbag1
(g24
g3
Ntp2018
Rp2019
(dp2020
g15
g2006
sg29
(lp2021
I0
asg19
(I0
I116
tp2022
sg32
I0
sg33
(dp2023
sg17
VRate
p2024
sbag1
(g24
g3
Ntp2025
Rp2026
(dp2027
g15
g2006
sg29
(lp2028
I0
asg19
(I0
I117
tp2029
sg32
I7
sg33
(dp2030
sg17
VDepth
p2031
sbag1
(g24
g3
Ntp2032
Rp2033
(dp2034
g15
(I0
I5
tp2035
sg29
(lp2036
I0
asg19
(I0
I118
tp2037
sg32
I1
sg33
(dp2038
I0
VSine
p2039
sI1
VTriangle
p2040
sI2
VSawtooth
p2041
sI3
VSquare
p2042
sI4
VS&H
p2043
sI5
VS&G
p2044
ssg17
VLFO Wave
p2045
sbag1
(g24
g3
Ntp2046
Rp2047
(dp2048
g15
(I0
I5
tp2049
sg29
(lp2050
I1
aI2
aI3
asg19
(I3
I13
tp2051
sg32
I1
sg33
(dp2052
I0
V1/32
p2053
sI1
V1/16
p2054
sI2
V2/16
p2055
sI3
V3/16
p2056
sI4
V4/16
p2057
sI5
V5/16
p2058
ssg17
VLeft Clock
p2059
sbag1
(g24
g3
Ntp2060
Rp2061
(dp2062
g15
g2049
sg29
(lp2063
I1
aI2
aI3
asg19
(I3
I14
tp2064
sg32
I1
sg33
(dp2065
I0
g2053
sI1
g2054
sI2
g2055
sI3
g2056
sI4
g2057
sI5
g2058
ssg17
VRight Clock
p2066
sbag1
(g24
g3
Ntp2067
Rp2068
(dp2069
g15
g2006
sg29
(lp2070
I1
aI2
aI3
asg19
(I0
I119
tp2071
sg32
I0
sg33
(dp2072
sg17
VFrequency
p2073
sbag1
(g24
g3
Ntp2074
Rp2075
(dp2076
g15
g2006
sg29
(lp2077
I1
aI2
aI3
asg19
(I3
I17
tp2078
sg32
I0
sg33
(dp2079
sg17
VBand Width
p2080
sbag1
(g24
g3
Ntp2081
Rp2082
(dp2083
g15
g2006
sg29
(lp2084
I1
aI2
aI3
asg19
(I0
I117
tp2085
sg32
I7
sg33
(dp2086
sg17
VModulation
p2087
sbag1
(g24
g3
Ntp2088
Rp2089
(dp2090
g15
g2006
sg29
(lp2091
sg19
(I0
I17
tp2092
sg32
I11
sg33
(dp2093
sg17
V--
p2094
sbasg33
(dp2095
sbag1
(g11
g3
Ntp2096
Rp2097
(dp2098
g15
(I1
I3
tp2099
sg17
VReverb
p2100
sg19
(I3
I1
tp2101
sg21
I1
sg22
(lp2102
g1
(g24
g3
Ntp2103
Rp2104
(dp2105
g15
(I1
I3
tp2106
sg29
(lp2107
I0
aI1
aI2
aI3
asg19
(I3
I1
tp2108
sg32
I1
sg33
(dp2109
I0
VReverb
p2110
sI1
VReverb
p2111
sI2
VFeedback 1
p2112
sI3
VFeedback 2
p2113
ssg17
VMode
p2114
sbag1
(g24
g3
Ntp2115
Rp2116
(dp2117
g15
(I0
I3
tp2118
sg29
(lp2119
I1
aI2
aI3
asg19
(I3
I3
tp2120
sg32
I1
sg33
(dp2121
I0
VAmbience
p2122
sI1
VSmall Room
p2123
sI2
VLarge Room
p2124
sI3
VHall
p2125
ssg17
VType
p2126
sbag1
(g24
g3
Ntp2127
Rp2128
(dp2129
g15
g2006
sg29
(lp2130
I1
aI2
aI3
asg19
(I3
I2
tp2131
sg32
I13
sg33
(dp2132
I0
VOff 0
p2133
ssg17
VSend
p2134
sbag1
(g24
g3
Ntp2135
Rp2136
(dp2137
g15
g1981
sg29
(lp2138
I1
aI2
aI3
asg19
(I3
I8
tp2139
sg32
I1
sg33
(dp2140
I0
g1985
sI1
g1986
sI2
g1987
sI3
g1988
sI4
g1989
sI5
g1990
sI6
g1991
sI7
g1992
sI8
g1993
sI9
g1994
sI10
g1995
sI11
g1996
sI12
g1997
sI13
g1998
sI14
g1999
sI15
g2000
sI16
g2001
ssg17
VClock
p2141
sbag1
(g24
g3
Ntp2142
Rp2143
(dp2144
g15
g2006
sg29
(lp2145
I1
aI2
aI3
asg19
(I3
I4
tp2146
sg32
I0
sg33
(dp2147
sg17
VTime
p2148
sbag1
(g24
g3
Ntp2149
Rp2150
(dp2151
g15
g2006
sg29
(lp2152
I1
aI2
aI3
asg19
(I3
I5
tp2153
sg32
I7
sg33
(dp2154
sg17
VDamping
p2155
sbag1
(g24
g3
Ntp2156
Rp2157
(dp2158
g15
g2006
sg29
(lp2159
I1
aI2
aI3
asg19
(I3
I6
tp2160
sg32
I4
sg33
(dp2161
sg17
VColoration
p2162
sbag1
(g24
g3
Ntp2163
Rp2164
(dp2165
g15
(I0
I92
tp2166
sg29
(lp2167
I1
aI2
aI3
asg19
(I3
I7
tp2168
sg32
I0
sg33
(dp2169
sg17
VPredelay
p2170
sbag1
(g24
g3
Ntp2171
Rp2172
(dp2173
g15
g2006
sg29
(lp2174
I2
aI3
asg19
(I3
I9
tp2175
sg32
I0
sg33
(dp2176
sg17
VFeedback
p2177
sbag1
(g24
g3
Ntp2178
Rp2179
(dp2180
g15
g2006
sg29
(lp2181
sg19
g2092
sg32
I11
sg33
(dp2182
sg17
V--
p2183
sbasg33
(dp2184
I0
V6E 8 0 0
p2185
ssbasg17
V.FX1
p2186
sg53
I1
sba.