(lp0
ccopy_reg
_reconstructor
p1
(cvxcctrl
PageDef
p2
c__builtin__
object
p3
Ntp4
Rp5
(dp6
S'blocks'
p7
(lp8
g1
(cvxcctrl
BlockDef
p9
g3
Ntp10
Rp11
(dp12
S'info'
p13
NsS'valrange'
p14
(I0
I7
tp15
sS'name'
p16
VOsc 1
p17
sS'cid'
p18
(I3
I30
tp19
sS'modetype'
p20
I1
sS'ctrldefs'
p21
(lp22
g1
(cvxcctrl
CtrlDef
p23
g3
Ntp24
Rp25
(dp26
g14
(I0
I7
tp27
sS'modes'
p28
(lp29
I0
aI1
aI2
aI3
aI4
aI5
aI6
aI7
asg18
(I3
I30
tp30
sS'ctype'
p31
I1
sS'valinfo'
p32
(dp33
I0
VClassic
p34
sI1
VHyperSaw
p35
sI2
VWavetable
p36
sI3
VWave PWM
p37
sI4
VGrain Simple
p38
sI5
VGrain Complex
p39
sI6
VFormant Simple
p40
sI7
VFormant Complex
p41
ssg16
VMode
p42
sbag1
(g23
g3
Ntp43
Rp44
(dp45
g14
(I0
I127
tp46
sg28
(lp47
I0
asg18
(I0
I17
tp48
sg31
I2
sg32
(dp49
I0
VWave
p50
sI1
VWave>Saw
p51
sI2
VSaw
p52
sI3
VSaw>Pulse
p53
sI4
VPulse
p54
ssg16
VShape
p55
sbag1
(g23
g3
Ntp56
Rp57
(dp58
g14
(I0
I127
tp59
sg28
(lp60
I1
asg18
(I0
I17
tp61
sg31
I8
sg32
(dp62
I0
V1 0
p63
sI1
V1.6 17
p64
sI2
V2 32
p65
sI3
V3 64
p66
sI4
V4 80
p67
sI5
V5 96
p68
sI6
V6 104
p69
sI7
V7 112
p70
sI8
V8 120
p71
sI9
V9 127
p72
ssg16
VDensity
p73
sbag1
(g23
g3
Ntp74
Rp75
(dp76
g14
(I0
I127
tp77
sg28
(lp78
I2
aI3
aI4
aI5
aI6
aI7
asg18
(I0
I17
tp79
sg31
I0
sg32
(dp80
sg16
VIndex
p81
sbag1
(g23
g3
Ntp82
Rp83
(dp84
g14
(I2
I63
tp85
sg28
(lp86
I0
asg18
(I0
I19
tp87
sg31
I3
sg32
(dp88
I0
VSine
p89
sI1
VTriangle
p90
sI2
VWave 3
p91
ssg16
VWave Sel
p92
sbag1
(g23
g3
Ntp93
Rp94
(dp95
g14
(I0
I99
tp96
sg28
(lp97
I2
aI3
aI4
aI5
aI6
aI7
asg18
(I0
I19
tp98
sg31
I1
sg32
(dp99
I0
VSine
p100
sI1
VHarmncSweep
p101
sI2
VGlass Sweep
p102
sI3
VDraw Bars
p103
sI4
VCluster
p104
sI5
VInsine Out
p105
sI6
VLanding
p106
sI7
VLiquid Metal
p107
sI8
VOpposition
p108
sI9
VOvertunes 1
p109
sI10
VOvertunes 2
p110
sI11
VScale Trix
p111
sI12
VSine Rider
p112
sI13
VSqr Series
p113
sI14
VUpsine Down
p114
sI15
VThumbs Up
p115
sI16
VWaterphone
p116
sI17
VE-Chime
p117
sI18
VTinkabell
p118
sI19
VBellfizz
p119
sI20
VBellentine
p120
sI21
VRobot Wars
p121
sI22
VAlternator
p122
sI23
VFinger Bass
p123
sI24
VFizzybar
p124
sI25
VFlutes
p125
sI26
VHP Love
p126
sI27
VMajestix
p127
sI28
VHotch Potch
p128
sI29
VResynater
p129
sI30
VSmooth Rough
p130
sI31
VSawsalito
p131
sI32
VBells 1
p132
sI33
VBells 2
p133
sI34
VSportReport
p134
sI35
VMetal Guru
p135
sI36
VBat Cave
p136
sI37
VAcetate
p137
sI38
VBuzzbizz
p138
sI39
VBuzzpartout
p139
sI40
VVanish
p140
sI41
VOverbones
p141
sI42
VPulsechecker
p142
sI43
VStratosfear
p143
sI44
VSooty Sweep
p144
sI45
VThroaty
p145
sI46
VDidgitalis
p146
sI47
VEvil
p147
sI48
VChords
p148
sI49
VFM Grit
p149
sI50
VBellsarnie
p150
sI51
VOctavius
p151
sI52
VEat Pulse
p152
sI53
VSinzin
p153
sI54
VSine System
p154
sI55
VClip Sweep
p155
sI56
VRoughage
p156
sI57
VWaving
p157
sI58
VPling Saw
p158
sI59
VE-Peas
p159
sI60
VBump Sweep
p160
sI61
VFilter Sqr
p161
sI62
VFourmant
p162
sI63
VFormantera
p163
sI64
VSundial 1
p164
sI65
VSundial 2
p165
sI66
VSundial 3
p166
sI67
VClipdial 1
p167
sI68
VClipdial 2
p168
sI69
VVoxonix
p169
sI70
VSolenoid
p170
sI71
VKlingKlang
p171
sI72
VViolator
p172
sI73
VPotassium
p173
sI74
VPile Up
p174
sI75
VTincanali
p175
sI76
VSniper
p176
sI77
VSqueezy
p177
sI78
VDecomposer
p178
sI79
VMorfants
p179
sI80
VPingvox
p180
sI81
VAdenoids
p181
sI82
VNasal
p182
sI83
VPartialism
p183
sI84
VTableDance
p184
sI85
VCascade
p185
sI86
VPrismism
p186
sI87
VFriction
p187
sI88
VRobotix
p188
sI89
VWhizzfizz
p189
sI90
VSpangly
p190
sI91
VFluxbin
p191
sI92
VFiboglide
p192
sI93
VFibonice
p193
sI94
VFibonasty
p194
sI95
VPenetrator
p195
sI96
VBlinder
p196
sI97
VElement 5
p197
sI98
VBad Signs
p198
sI99
VDomina7rix
p199
ssg16
VWaveTable
p200
sbag1
(g23
g3
Ntp201
Rp202
(dp203
g14
(I0
I127
tp204
sg28
(lp205
I0
asg18
(I0
I18
tp206
sg31
I7
sg32
(dp207
I0
V50
p208
sI1
V100
p209
ssg16
VPulse Width
p210
sbag1
(g23
g3
Ntp211
Rp212
(dp213
g14
g204
sg28
(lp214
I3
asg18
g206
sg31
I0
sg32
(dp215
I0
g208
sI1
g209
ssg16
VPulse Width
p216
sbag1
(g23
g3
Ntp217
Rp218
(dp219
g14
(I0
I127
tp220
sg28
(lp221
I1
asg18
(I0
I18
tp222
sg31
I0
sg32
(dp223
sg16
VLocal Detune
p224
sbag1
(g23
g3
Ntp225
Rp226
(dp227
g14
(I0
I1
tp228
sg28
(lp229
I1
asg18
(I0
I28
tp230
sg31
I9
sg32
(dp231
I0
VOff
p232
sI1
VOn
p233
ssg16
VSync
p234
sbag1
(g23
g3
Ntp235
Rp236
(dp237
g14
(I0
I127
tp238
sg28
(lp239
I1
asg18
(I0
I27
tp240
sg31
I0
sg32
(dp241
sg16
VSync Freq
p242
sbag1
(g23
g3
Ntp243
Rp244
(dp245
g14
g238
sg28
(lp246
I4
aI5
aI6
aI7
asg18
(I3
I42
tp247
sg31
I4
sg32
(dp248
sg16
VF-Shift
p249
sbag1
(g23
g3
Ntp250
Rp251
(dp252
g14
g238
sg28
(lp253
I5
aI7
asg18
(I3
I37
tp254
sg31
I0
sg32
(dp255
sg16
VF-Spread
p256
sbag1
(g23
g3
Ntp257
Rp258
(dp259
g14
g238
sg28
(lp260
I2
aI3
aI4
aI5
aI6
aI7
asg18
(I3
I44
tp261
sg31
I0
sg32
(dp262
sg16
VInterpolation
p263
sbag1
(g23
g3
Ntp264
Rp265
(dp266
g14
g238
sg28
(lp267
I3
aI5
aI7
asg18
(I3
I43
tp268
sg31
I0
sg32
(dp269
sg16
VLocal Detune
p270
sbag1
(g23
g3
Ntp271
Rp272
(dp273
g14
(I16
I112
tp274
sg28
(lp275
I0
aI1
aI2
aI3
aI4
aI5
aI6
aI7
asg18
(I0
I20
tp276
sg31
I4
sg32
(dp277
sg16
VSemitone
p278
sbag1
(g23
g3
Ntp279
Rp280
(dp281
g14
(I0
I127
tp282
sg28
(lp283
I0
aI1
aI2
aI3
aI4
aI5
aI6
aI7
asg18
(I0
I21
tp284
sg31
I6
sg32
(dp285
I0
VNorm 32
p286
ssg16
VKey Follow
p287
sbasbag1
(g9
g3
Ntp288
Rp289
(dp290
g13
Nsg14
g15
sg16
VOsc 2
p291
sg18
(I3
I35
tp292
sg20
I1
sg21
(lp293
g1
(g23
g3
Ntp294
Rp295
(dp296
g14
g27
sg28
(lp297
I0
aI1
aI2
aI3
aI4
aI5
aI6
aI7
asg18
(I3
I35
tp298
sg31
I1
sg32
(dp299
I0
g34
sI1
g35
sI2
g36
sI3
g37
sI4
VGrain Simple
p300
sI5
VGrain Complex
p301
sI6
VFormant Simple
p302
sI7
VFormant Complex
p303
ssg16
VMode
p304
sbag1
(g23
g3
Ntp305
Rp306
(dp307
g14
g46
sg28
(lp308
I0
asg18
(I0
I22
tp309
sg31
I2
sg32
(dp310
I0
g50
sI1
g51
sI2
g52
sI3
g53
sI4
g54
ssg16
VShape
p311
sbag1
(g23
g3
Ntp312
Rp313
(dp314
g14
g59
sg28
(lp315
I1
asg18
(I0
I22
tp316
sg31
I8
sg32
(dp317
I0
g63
sI1
g64
sI2
g65
sI3
g66
sI4
g67
sI5
g68
sI6
g69
sI7
g70
sI8
g71
sI9
g72
ssg16
VDensity
p318
sbag1
(g23
g3
Ntp319
Rp320
(dp321
g14
g77
sg28
(lp322
I2
aI3
aI4
aI5
aI6
aI7
asg18
(I0
I22
tp323
sg31
I0
sg32
(dp324
sg16
VIndex
p325
sbag1
(g23
g3
Ntp326
Rp327
(dp328
g14
g85
sg28
(lp329
I0
asg18
(I0
I24
tp330
sg31
I3
sg32
(dp331
I0
g89
sI1
g90
sI2
g91
ssg16
VWave Sel
p332
sbag1
(g23
g3
Ntp333
Rp334
(dp335
g14
g96
sg28
(lp336
I2
aI3
aI4
aI5
aI6
aI7
asg18
(I0
I24
tp337
sg31
I1
sg32
(dp338
I0
g100
sI1
g101
sI2
g102
sI3
g103
sI4
g104
sI5
g105
sI6
g106
sI7
g107
sI8
g108
sI9
g109
sI10
g110
sI11
g111
sI12
g112
sI13
g113
sI14
g114
sI15
g115
sI16
g116
sI17
g117
sI18
g118
sI19
g119
sI20
g120
sI21
g121
sI22
g122
sI23
g123
sI24
g124
sI25
g125
sI26
g126
sI27
g127
sI28
g128
sI29
g129
sI30
g130
sI31
g131
sI32
g132
sI33
g133
sI34
g134
sI35
g135
sI36
g136
sI37
g137
sI38
g138
sI39
g139
sI40
g140
sI41
g141
sI42
g142
sI43
g143
sI44
g144
sI45
g145
sI46
g146
sI47
g147
sI48
g148
sI49
g149
sI50
g150
sI51
g151
sI52
g152
sI53
g153
sI54
g154
sI55
g155
sI56
g156
sI57
g157
sI58
g158
sI59
g159
sI60
g160
sI61
g161
sI62
g162
sI63
g163
sI64
g164
sI65
g165
sI66
g166
sI67
g167
sI68
g168
sI69
g169
sI70
g170
sI71
g171
sI72
g172
sI73
g173
sI74
g174
sI75
g175
sI76
g176
sI77
g177
sI78
g178
sI79
g179
sI80
g180
sI81
g181
sI82
g182
sI83
g183
sI84
g184
sI85
g185
sI86
g186
sI87
g187
sI88
g188
sI89
g189
sI90
g190
sI91
g191
sI92
g192
sI93
g193
sI94
g194
sI95
g195
sI96
g196
sI97
g197
sI98
g198
sI99
g199
ssg16
VWaveTable
p339
sbag1
(g23
g3
Ntp340
Rp341
(dp342
g14
g204
sg28
(lp343
I0
asg18
(I0
I23
tp344
sg31
I7
sg32
(dp345
I0
g208
sI1
g209
ssg16
VPulse Width
p346
sbag1
(g23
g3
Ntp347
Rp348
(dp349
g14
g204
sg28
(lp350
I3
asg18
(I0
I23
tp351
sg31
I0
sg32
(dp352
I0
g208
sI1
g209
ssg16
VPulse Width
p353
sbag1
(g23
g3
Ntp354
Rp355
(dp356
g14
g220
sg28
(lp357
I1
asg18
(I0
I23
tp358
sg31
I0
sg32
(dp359
sg16
VLocal Detune
p360
sbag1
(g23
g3
Ntp361
Rp362
(dp363
g14
g228
sg28
(lp364
I0
aI1
asg18
g230
sg31
I9
sg32
(dp365
I0
g232
sI1
g233
ssg16
VSync
p366
sbag1
(g23
g3
Ntp367
Rp368
(dp369
g14
g238
sg28
(lp370
I1
asg18
g240
sg31
I0
sg32
(dp371
sg16
VSync Freq
p372
sbag1
(g23
g3
Ntp373
Rp374
(dp375
g14
g238
sg28
(lp376
I4
aI5
aI6
aI7
asg18
(I3
I62
tp377
sg31
I4
sg32
(dp378
sg16
VF-Shift
p379
sbag1
(g23
g3
Ntp380
Rp381
(dp382
g14
g238
sg28
(lp383
I5
aI7
asg18
(I3
I57
tp384
sg31
I0
sg32
(dp385
sg16
VF-Spread
p386
sbag1
(g23
g3
Ntp387
Rp388
(dp389
g14
g238
sg28
(lp390
I2
aI3
aI4
aI5
aI6
aI7
asg18
(I3
I64
tp391
sg31
I0
sg32
(dp392
sg16
VInterpolation
p393
sbag1
(g23
g3
Ntp394
Rp395
(dp396
g14
g238
sg28
(lp397
I3
aI5
aI7
asg18
(I3
I63
tp398
sg31
I0
sg32
(dp399
sg16
VLocal Detune
p400
sbag1
(g23
g3
Ntp401
Rp402
(dp403
g14
g274
sg28
(lp404
I0
aI1
aI2
aI3
aI4
aI5
aI6
aI7
asg18
(I0
I25
tp405
sg31
I4
sg32
(dp406
sg16
VSemitone
p407
sbag1
(g23
g3
Ntp408
Rp409
(dp410
g14
g282
sg28
(lp411
I0
aI1
aI2
aI3
aI4
aI5
aI6
aI7
asg18
(I0
I31
tp412
sg31
I6
sg32
(dp413
I0
g286
ssg16
VKey Follow
p414
sbag1
(g23
g3
Ntp415
Rp416
(dp417
g14
g238
sg28
(lp418
I0
aI1
aI2
aI3
aI4
aI5
aI6
aI7
asg18
(I0
I26
tp419
sg31
I0
sg32
(dp420
sg16
VDetune
p421
sbag1
(g23
g3
Ntp422
Rp423
(dp424
g14
(I0
I6
tp425
sg28
(lp426
I0
asg18
(I1
I34
tp427
sg31
I1
sg32
(dp428
I0
VPos Triangle
p429
sI1
VTriangle
p430
sI2
VWave
p431
sI3
VNoise
p432
sI4
VIn L
p433
sI5
VIn L+R
p434
sI6
VIn R
p435
ssg16
VFM Mode
p436
sbag1
(g23
g3
Ntp437
Rp438
(dp439
g14
(I0
I1
tp440
sg28
(lp441
I2
aI3
aI4
aI5
aI6
aI7
asg18
g427
sg31
I1
sg32
(dp442
I0
VFreqMod
p443
sI1
VPhaseMod
p444
sI2
g431
sI3
g432
sI4
g433
sI5
g434
sI6
g435
ssg16
VFM Mode
p445
sbag1
(g23
g3
Ntp446
Rp447
(dp448
g14
g238
sg28
(lp449
I0
asg18
(I0
I27
tp450
sg31
I7
sg32
(dp451
I0
V0
p452
sI1
V100
p453
ssg16
VFM Amount
p454
sbag1
(g23
g3
Ntp455
Rp456
(dp457
g14
g238
sg28
(lp458
I2
aI3
aI4
aI5
aI6
aI7
asg18
g450
sg31
I0
sg32
(dp459
I0
g452
sI1
g453
ssg16
VFM Amount
p460
sbasbag1
(g9
g3
Ntp461
Rp462
(dp463
g13
Nsg14
(I0
I67
tp464
sg16
VOsc 3
p465
sg18
(I1
I41
tp466
sg20
I1
sg21
(lp467
g1
(g23
g3
Ntp468
Rp469
(dp470
g14
(I6
I67
tp471
sg28
(lp472
sg18
(I1
I41
tp473
sg31
I3
sg32
(dp474
I0
VOff
p475
sI1
VSlave
p476
sI2
VSaw
p477
sI3
VPulse
p478
sI4
VSine
p479
sI5
VTriangle
p480
sI6
VWave 3
p481
ssg16
VMode/Wave
p482
sbag1
(g23
g3
Ntp483
Rp484
(dp485
g14
(I16
I112
tp486
sg28
(lp487
I2
asg18
(I1
I43
tp488
sg31
I4
sg32
(dp489
sg16
VSemitone
p490
sbag1
(g23
g3
Ntp491
Rp492
(dp493
g14
(I0
I127
tp494
sg28
(lp495
I2
asg18
(I1
I42
tp496
sg31
I0
sg32
(dp497
sg16
VVolume
p498
sbag1
(g23
g3
Ntp499
Rp500
(dp501
g14
g494
sg28
(lp502
I2
asg18
(I1
I44
tp503
sg31
I0
sg32
(dp504
sg16
VDetune
p505
sbasbasg16
VOsc
p506
sba.