(lp0
ccopy_reg
_reconstructor
p1
(cvxcctrl
PageDef
p2
c__builtin__
object
p3
Ntp4
Rp5
(dp6
S'collength'
p7
(dp8
I0
I1
sI1
I1
ssS'blocks'
p9
(lp10
g1
(cvxcctrl
BlockDef
p11
g3
Ntp12
Rp13
(dp14
S'modetype'
p15
I1
sS'ctrldefs'
p16
(lp17
g1
(cvxcctrl
CtrlDef
p18
g3
Ntp19
Rp20
(dp21
S'valrange'
p22
(I0
I7
tp23
sS'modes'
p24
(lp25
I0
aI1
aI2
aI3
aI4
aI5
aI6
aI7
asS'cid'
p26
(I3
I30
tp27
sS'ctype'
p28
I1
sS'valinfo'
p29
(dp30
I0
VClassic
p31
sI1
VHyperSaw
p32
sI2
VWavetable
p33
sI3
VWave PWM
p34
sI4
VGrain Simple
p35
sI5
VGrain Complex
p36
sI6
VFormant Simple
p37
sI7
VFormant Complex
p38
ssS'name'
p39
VMode
p40
sbag1
(g18
g3
Ntp41
Rp42
(dp43
g22
(I0
I127
tp44
sg24
(lp45
I0
asg26
(I0
I17
tp46
sg28
I2
sg29
(dp47
I0
VWave
p48
sI1
VWave>Saw
p49
sI2
VSaw
p50
sI3
VSaw>Pulse
p51
sI4
VPulse
p52
ssg39
VShape
p53
sbag1
(g18
g3
Ntp54
Rp55
(dp56
g22
(I0
I127
tp57
sg24
(lp58
I1
asg26
(I0
I17
tp59
sg28
I8
sg29
(dp60
I0
V1 0
p61
sI1
V1.6 17
p62
sI2
V2 32
p63
sI3
V3 64
p64
sI4
V4 80
p65
sI5
V5 96
p66
sI6
V6 104
p67
sI7
V7 112
p68
sI8
V8 120
p69
sI9
V9 127
p70
ssg39
VDensity
p71
sbag1
(g18
g3
Ntp72
Rp73
(dp74
g22
(I0
I127
tp75
sg24
(lp76
I2
aI3
aI4
aI5
aI6
aI7
asg26
(I0
I17
tp77
sg28
I0
sg29
(dp78
sg39
VIndex
p79
sbag1
(g18
g3
Ntp80
Rp81
(dp82
g22
(I2
I63
tp83
sg24
(lp84
I0
asg26
(I0
I19
tp85
sg28
I12
sg29
(dp86
I0
VSine
p87
sI1
VTriangle
p88
sI2
VWave 3
p89
ssg39
VWave Sel
p90
sbag1
(g18
g3
Ntp91
Rp92
(dp93
g22
(I0
I99
tp94
sg24
(lp95
I2
aI3
aI4
aI5
aI6
aI7
asg26
(I0
I19
tp96
sg28
I1
sg29
(dp97
I0
VSine
p98
sI1
VHarmncSweep
p99
sI2
VGlass Sweep
p100
sI3
VDraw Bars
p101
sI4
VCluster
p102
sI5
VInsine Out
p103
sI6
VLanding
p104
sI7
VLiquid Metal
p105
sI8
VOpposition
p106
sI9
VOvertunes 1
p107
sI10
VOvertunes 2
p108
sI11
VScale Trix
p109
sI12
VSine Rider
p110
sI13
VSqr Series
p111
sI14
VUpsine Down
p112
sI15
VThumbs Up
p113
sI16
VWaterphone
p114
sI17
VE-Chime
p115
sI18
VTinkabell
p116
sI19
VBellfizz
p117
sI20
VBellentine
p118
sI21
VRobot Wars
p119
sI22
VAlternator
p120
sI23
VFinger Bass
p121
sI24
VFizzybar
p122
sI25
VFlutes
p123
sI26
VHP Love
p124
sI27
VMajestix
p125
sI28
VHotch Potch
p126
sI29
VResynater
p127
sI30
VSmooth Rough
p128
sI31
VSawsalito
p129
sI32
VBells 1
p130
sI33
VBells 2
p131
sI34
VSportReport
p132
sI35
VMetal Guru
p133
sI36
VBat Cave
p134
sI37
VAcetate
p135
sI38
VBuzzbizz
p136
sI39
VBuzzpartout
p137
sI40
VVanish
p138
sI41
VOverbones
p139
sI42
VPulsechecker
p140
sI43
VStratosfear
p141
sI44
VSooty Sweep
p142
sI45
VThroaty
p143
sI46
VDidgitalis
p144
sI47
VEvil
p145
sI48
VChords
p146
sI49
VFM Grit
p147
sI50
VBellsarnie
p148
sI51
VOctavius
p149
sI52
VEat Pulse
p150
sI53
VSinzin
p151
sI54
VSine System
p152
sI55
VClip Sweep
p153
sI56
VRoughage
p154
sI57
VWaving
p155
sI58
VPling Saw
p156
sI59
VE-Peas
p157
sI60
VBump Sweep
p158
sI61
VFilter Sqr
p159
sI62
VFourmant
p160
sI63
VFormantera
p161
sI64
VSundial 1
p162
sI65
VSundial 2
p163
sI66
VSundial 3
p164
sI67
VClipdial 1
p165
sI68
VClipdial 2
p166
sI69
VVoxonix
p167
sI70
VSolenoid
p168
sI71
VKlingKlang
p169
sI72
VViolator
p170
sI73
VPotassium
p171
sI74
VPile Up
p172
sI75
VTincanali
p173
sI76
VSniper
p174
sI77
VSqueezy
p175
sI78
VDecomposer
p176
sI79
VMorfants
p177
sI80
VPingvox
p178
sI81
VAdenoids
p179
sI82
VNasal
p180
sI83
VPartialism
p181
sI84
VTableDance
p182
sI85
VCascade
p183
sI86
VPrismism
p184
sI87
VFriction
p185
sI88
VRobotix
p186
sI89
VWhizzfizz
p187
sI90
VSpangly
p188
sI91
VFluxbin
p189
sI92
VFiboglide
p190
sI93
VFibonice
p191
sI94
VFibonasty
p192
sI95
VPenetrator
p193
sI96
VBlinder
p194
sI97
VElement 5
p195
sI98
VBad Signs
p196
sI99
VDomina7rix
p197
ssg39
VWaveTable
p198
sbag1
(g18
g3
Ntp199
Rp200
(dp201
g22
(I0
I127
tp202
sg24
(lp203
I0
asg26
(I0
I18
tp204
sg28
I7
sg29
(dp205
I0
V50
p206
sI1
V100
p207
ssg39
VPulse Width
p208
sbag1
(g18
g3
Ntp209
Rp210
(dp211
g22
g202
sg24
(lp212
I3
asg26
g204
sg28
I0
sg29
(dp213
I0
g206
sI1
g207
ssg39
VPulse Width
p214
sbag1
(g18
g3
Ntp215
Rp216
(dp217
g22
(I0
I127
tp218
sg24
(lp219
I1
asg26
(I0
I18
tp220
sg28
I0
sg29
(dp221
sg39
VLocal Detune
p222
sbag1
(g18
g3
Ntp223
Rp224
(dp225
g22
(I0
I1
tp226
sg24
(lp227
I1
asg26
(I0
I28
tp228
sg28
I9
sg29
(dp229
I0
VOff
p230
sI1
VOn
p231
ssg39
VSync
p232
sbag1
(g18
g3
Ntp233
Rp234
(dp235
g22
(I0
I127
tp236
sg24
(lp237
I1
asg26
(I0
I27
tp238
sg28
I0
sg29
(dp239
sg39
VSync Freq
p240
sbag1
(g18
g3
Ntp241
Rp242
(dp243
g22
g236
sg24
(lp244
I4
aI5
aI6
aI7
asg26
(I3
I42
tp245
sg28
I4
sg29
(dp246
sg39
VF-Shift
p247
sbag1
(g18
g3
Ntp248
Rp249
(dp250
g22
g236
sg24
(lp251
I5
aI7
asg26
(I3
I37
tp252
sg28
I0
sg29
(dp253
sg39
VF-Spread
p254
sbag1
(g18
g3
Ntp255
Rp256
(dp257
g22
g236
sg24
(lp258
I2
aI3
aI4
aI5
aI6
aI7
asg26
(I3
I44
tp259
sg28
I0
sg29
(dp260
sg39
VInterpolation
p261
sbag1
(g18
g3
Ntp262
Rp263
(dp264
g22
g236
sg24
(lp265
I3
aI5
aI7
asg26
(I3
I43
tp266
sg28
I0
sg29
(dp267
sg39
VLocal Detune
p268
sbag1
(g18
g3
Ntp269
Rp270
(dp271
g22
(I0
I127
tp272
sg24
(lp273
sg26
(I0
I17
tp274
sg28
I11
sg29
(dp275
sg39
V----
p276
sbag1
(g18
g3
Ntp277
Rp278
(dp279
g22
(I16
I112
tp280
sg24
(lp281
I0
aI1
aI2
aI3
aI4
aI5
aI6
aI7
asg26
(I0
I20
tp282
sg28
I4
sg29
(dp283
sg39
VSemitone
p284
sbag1
(g18
g3
Ntp285
Rp286
(dp287
g22
(I0
I127
tp288
sg24
(lp289
I0
aI1
aI2
aI3
aI4
aI5
aI6
aI7
asg26
(I0
I21
tp290
sg28
I6
sg29
(dp291
I0
VNorm 32
p292
ssg39
VKey Follow
p293
sbasg22
(I0
I7
tp294
sg39
VOsc 1
p295
sg26
(I3
I30
tp296
sbag1
(g11
g3
Ntp297
Rp298
(dp299
g15
I1
sg16
(lp300
g1
(g18
g3
Ntp301
Rp302
(dp303
g22
g23
sg24
(lp304
I0
aI1
aI2
aI3
aI4
aI5
aI6
aI7
asg26
(I3
I35
tp305
sg28
I1
sg29
(dp306
I0
g31
sI1
g32
sI2
g33
sI3
g34
sI4
VGrain Simple
p307
sI5
VGrain Complex
p308
sI6
VFormant Simple
p309
sI7
VFormant Complex
p310
ssg39
VMode
p311
sbag1
(g18
g3
Ntp312
Rp313
(dp314
g22
g44
sg24
(lp315
I0
asg26
(I0
I22
tp316
sg28
I2
sg29
(dp317
I0
g48
sI1
g49
sI2
g50
sI3
g51
sI4
g52
ssg39
VShape
p318
sbag1
(g18
g3
Ntp319
Rp320
(dp321
g22
g57
sg24
(lp322
I1
asg26
(I0
I22
tp323
sg28
I8
sg29
(dp324
I0
g61
sI1
g62
sI2
g63
sI3
g64
sI4
g65
sI5
g66
sI6
g67
sI7
g68
sI8
g69
sI9
g70
ssg39
VDensity
p325
sbag1
(g18
g3
Ntp326
Rp327
(dp328
g22
g75
sg24
(lp329
I2
aI3
aI4
aI5
aI6
aI7
asg26
(I0
I22
tp330
sg28
I0
sg29
(dp331
sg39
VIndex
p332
sbag1
(g18
g3
Ntp333
Rp334
(dp335
g22
g83
sg24
(lp336
I0
asg26
(I0
I24
tp337
sg28
I12
sg29
(dp338
I0
g87
sI1
g88
sI2
g89
ssg39
VWave Sel
p339
sbag1
(g18
g3
Ntp340
Rp341
(dp342
g22
g94
sg24
(lp343
I2
aI3
aI4
aI5
aI6
aI7
asg26
(I0
I24
tp344
sg28
I1
sg29
(dp345
I0
g98
sI1
g99
sI2
g100
sI3
g101
sI4
g102
sI5
g103
sI6
g104
sI7
g105
sI8
g106
sI9
g107
sI10
g108
sI11
g109
sI12
g110
sI13
g111
sI14
g112
sI15
g113
sI16
g114
sI17
g115
sI18
g116
sI19
g117
sI20
g118
sI21
g119
sI22
g120
sI23
g121
sI24
g122
sI25
g123
sI26
g124
sI27
g125
sI28
g126
sI29
g127
sI30
g128
sI31
g129
sI32
g130
sI33
g131
sI34
g132
sI35
g133
sI36
g134
sI37
g135
sI38
g136
sI39
g137
sI40
g138
sI41
g139
sI42
g140
sI43
g141
sI44
g142
sI45
g143
sI46
g144
sI47
g145
sI48
g146
sI49
g147
sI50
g148
sI51
g149
sI52
g150
sI53
g151
sI54
g152
sI55
g153
sI56
g154
sI57
g155
sI58
g156
sI59
g157
sI60
g158
sI61
g159
sI62
g160
sI63
g161
sI64
g162
sI65
g163
sI66
g164
sI67
g165
sI68
g166
sI69
g167
sI70
g168
sI71
g169
sI72
g170
sI73
g171
sI74
g172
sI75
g173
sI76
g174
sI77
g175
sI78
g176
sI79
g177
sI80
g178
sI81
g179
sI82
g180
sI83
g181
sI84
g182
sI85
g183
sI86
g184
sI87
g185
sI88
g186
sI89
g187
sI90
g188
sI91
g189
sI92
g190
sI93
g191
sI94
g192
sI95
g193
sI96
g194
sI97
g195
sI98
g196
sI99
g197
ssg39
VWaveTable
p346
sbag1
(g18
g3
Ntp347
Rp348
(dp349
g22
g202
sg24
(lp350
I0
asg26
(I0
I23
tp351
sg28
I7
sg29
(dp352
I0
g206
sI1
g207
ssg39
VPulse Width
p353
sbag1
(g18
g3
Ntp354
Rp355
(dp356
g22
g202
sg24
(lp357
I3
asg26
(I0
I23
tp358
sg28
I0
sg29
(dp359
I0
g206
sI1
g207
ssg39
VPulse Width
p360
sbag1
(g18
g3
Ntp361
Rp362
(dp363
g22
g218
sg24
(lp364
I1
asg26
(I0
I23
tp365
sg28
I0
sg29
(dp366
sg39
VLocal Detune
p367
sbag1
(g18
g3
Ntp368
Rp369
(dp370
g22
g226
sg24
(lp371
I0
aI1
asg26
g228
sg28
I9
sg29
(dp372
I0
g230
sI1
g231
ssg39
VSync
p373
sbag1
(g18
g3
Ntp374
Rp375
(dp376
g22
g236
sg24
(lp377
I1
asg26
g238
sg28
I0
sg29
(dp378
sg39
VSync Freq
p379
sbag1
(g18
g3
Ntp380
Rp381
(dp382
g22
g236
sg24
(lp383
I4
aI5
aI6
aI7
asg26
(I3
I62
tp384
sg28
I4
sg29
(dp385
sg39
VF-Shift
p386
sbag1
(g18
g3
Ntp387
Rp388
(dp389
g22
g236
sg24
(lp390
I5
aI7
asg26
(I3
I57
tp391
sg28
I0
sg29
(dp392
sg39
VF-Spread
p393
sbag1
(g18
g3
Ntp394
Rp395
(dp396
g22
g236
sg24
(lp397
I2
aI3
aI4
aI5
aI6
aI7
asg26
(I3
I64
tp398
sg28
I0
sg29
(dp399
sg39
VInterpolation
p400
sbag1
(g18
g3
Ntp401
Rp402
(dp403
g22
g236
sg24
(lp404
I3
aI5
aI7
asg26
(I3
I63
tp405
sg28
I0
sg29
(dp406
sg39
VLocal Detune
p407
sbag1
(g18
g3
Ntp408
Rp409
(dp410
g22
(I0
I127
tp411
sg24
(lp412
sg26
(I0
I17
tp413
sg28
I11
sg29
(dp414
sg39
V--
p415
sbag1
(g18
g3
Ntp416
Rp417
(dp418
g22
(I0
I6
tp419
sg24
(lp420
I0
asg26
(I1
I34
tp421
sg28
I1
sg29
(dp422
I0
VPos Triangle
p423
sI1
VTriangle
p424
sI2
VWave
p425
sI3
VNoise
p426
sI4
VIn L
p427
sI5
VIn L+R
p428
sI6
VIn R
p429
ssg39
VFM Mode
p430
sbag1
(g18
g3
Ntp431
Rp432
(dp433
g22
(I0
I1
tp434
sg24
(lp435
I2
aI3
aI4
aI5
aI6
aI7
asg26
g421
sg28
I1
sg29
(dp436
I0
VFreqMod
p437
sI1
VPhaseMod
p438
sI2
g425
sI3
g426
sI4
g427
sI5
g428
sI6
g429
ssg39
VFM Mode
p439
sbag1
(g18
g3
Ntp440
Rp441
(dp442
g22
g236
sg24
(lp443
I0
asg26
(I0
I27
tp444
sg28
I7
sg29
(dp445
I0
V0
p446
sI1
V100
p447
ssg39
VFM Amount
p448
sbag1
(g18
g3
Ntp449
Rp450
(dp451
g22
g236
sg24
(lp452
I2
aI3
aI4
aI5
aI6
aI7
asg26
g444
sg28
I0
sg29
(dp453
I0
g446
sI1
g447
ssg39
VFM Amount
p454
sbag1
(g18
g3
Ntp455
Rp456
(dp457
g22
g411
sg24
(lp458
sg26
g413
sg28
I11
sg29
(dp459
sg39
V--
p460
sbag1
(g18
g3
Ntp461
Rp462
(dp463
g22
g280
sg24
(lp464
I0
aI1
aI2
aI3
aI4
aI5
aI6
aI7
asg26
(I0
I25
tp465
sg28
I4
sg29
(dp466
sg39
VSemitone
p467
sbag1
(g18
g3
Ntp468
Rp469
(dp470
g22
g288
sg24
(lp471
I0
aI1
aI2
aI3
aI4
aI5
aI6
aI7
asg26
(I0
I31
tp472
sg28
I6
sg29
(dp473
I0
g292
ssg39
VKey Follow
p474
sbag1
(g18
g3
Ntp475
Rp476
(dp477
g22
g236
sg24
(lp478
I0
aI1
aI2
aI3
aI4
aI5
aI6
aI7
asg26
(I0
I26
tp479
sg28
I0
sg29
(dp480
sg39
VDetune
p481
sbasg22
g294
sg39
VOsc 2
p482
sg26
(I3
I35
tp483
sbag1
(g11
g3
Ntp484
Rp485
(dp486
g15
I2
sg16
(lp487
g1
(g18
g3
Ntp488
Rp489
(dp490
g22
(I6
I67
tp491
sg24
(lp492
I0
aI1
aI2
asg26
(I1
I41
tp493
sg28
I12
sg29
(dp494
I0
VOff
p495
sI1
VSlave
p496
sI2
VSaw
p497
sI3
VPulse
p498
sI4
VSine
p499
sI5
VTriangle
p500
sI6
VWave 3
p501
ssg39
VMode/Wave
p502
sbag1
(g18
g3
Ntp503
Rp504
(dp505
g22
(I16
I112
tp506
sg24
(lp507
I2
asg26
(I1
I43
tp508
sg28
I4
sg29
(dp509
sg39
VSemitone
p510
sbag1
(g18
g3
Ntp511
Rp512
(dp513
g22
(I0
I127
tp514
sg24
(lp515
I2
asg26
(I1
I42
tp516
sg28
I0
sg29
(dp517
sg39
VVolume
p518
sbag1
(g18
g3
Ntp519
Rp520
(dp521
g22
g514
sg24
(lp522
I2
asg26
(I1
I44
tp523
sg28
I0
sg29
(dp524
sg39
VDetune
p525
sbag1
(g18
g3
Ntp526
Rp527
(dp528
g22
(I0
I127
tp529
sg24
(lp530
sg26
(I0
I17
tp531
sg28
I11
sg29
(dp532
sg39
V--
p533
sbasg22
(I2
I67
tp534
sg39
VOsc 3
p535
sg26
(I1
I41
tp536
sbasg39
VOsc
p537
sS'cols'
p538
I2
sba.