(lp0
ccopy_reg
_reconstructor
p1
(cvxcctrl
PageDef
p2
c__builtin__
object
p3
Ntp4
Rp5
(dp6
S'collength'
p7
(dp8
I0
I1
sI1
I1
ssS'blocks'
p9
(lp10
g1
(cvxcctrl
BlockDef
p11
g3
Ntp12
Rp13
(dp14
S'valrange'
p15
(I0
I7
tp16
sS'name'
p17
VOsc 1
p18
sS'cid'
p19
(I3
I30
tp20
sS'modetype'
p21
I1
sS'ctrldefs'
p22
(lp23
g1
(cvxcctrl
CtrlDef
p24
g3
Ntp25
Rp26
(dp27
g15
(I0
I7
tp28
sS'modes'
p29
(lp30
I0
aI1
aI2
aI3
aI4
aI5
aI6
aI7
asg19
(I3
I30
tp31
sS'ctype'
p32
I1
sS'valinfo'
p33
(dp34
I0
VClassic
p35
sI1
VHyperSaw
p36
sI2
VWavetable
p37
sI3
VWave PWM
p38
sI4
VGrain Simple
p39
sI5
VGrain Complex
p40
sI6
VFormant Simple
p41
sI7
VFormant Complex
p42
ssg17
VMode
p43
sbag1
(g24
g3
Ntp44
Rp45
(dp46
g15
(I0
I127
tp47
sg29
(lp48
I0
asg19
(I0
I17
tp49
sg32
I2
sg33
(dp50
I0
VWave
p51
sI1
VWave>Saw
p52
sI2
VSaw
p53
sI3
VSaw>Pulse
p54
sI4
VPulse
p55
ssg17
VShape
p56
sbag1
(g24
g3
Ntp57
Rp58
(dp59
g15
(I0
I127
tp60
sg29
(lp61
I1
asg19
(I0
I17
tp62
sg32
I8
sg33
(dp63
I0
V1 0
p64
sI1
V1.6 17
p65
sI2
V2 32
p66
sI3
V3 64
p67
sI4
V4 80
p68
sI5
V5 96
p69
sI6
V6 104
p70
sI7
V7 112
p71
sI8
V8 120
p72
sI9
V9 127
p73
ssg17
VDensity
p74
sbag1
(g24
g3
Ntp75
Rp76
(dp77
g15
(I0
I127
tp78
sg29
(lp79
I2
aI3
aI4
aI5
aI6
aI7
asg19
(I0
I17
tp80
sg32
I0
sg33
(dp81
sg17
VIndex
p82
sbag1
(g24
g3
Ntp83
Rp84
(dp85
g15
(I2
I63
tp86
sg29
(lp87
I0
asg19
(I0
I19
tp88
sg32
I12
sg33
(dp89
I0
VSine
p90
sI1
VTriangle
p91
sI2
VWave 3
p92
ssg17
VWave Sel
p93
sbag1
(g24
g3
Ntp94
Rp95
(dp96
g15
(I0
I99
tp97
sg29
(lp98
I2
aI3
aI4
aI5
aI6
aI7
asg19
(I0
I19
tp99
sg32
I1
sg33
(dp100
I0
VSine
p101
sI1
VHarmncSweep
p102
sI2
VGlass Sweep
p103
sI3
VDraw Bars
p104
sI4
VCluster
p105
sI5
VInsine Out
p106
sI6
VLanding
p107
sI7
VLiquid Metal
p108
sI8
VOpposition
p109
sI9
VOvertunes 1
p110
sI10
VOvertunes 2
p111
sI11
VScale Trix
p112
sI12
VSine Rider
p113
sI13
VSqr Series
p114
sI14
VUpsine Down
p115
sI15
VThumbs Up
p116
sI16
VWaterphone
p117
sI17
VE-Chime
p118
sI18
VTinkabell
p119
sI19
VBellfizz
p120
sI20
VBellentine
p121
sI21
VRobot Wars
p122
sI22
VAlternator
p123
sI23
VFinger Bass
p124
sI24
VFizzybar
p125
sI25
VFlutes
p126
sI26
VHP Love
p127
sI27
VMajestix
p128
sI28
VHotch Potch
p129
sI29
VResynater
p130
sI30
VSmooth Rough
p131
sI31
VSawsalito
p132
sI32
VBells 1
p133
sI33
VBells 2
p134
sI34
VSportReport
p135
sI35
VMetal Guru
p136
sI36
VBat Cave
p137
sI37
VAcetate
p138
sI38
VBuzzbizz
p139
sI39
VBuzzpartout
p140
sI40
VVanish
p141
sI41
VOverbones
p142
sI42
VPulsechecker
p143
sI43
VStratosfear
p144
sI44
VSooty Sweep
p145
sI45
VThroaty
p146
sI46
VDidgitalis
p147
sI47
VEvil
p148
sI48
VChords
p149
sI49
VFM Grit
p150
sI50
VBellsarnie
p151
sI51
VOctavius
p152
sI52
VEat Pulse
p153
sI53
VSinzin
p154
sI54
VSine System
p155
sI55
VClip Sweep
p156
sI56
VRoughage
p157
sI57
VWaving
p158
sI58
VPling Saw
p159
sI59
VE-Peas
p160
sI60
VBump Sweep
p161
sI61
VFilter Sqr
p162
sI62
VFourmant
p163
sI63
VFormantera
p164
sI64
VSundial 1
p165
sI65
VSundial 2
p166
sI66
VSundial 3
p167
sI67
VClipdial 1
p168
sI68
VClipdial 2
p169
sI69
VVoxonix
p170
sI70
VSolenoid
p171
sI71
VKlingKlang
p172
sI72
VViolator
p173
sI73
VPotassium
p174
sI74
VPile Up
p175
sI75
VTincanali
p176
sI76
VSniper
p177
sI77
VSqueezy
p178
sI78
VDecomposer
p179
sI79
VMorfants
p180
sI80
VPingvox
p181
sI81
VAdenoids
p182
sI82
VNasal
p183
sI83
VPartialism
p184
sI84
VTableDance
p185
sI85
VCascade
p186
sI86
VPrismism
p187
sI87
VFriction
p188
sI88
VRobotix
p189
sI89
VWhizzfizz
p190
sI90
VSpangly
p191
sI91
VFluxbin
p192
sI92
VFiboglide
p193
sI93
VFibonice
p194
sI94
VFibonasty
p195
sI95
VPenetrator
p196
sI96
VBlinder
p197
sI97
VElement 5
p198
sI98
VBad Signs
p199
sI99
VDomina7rix
p200
ssg17
VWaveTable
p201
sbag1
(g24
g3
Ntp202
Rp203
(dp204
g15
(I0
I127
tp205
sg29
(lp206
I0
asg19
(I0
I18
tp207
sg32
I7
sg33
(dp208
I0
V50
p209
sI1
V100
p210
ssg17
VPulse Width
p211
sbag1
(g24
g3
Ntp212
Rp213
(dp214
g15
g205
sg29
(lp215
I3
asg19
g207
sg32
I0
sg33
(dp216
I0
g209
sI1
g210
ssg17
VPulse Width
p217
sbag1
(g24
g3
Ntp218
Rp219
(dp220
g15
(I0
I127
tp221
sg29
(lp222
I1
asg19
(I0
I18
tp223
sg32
I0
sg33
(dp224
sg17
VLocal Detune
p225
sbag1
(g24
g3
Ntp226
Rp227
(dp228
g15
(I0
I127
tp229
sg29
(lp230
I4
aI5
aI6
aI7
asg19
(I3
I42
tp231
sg32
I4
sg33
(dp232
sg17
VF-Shift
p233
sbag1
(g24
g3
Ntp234
Rp235
(dp236
g15
g229
sg29
(lp237
I5
aI7
asg19
(I3
I37
tp238
sg32
I0
sg33
(dp239
sg17
VF-Spread
p240
sbag1
(g24
g3
Ntp241
Rp242
(dp243
g15
g229
sg29
(lp244
I2
aI3
aI4
aI5
aI6
aI7
asg19
(I3
I44
tp245
sg32
I0
sg33
(dp246
sg17
VInterpolation
p247
sbag1
(g24
g3
Ntp248
Rp249
(dp250
g15
g229
sg29
(lp251
I3
aI5
aI7
asg19
(I3
I43
tp252
sg32
I0
sg33
(dp253
sg17
VLocal Detune
p254
sbag1
(g24
g3
Ntp255
Rp256
(dp257
g15
(I0
I127
tp258
sg29
(lp259
sg19
(I0
I17
tp260
sg32
I11
sg33
(dp261
sg17
V----
p262
sbag1
(g24
g3
Ntp263
Rp264
(dp265
g15
(I16
I112
tp266
sg29
(lp267
I0
aI1
aI2
aI3
aI4
aI5
aI6
aI7
asg19
(I0
I20
tp268
sg32
I4
sg33
(dp269
sg17
VSemitone
p270
sbag1
(g24
g3
Ntp271
Rp272
(dp273
g15
(I0
I127
tp274
sg29
(lp275
I0
aI1
aI2
aI3
aI4
aI5
aI6
aI7
asg19
(I0
I21
tp276
sg32
I6
sg33
(dp277
I0
VNorm 32
p278
ssg17
VKey Follow
p279
sbasg33
(dp280
sbag1
(g11
g3
Ntp281
Rp282
(dp283
g15
g16
sg17
VOsc 2
p284
sg19
(I3
I35
tp285
sg21
I1
sg22
(lp286
g1
(g24
g3
Ntp287
Rp288
(dp289
g15
g28
sg29
(lp290
I0
aI1
aI2
aI3
aI4
aI5
aI6
aI7
asg19
(I3
I35
tp291
sg32
I1
sg33
(dp292
I0
g35
sI1
g36
sI2
g37
sI3
g38
sI4
VGrain Simple
p293
sI5
VGrain Complex
p294
sI6
VFormant Simple
p295
sI7
VFormant Complex
p296
ssg17
VMode
p297
sbag1
(g24
g3
Ntp298
Rp299
(dp300
g15
g47
sg29
(lp301
I0
asg19
(I0
I22
tp302
sg32
I2
sg33
(dp303
I0
g51
sI1
g52
sI2
g53
sI3
g54
sI4
g55
ssg17
VShape
p304
sbag1
(g24
g3
Ntp305
Rp306
(dp307
g15
g60
sg29
(lp308
I1
asg19
(I0
I22
tp309
sg32
I8
sg33
(dp310
I0
g64
sI1
g65
sI2
g66
sI3
g67
sI4
g68
sI5
g69
sI6
g70
sI7
g71
sI8
g72
sI9
g73
ssg17
VDensity
p311
sbag1
(g24
g3
Ntp312
Rp313
(dp314
g15
g78
sg29
(lp315
I2
aI3
aI4
aI5
aI6
aI7
asg19
(I0
I22
tp316
sg32
I0
sg33
(dp317
sg17
VIndex
p318
sbag1
(g24
g3
Ntp319
Rp320
(dp321
g15
g86
sg29
(lp322
I0
asg19
(I0
I24
tp323
sg32
I12
sg33
(dp324
I0
g90
sI1
g91
sI2
g92
ssg17
VWave Sel
p325
sbag1
(g24
g3
Ntp326
Rp327
(dp328
g15
g97
sg29
(lp329
I2
aI3
aI4
aI5
aI6
aI7
asg19
(I0
I24
tp330
sg32
I1
sg33
(dp331
I0
g101
sI1
g102
sI2
g103
sI3
g104
sI4
g105
sI5
g106
sI6
g107
sI7
g108
sI8
g109
sI9
g110
sI10
g111
sI11
g112
sI12
g113
sI13
g114
sI14
g115
sI15
g116
sI16
g117
sI17
g118
sI18
g119
sI19
g120
sI20
g121
sI21
g122
sI22
g123
sI23
g124
sI24
g125
sI25
g126
sI26
g127
sI27
g128
sI28
g129
sI29
g130
sI30
g131
sI31
g132
sI32
g133
sI33
g134
sI34
g135
sI35
g136
sI36
g137
sI37
g138
sI38
g139
sI39
g140
sI40
g141
sI41
g142
sI42
g143
sI43
g144
sI44
g145
sI45
g146
sI46
g147
sI47
g148
sI48
g149
sI49
g150
sI50
g151
sI51
g152
sI52
g153
sI53
g154
sI54
g155
sI55
g156
sI56
g157
sI57
g158
sI58
g159
sI59
g160
sI60
g161
sI61
g162
sI62
g163
sI63
g164
sI64
g165
sI65
g166
sI66
g167
sI67
g168
sI68
g169
sI69
g170
sI70
g171
sI71
g172
sI72
g173
sI73
g174
sI74
g175
sI75
g176
sI76
g177
sI77
g178
sI78
g179
sI79
g180
sI80
g181
sI81
g182
sI82
g183
sI83
g184
sI84
g185
sI85
g186
sI86
g187
sI87
g188
sI88
g189
sI89
g190
sI90
g191
sI91
g192
sI92
g193
sI93
g194
sI94
g195
sI95
g196
sI96
g197
sI97
g198
sI98
g199
sI99
g200
ssg17
VWaveTable
p332
sbag1
(g24
g3
Ntp333
Rp334
(dp335
g15
g205
sg29
(lp336
I0
asg19
(I0
I23
tp337
sg32
I7
sg33
(dp338
I0
g209
sI1
g210
ssg17
VPulse Width
p339
sbag1
(g24
g3
Ntp340
Rp341
(dp342
g15
g205
sg29
(lp343
I3
asg19
(I0
I23
tp344
sg32
I0
sg33
(dp345
I0
g209
sI1
g210
ssg17
VPulse Width
p346
sbag1
(g24
g3
Ntp347
Rp348
(dp349
g15
g221
sg29
(lp350
I1
asg19
(I0
I23
tp351
sg32
I0
sg33
(dp352
sg17
VLocal Detune
p353
sbag1
(g24
g3
Ntp354
Rp355
(dp356
g15
g229
sg29
(lp357
I4
aI5
aI6
aI7
asg19
(I3
I62
tp358
sg32
I4
sg33
(dp359
sg17
VF-Shift
p360
sbag1
(g24
g3
Ntp361
Rp362
(dp363
g15
g229
sg29
(lp364
I5
aI7
asg19
(I3
I57
tp365
sg32
I0
sg33
(dp366
sg17
VF-Spread
p367
sbag1
(g24
g3
Ntp368
Rp369
(dp370
g15
g229
sg29
(lp371
I2
aI3
aI4
aI5
aI6
aI7
asg19
(I3
I64
tp372
sg32
I0
sg33
(dp373
sg17
VInterpolation
p374
sbag1
(g24
g3
Ntp375
Rp376
(dp377
g15
g229
sg29
(lp378
I3
aI5
aI7
asg19
(I3
I63
tp379
sg32
I0
sg33
(dp380
sg17
VLocal Detune
p381
sbag1
(g24
g3
Ntp382
Rp383
(dp384
g15
(I0
I127
tp385
sg29
(lp386
sg19
(I0
I17
tp387
sg32
I11
sg33
(dp388
sg17
V--
p389
sbag1
(g24
g3
Ntp390
Rp391
(dp392
g15
g266
sg29
(lp393
I0
aI1
aI2
aI3
aI4
aI5
aI6
aI7
asg19
(I0
I25
tp394
sg32
I4
sg33
(dp395
sg17
VSemitone
p396
sbag1
(g24
g3
Ntp397
Rp398
(dp399
g15
g274
sg29
(lp400
I0
aI1
aI2
aI3
aI4
aI5
aI6
aI7
asg19
(I0
I31
tp401
sg32
I6
sg33
(dp402
I0
g278
ssg17
VKey Follow
p403
sbag1
(g24
g3
Ntp404
Rp405
(dp406
g15
g229
sg29
(lp407
I0
aI1
aI2
aI3
aI4
aI5
aI6
aI7
asg19
(I0
I26
tp408
sg32
I0
sg33
(dp409
sg17
VDetune
p410
sbasg33
(dp411
sbag1
(g11
g3
Ntp412
Rp413
(dp414
g15
(I2
I67
tp415
sg17
VOsc 3
p416
sg19
(I1
I41
tp417
sg21
I2
sg22
(lp418
g1
(g24
g3
Ntp419
Rp420
(dp421
g15
(I6
I67
tp422
sg29
(lp423
I0
aI1
aI2
asg19
(I1
I41
tp424
sg32
I12
sg33
(dp425
I0
VOff
p426
sI1
VSlave
p427
sI2
VSaw
p428
sI3
VPulse
p429
sI4
VSine
p430
sI5
VTriangle
p431
sI6
VWave 3
p432
ssg17
VMode/Wave
p433
sbag1
(g24
g3
Ntp434
Rp435
(dp436
g15
(I16
I112
tp437
sg29
(lp438
I2
asg19
(I1
I43
tp439
sg32
I4
sg33
(dp440
sg17
VSemitone
p441
sbag1
(g24
g3
Ntp442
Rp443
(dp444
g15
(I0
I127
tp445
sg29
(lp446
I2
asg19
(I1
I42
tp447
sg32
I0
sg33
(dp448
sg17
VVolume
p449
sbag1
(g24
g3
Ntp450
Rp451
(dp452
g15
g445
sg29
(lp453
I2
asg19
(I1
I44
tp454
sg32
I0
sg33
(dp455
sg17
VDetune
p456
sbag1
(g24
g3
Ntp457
Rp458
(dp459
g15
(I0
I127
tp460
sg29
(lp461
sg19
(I0
I17
tp462
sg32
I11
sg33
(dp463
sg17
V--
p464
sbasg33
(dp465
sbag1
(g11
g3
Ntp466
Rp467
(dp468
g15
(I0
I7
tp469
sg17
VFM/Sync
p470
sg19
(I3
I35
tp471
sg21
I3
sg22
(lp472
g1
(g24
g3
Ntp473
Rp474
(dp475
g15
(I0
I6
tp476
sg29
(lp477
I0
asg19
(I1
I34
tp478
sg32
I1
sg33
(dp479
I0
VPos Triangle
p480
sI1
VTriangle
p481
sI2
VWave
p482
sI3
VNoise
p483
sI4
VIn L
p484
sI5
VIn L+R
p485
sI6
VIn R
p486
ssg17
VFM Mode
p487
sbag1
(g24
g3
Ntp488
Rp489
(dp490
g15
(I0
I1
tp491
sg29
(lp492
I2
aI3
aI4
aI5
aI6
aI7
asg19
g478
sg32
I1
sg33
(dp493
I0
VFreqMod
p494
sI1
VPhaseMod
p495
sI2
g482
sI3
g483
sI4
g484
sI5
g485
sI6
g486
ssg17
VFM Mode
p496
sbag1
(g24
g3
Ntp497
Rp498
(dp499
g15
g229
sg29
(lp500
I0
asg19
(I0
I27
tp501
sg32
I7
sg33
(dp502
I0
V0
p503
sI1
V100
p504
ssg17
VFM Amount
p505
sbag1
(g24
g3
Ntp506
Rp507
(dp508
g15
g229
sg29
(lp509
I2
aI3
aI4
aI5
aI6
aI7
asg19
g501
sg32
I0
sg33
(dp510
I0
g503
sI1
g504
ssg17
VFM Amount
p511
sbag1
(g24
g3
Ntp512
Rp513
(dp514
g15
(I0
I1
tp515
sg29
(lp516
I0
aI1
aI8
asg19
(I0
I28
tp517
sg32
I9
sg33
(dp518
I0
VOff
p519
sI1
VOn
p520
ssg17
VSync
p521
sbag1
(g24
g3
Ntp522
Rp523
(dp524
g15
g229
sg29
(lp525
I1
aI8
asg19
(I0
I27
tp526
sg32
I0
sg33
(dp527
sg17
VSync Freq
p528
sbasg33
(dp529
I0
V6E 30 1
p530
ssbag1
(g11
g3
Ntp531
Rp532
(dp533
g15
(I0
I7
tp534
sg17
VSub Oscillator
p535
sg19
(I3
I30
tp536
sg21
I3
sg22
(lp537
g1
(g24
g3
Ntp538
Rp539
(dp540
g15
(I0
I127
tp541
sg29
(lp542
I0
aI1
aI8
asg19
(I0
I34
tp543
sg32
I0
sg33
(dp544
sg17
VVolume
p545
sbag1
(g24
g3
Ntp546
Rp547
(dp548
g15
(I0
I1
tp549
sg29
(lp550
I0
asg19
(I0
I35
tp551
sg32
I1
sg33
(dp552
I0
VSquare
p553
sI1
VTriangle
p554
ssg17
VShape
p555
sbasg33
(dp556
I0
V6E 35 1
p557
ssbasg17
VOsc
p558
sS'cols'
p559
I2
sbag1
(g2
g3
Ntp560
Rp561
(dp562
g7
(dp563
I0
I2
sI1
I2
ssg9
(lp564
g1
(g11
g3
Ntp565
Rp566
(dp567
g15
(I0
I0
tp568
sg17
VFilter 1
p569
sg19
(I0
I17
tp570
sg21
I0
sg22
(lp571
g1
(g24
g3
Ntp572
Rp573
(dp574
g15
(I0
I7
tp575
sg29
(lp576
sg19
(I0
I51
tp577
sg32
I1
sg33
(dp578
I0
VLow Pass
p579
sI1
VHigh Pass
p580
sI2
VBand Pass
p581
sI3
VBand Stop
p582
sI4
VAnalog 1 Pole
p583
sI5
VAnalog 2 Pole
p584
sI6
VAnalog 3 Pole
p585
sI7
VAnalog 4 Pole
p586
ssg17
VMode
p587
sbag1
(g24
g3
Ntp588
Rp589
(dp590
g15
g541
sg29
(lp591
sg19
(I0
I40
tp592
sg32
I0
sg33
(dp593
sg17
VCutoff
p594
sbag1
(g24
g3
Ntp595
Rp596
(dp597
g15
g541
sg29
(lp598
sg19
(I0
I42
tp599
sg32
I0
sg33
(dp600
sg17
VResonance
p601
sbag1
(g24
g3
Ntp602
Rp603
(dp604
g15
g541
sg29
(lp605
sg19
(I0
I44
tp606
sg32
I7
sg33
(dp607
sg17
VEnv Amount
p608
sbag1
(g24
g3
Ntp609
Rp610
(dp611
g15
g541
sg29
(lp612
sg19
(I0
I46
tp613
sg32
I4
sg33
(dp614
sg17
VKey Follow
p615
sbag1
(g24
g3
Ntp616
Rp617
(dp618
g15
(I0
I1
tp619
sg29
(lp620
sg19
(I1
I30
tp621
sg32
I1
sg33
(dp622
I0
VNegative
p623
sI1
VPositive
p624
ssg17
VEnv Polarity
p625
sbasg33
(dp626
sbag1
(g11
g3
Ntp627
Rp628
(dp629
g15
(I0
I1
tp630
sg17
VFilter 2
p631
sg19
(I1
I32
tp632
sg21
I1
sg22
(lp633
g1
(g24
g3
Ntp634
Rp635
(dp636
g15
(I0
I3
tp637
sg29
(lp638
I0
aI1
asg19
(I0
I52
tp639
sg32
I1
sg33
(dp640
I0
g579
sI1
g580
sI2
g581
sI3
g582
sI4
g583
sI5
g584
sI6
g585
sI7
g586
ssg17
VMode
p641
sbag1
(g24
g3
Ntp642
Rp643
(dp644
g15
g541
sg29
(lp645
I0
asg19
(I0
I41
tp646
sg32
I0
sg33
(dp647
sg17
VCutoff
p648
sbag1
(g24
g3
Ntp649
Rp650
(dp651
g15
g541
sg29
(lp652
I1
asg19
(I0
I41
tp653
sg32
I4
sg33
(dp654
sg17
VOffset
p655
sbag1
(g24
g3
Ntp656
Rp657
(dp658
g15
g541
sg29
(lp659
I0
aI1
asg19
(I0
I43
tp660
sg32
I0
sg33
(dp661
sg17
VResonance
p662
sbag1
(g24
g3
Ntp663
Rp664
(dp665
g15
g541
sg29
(lp666
I0
aI1
asg19
(I0
I45
tp667
sg32
I7
sg33
(dp668
sg17
VEnv Amount
p669
sbag1
(g24
g3
Ntp670
Rp671
(dp672
g15
g541
sg29
(lp673
I0
aI1
asg19
(I0
I47
tp674
sg32
I4
sg33
(dp675
sg17
VKey Follow
p676
sbag1
(g24
g3
Ntp677
Rp678
(dp679
g15
g619
sg29
(lp680
I0
aI1
asg19
(I1
I31
tp681
sg32
I1
sg33
(dp682
I0
g623
sI1
g624
ssg17
VEnv Polarity
p683
sbasg33
(dp684
sbag1
(g11
g3
Ntp685
Rp686
(dp687
g15
(I0
I3
tp688
sg17
VCommon
p689
sg19
(I0
I53
tp690
sg21
I1
sg22
(lp691
g1
(g24
g3
Ntp692
Rp693
(dp694
g15
(I0
I3
tp695
sg29
(lp696
I0
aI1
aI2
aI3
asg19
(I0
I53
tp697
sg32
I1
sg33
(dp698
I0
VSerial 4
p699
sI1
VSerial 6
p700
sI2
VParallel 4
p701
sI3
VSplit Mode
p702
ssg17
VRouting
p703
sbag1
(g24
g3
Ntp704
Rp705
(dp706
g15
g541
sg29
(lp707
I0
aI1
aI2
aI3
asg19
(I0
I48
tp708
sg32
I4
sg33
(dp709
sg17
VFilter Balance
p710
sbag1
(g24
g3
Ntp711
Rp712
(dp713
g15
(I0
I1
tp714
sg29
(lp715
I0
aI1
aI2
aI3
asg19
(I1
I32
tp716
sg32
I9
sg33
(dp717
sg17
VCutoff Link
p718
sbag1
(g24
g3
Ntp719
Rp720
(dp721
g15
g541
sg29
(lp722
I0
aI1
aI2
aI3
asg19
(I1
I33
tp723
sg32
I0
sg33
(dp724
sg17
VKey Follow Base
p725
sbag1
(g24
g3
Ntp726
Rp727
(dp728
g15
g541
sg29
(lp729
I3
asg19
(I4
I122
tp730
sg32
I0
sg33
(dp731
sg17
VPan Spread
p732
sbasg33
(dp733
sbag1
(g11
g3
Ntp734
Rp735
(dp736
g15
g568
sg17
VSaturation
p737
sg19
g570
sg21
I0
sg22
(lp738
g1
(g24
g3
Ntp739
Rp740
(dp741
g15
(I0
I14
tp742
sg29
(lp743
sg19
(I0
I49
tp744
sg32
I1
sg33
(dp745
I0
VOff
p746
sI1
VLight
p747
sI2
VSoft
p748
sI3
VMiddle
p749
sI4
VHard
p750
sI5
VDigital
p751
sI6
VWave Shaper
p752
sI7
VRectifier
p753
sI8
VBit Reducer
p754
sI9
VRate Reducer
p755
sI10
VRate+Follow
p756
sI11
VLow Pass
p757
sI12
VLow+Follow
p758
sI13
VHigh Pass
p759
sI14
VHigh+Follow
p760
ssg17
VType
p761
sbasg33
(dp762
sbag1
(g11
g3
Ntp763
Rp764
(dp765
g15
g568
sg17
VFilter Envelope
p766
sg19
g570
sg21
I0
sg22
(lp767
g1
(g24
g3
Ntp768
Rp769
(dp770
g15
g541
sg29
(lp771
sg19
(I0
I54
tp772
sg32
I0
sg33
(dp773
sg17
VAttack
p774
sbag1
(g24
g3
Ntp775
Rp776
(dp777
g15
g541
sg29
(lp778
sg19
(I0
I55
tp779
sg32
I0
sg33
(dp780
sg17
VDecay
p781
sbag1
(g24
g3
Ntp782
Rp783
(dp784
g15
g541
sg29
(lp785
sg19
(I0
I56
tp786
sg32
I7
sg33
(dp787
sg17
VSustain
p788
sbag1
(g24
g3
Ntp789
Rp790
(dp791
g15
g541
sg29
(lp792
sg19
(I0
I57
tp793
sg32
I4
sg33
(dp794
sg17
VSustain Slope
p795
sbag1
(g24
g3
Ntp796
Rp797
(dp798
g15
g541
sg29
(lp799
sg19
(I0
I58
tp800
sg32
I0
sg33
(dp801
sg17
VRelease
p802
sbasg33
(dp803
sbag1
(g11
g3
Ntp804
Rp805
(dp806
g15
g568
sg17
VAmp Envelope
p807
sg19
g570
sg21
I0
sg22
(lp808
g1
(g24
g3
Ntp809
Rp810
(dp811
g15
g541
sg29
(lp812
sg19
(I0
I59
tp813
sg32
I0
sg33
(dp814
sg17
VAttack
p815
sbag1
(g24
g3
Ntp816
Rp817
(dp818
g15
g541
sg29
(lp819
sg19
(I0
I60
tp820
sg32
I0
sg33
(dp821
sg17
VDecay
p822
sbag1
(g24
g3
Ntp823
Rp824
(dp825
g15
g541
sg29
(lp826
sg19
(I0
I61
tp827
sg32
I7
sg33
(dp828
sg17
VSustain
p829
sbag1
(g24
g3
Ntp830
Rp831
(dp832
g15
g541
sg29
(lp833
sg19
(I0
I62
tp834
sg32
I4
sg33
(dp835
sg17
VSustain Slope
p836
sbag1
(g24
g3
Ntp837
Rp838
(dp839
g15
g541
sg29
(lp840
sg19
(I0
I63
tp841
sg32
I0
sg33
(dp842
sg17
VRelease
p843
sbasg33
(dp844
sbasg17
V.Filter
p845
sg559
I2
sbag1
(g2
g3
Ntp846
Rp847
(dp848
g7
(dp849
I0
I2
sI1
I2
sI2
I2
ssg9
(lp850
g1
(g11
g3
Ntp851
Rp852
(dp853
g15
(I1
I21
tp854
sg17
VLFO 1
p855
sg19
(I1
I18
tp856
sg21
I2
sg22
(lp857
g1
(g24
g3
Ntp858
Rp859
(dp860
g15
(I0
I21
tp861
sg29
(lp862
I0
aI1
asg19
(I1
I18
tp863
sg32
I1
sg33
(dp864
I0
VOff
p865
sI1
V1/64
p866
sI2
V1/32
p867
sI3
V1/16
p868
sI4
V1/8
p869
sI5
V1/4
p870
sI6
V1/2
p871
sI7
V3/64
p872
sI8
V3/32
p873
sI9
V3/16
p874
sI10
V3/8
p875
sI11
V1/24
p876
sI12
V1/12
p877
sI13
V1/6
p878
sI14
V1/3
p879
sI15
V2/3
p880
sI16
V3/4
p881
sI17
V1/1
p882
sI18
V2/1
p883
sI19
V4/1
p884
sI20
V8/1
p885
sI21
V16/1
p886
ssg17
VClock
p887
sbag1
(g24
g3
Ntp888
Rp889
(dp890
g15
g541
sg29
(lp891
I0
asg19
(I0
I67
tp892
sg32
I0
sg33
(dp893
sg17
VRate
p894
sbag1
(g24
g3
Ntp895
Rp896
(dp897
g15
g541
sg29
(lp898
sg19
(I0
I17
tp899
sg32
I11
sg33
(dp900
sg17
V--
p901
sbag1
(g24
g3
Ntp902
Rp903
(dp904
g15
(I6
I67
tp905
sg29
(lp906
I0
aI1
asg19
(I0
I68
tp907
sg32
I12
sg33
(dp908
I0
VSine
p909
sI1
VTriangle
p910
sI2
VSawtooth
p911
sI3
VSquare
p912
sI4
VS&H
p913
sI5
VS&G
p914
sI6
VWave 3
p915
ssg17
VShape
p916
sbag1
(g24
g3
Ntp917
Rp918
(dp919
g15
g541
sg29
(lp920
I0
aI1
asg19
(I0
I71
tp921
sg32
I4
sg33
(dp922
sg17
VContour
p923
sbag1
(g24
g3
Ntp924
Rp925
(dp926
g15
(I0
I1
tp927
sg29
(lp928
I0
aI1
asg19
(I0
I70
tp929
sg32
I1
sg33
(dp930
I0
VPoly
p931
sI1
VMono
p932
ssg17
VMode
p933
sbag1
(g24
g3
Ntp934
Rp935
(dp936
g15
g541
sg29
(lp937
I0
aI1
asg19
(I0
I69
tp938
sg32
I9
sg33
(dp939
sg17
VEnvelope Mode
p940
sbag1
(g24
g3
Ntp941
Rp942
(dp943
g15
g541
sg29
(lp944
I0
aI1
asg19
(I0
I73
tp945
sg32
I3
sg33
(dp946
sg17
VTrigger Phase
p947
sbag1
(g24
g3
Ntp948
Rp949
(dp950
g15
g541
sg29
(lp951
I0
aI1
asg19
(I0
I72
tp952
sg32
I0
sg33
(dp953
sg17
VKey Follow
p954
sbasg33
(dp955
sbag1
(g11
g3
Ntp956
Rp957
(dp958
g15
g568
sg17
VLFO 1 Dest
p959
sg19
g570
sg21
I0
sg22
(lp960
g1
(g24
g3
Ntp961
Rp962
(dp963
g15
g541
sg29
(lp964
sg19
(I0
I74
tp965
sg32
I5
sg33
(dp966
sg17
VOsc1 Pitch
p967
sbag1
(g24
g3
Ntp968
Rp969
(dp970
g15
g541
sg29
(lp971
sg19
(I0
I75
tp972
sg32
I5
sg33
(dp973
sg17
VOsc2 Pitch
p974
sbag1
(g24
g3
Ntp975
Rp976
(dp977
g15
g541
sg29
(lp978
sg19
(I0
I76
tp979
sg32
I5
sg33
(dp980
sg17
VPulse Width
p981
sbag1
(g24
g3
Ntp982
Rp983
(dp984
g15
g541
sg29
(lp985
sg19
(I0
I77
tp986
sg32
I5
sg33
(dp987
sg17
VResonance
p988
sbag1
(g24
g3
Ntp989
Rp990
(dp991
g15
g541
sg29
(lp992
sg19
(I0
I78
tp993
sg32
I5
sg33
(dp994
sg17
VFilter Gain
p995
sbag1
(g24
g3
Ntp996
Rp997
(dp998
g15
(I0
I127
tp999
sg29
(lp1000
sg19
(I1
I79
tp1001
sg32
I1
sg33
(dp1002
I0
VOff
p1003
sI1
VPatch Volume
p1004
sI2
VOsc 1 Interpolation
p1005
sI3
VPanorama
p1006
sI4
VTranspose
p1007
sI5
VPortamento
p1008
sI6
VOsc 1 Shape
p1009
sI7
VOsc 1 Pulse Width
p1010
sI8
VOsc 1 Wave Select
p1011
sI9
VOsc 1 Pitch
p1012
sI10
VSlot 6 Amount 3
p1013
sI11
VOsc 2 Shape
p1014
sI12
VOsc 2 Pulse Width
p1015
sI13
VOsc 2 Wave Select
p1016
sI14
VOsc 2 Pitch
p1017
sI15
VOsc 2 Detune
p1018
sI16
VOsc 2 FM Amount
p1019
sI17
VFiltEnv>Osc 2 Pitch
p1020
sI18
VFiltEnv>FM/Sync
p1021
sI19
VOsc 2 Interpolation
p1022
sI20
VOsc Balance
p1023
sI21
VSub Osc Volume
p1024
sI22
VOsc Volume
p1025
sI23
VNoise Volume
p1026
sI24
VFilter 1 Cutoff
p1027
sI25
VFilter 2 Cutoff
p1028
sI26
VFilter 1 Resonance
p1029
sI27
VFilter 2 Resonance
p1030
sI28
VFilter 1 Env Amount
p1031
sI29
VFilter 2 Env Amount
p1032
sI30
VSlot 5 Amount 2
p1033
sI31
VSlot 5 Amount 3
p1034
sI32
VFilter Balance
p1035
sI33
VFilter Env Attack
p1036
sI34
VFilter Env Decay
p1037
sI35
VFilter Env Sustain
p1038
sI36
VFilter Env Slope
p1039
sI37
VFilter Env Release
p1040
sI38
VAmp Env Attack
p1041
sI39
VAmp Env Decay
p1042
sI40
VAmp Env Sustain
p1043
sI41
VAmp Env Slope
p1044
sI42
VAmp Env Release
p1045
sI43
VLFO 1 Rate
p1046
sI44
VLFO 1 Contour
p1047
sI45
VLFO 1>Osc 1 Pitch
p1048
sI46
VLFO 1>Osc 2 Pitch
p1049
sI47
VLFO 1>Pulse Width
p1050
sI48
VLFO 1>Resonance
p1051
sI49
VLFO 1>Filter Gain
p1052
sI50
VLFO 2 Rate
p1053
sI51
VLFO 2 Contour
p1054
sI52
VLFO 2>Shape
p1055
sI53
VLFO 2>FM Amount
p1056
sI54
VLFO 2>Cutoff 1
p1057
sI55
VLFO 2>Cutoff 2
p1058
sI56
VLFO 2>Panorama
p1059
sI57
VLFO 3 Rate
p1060
sI58
VLFO 3 Assign Amt
p1061
sI59
VUnison Detune
p1062
sI60
VPan Spread
p1063
sI61
VUnison LFO Phase
p1064
sI62
VChorus Mix
p1065
sI63
VChorus Mod Rate
p1066
sI64
VChorus Mod Depth
p1067
sI65
VChorus Delay
p1068
sI66
VChorus Feedback
p1069
sI67
VDelay Send
p1070
sI68
VDelay Time
p1071
sI69
VDelay Feedback
p1072
sI70
VDelay Mod Rate
p1073
sI71
VDelay Mod Depth
p1074
sI72
VReverb Send
p1075
sI73
VOsc 1 WT Index
p1076
sI74
VOsc 2 WT Index
p1077
sI75
VSlot 6 Amount 2
p1078
sI76
VSlot 4 Amount 2
p1079
sI77
VSlot 4 Amount 3
p1080
sI80
VSlot 2 Amount 3
p1081
sI82
VSlot 1 Amount 1
p1082
sI83
VSlot 2 Amount 1
p1083
sI84
VSlot 2 Amount 2
p1084
sI85
VSlot 3 Amount 1
p1085
sI86
VSlot 3 Amount 2
p1086
sI87
VSlot 3 Amount 3
p1087
sI88
VOsc Initial Phase
p1088
sI89
VPunch Intensity
p1089
sI90
VRing Modulator
p1090
sI91
VNoise Color
p1091
sI92
VDelay Coloration
p1092
sI93
VSlot 1 Amount 2
p1093
sI94
VSlot 1 Amount 3
p1094
sI95
VDistortion Intensity
p1095
sI96
VFreqShifter Freq
p1096
sI97
VOsc 3 Volume
p1097
sI98
VOsc 3 Pitch
p1098
sI99
VOsc 3 Detune
p1099
sI100
VLFO 1 Assign Amt
p1100
sI101
VLFO 2 Assign Amt
p1101
sI102
VPhaser Mix
p1102
sI103
VPhaser Mod Rate
p1103
sI104
VPhaser Mod Depth
p1104
sI105
VPhaser Frequency
p1105
sI106
VPhaser Feedback
p1106
sI107
VPhaser Spread
p1107
sI108
VReverb Time
p1108
sI109
VReverb Damping
p1109
sI110
VReverb Color
p1110
sI111
VReverb PreDelay
p1111
sI112
VReverb Feedback
p1112
sI113
VSurround Balance
p1113
sI114
VArp Note Length
p1114
sI115
VArp Swing Factor
p1115
sI116
VArp Pattern
p1116
sI117
VEQ Mid Gain
p1117
sI118
VEQ Mid Frequency
p1118
sI119
VEQ Mid Q-Factor
p1119
sI120
VSlot 4 Amount 1
p1120
sI121
VSlot 5 Amount 1
p1121
sI122
VSlot 6 Amount 1
p1122
sI123
VOsc 1 F-Shift
p1123
sI124
VOsc 2 F-Shift
p1124
sI125
VOsc 1 F-Spread
p1125
sI126
VOsc 2 F-Spread
p1126
sI127
VDistortion Mix
p1127
ssg17
VAssign Target
p1128
sbag1
(g24
g3
Ntp1129
Rp1130
(dp1131
g15
g541
sg29
(lp1132
sg19
(I1
I80
tp1133
sg32
I5
sg33
(dp1134
sg17
VAmount
p1135
sbasg33
(dp1136
sbag1
(g11
g3
Ntp1137
Rp1138
(dp1139
g15
g854
sg17
VLFO 2
p1140
sg19
(I1
I19
tp1141
sg21
I2
sg22
(lp1142
g1
(g24
g3
Ntp1143
Rp1144
(dp1145
g15
g861
sg29
(lp1146
I0
aI1
asg19
(I1
I19
tp1147
sg32
I1
sg33
(dp1148
I0
g865
sI1
g866
sI2
g867
sI3
g868
sI4
g869
sI5
g870
sI6
g871
sI7
g872
sI8
g873
sI9
g874
sI10
g875
sI11
g876
sI12
g877
sI13
g878
sI14
g879
sI15
g880
sI16
g881
sI17
g882
sI18
g883
sI19
g884
sI20
g885
sI21
g886
ssg17
VClock
p1149
sbag1
(g24
g3
Ntp1150
Rp1151
(dp1152
g15
g541
sg29
(lp1153
I0
asg19
(I0
I79
tp1154
sg32
I0
sg33
(dp1155
sg17
VRate
p1156
sbag1
(g24
g3
Ntp1157
Rp1158
(dp1159
g15
g541
sg29
g898
sg19
g899
sg32
I11
sg33
(dp1160
sg17
g901
sbag1
(g24
g3
Ntp1161
Rp1162
(dp1163
g15
g905
sg29
(lp1164
I0
aI1
asg19
(I0
I80
tp1165
sg32
I12
sg33
(dp1166
I0
g909
sI1
g910
sI2
g911
sI3
g912
sI4
g913
sI5
g914
sI6
g915
ssg17
VShape
p1167
sbag1
(g24
g3
Ntp1168
Rp1169
(dp1170
g15
g541
sg29
(lp1171
I0
aI1
asg19
(I0
I83
tp1172
sg32
I4
sg33
(dp1173
sg17
VContour
p1174
sbag1
(g24
g3
Ntp1175
Rp1176
(dp1177
g15
g927
sg29
(lp1178
I0
aI1
asg19
(I0
I82
tp1179
sg32
I1
sg33
(dp1180
I0
g931
sI1
g932
ssg17
VMode
p1181
sbag1
(g24
g3
Ntp1182
Rp1183
(dp1184
g15
g541
sg29
(lp1185
I0
aI1
asg19
(I0
I81
tp1186
sg32
I9
sg33
(dp1187
sg17
VEnvelope Mode
p1188
sbag1
(g24
g3
Ntp1189
Rp1190
(dp1191
g15
g541
sg29
(lp1192
I0
aI1
asg19
(I0
I85
tp1193
sg32
I3
sg33
(dp1194
sg17
VTrigger Phase
p1195
sbag1
(g24
g3
Ntp1196
Rp1197
(dp1198
g15
g541
sg29
(lp1199
I0
aI1
asg19
(I0
I84
tp1200
sg32
I0
sg33
(dp1201
sg17
VKey Follow
p1202
sbasg33
(dp1203
sbag1
(g11
g3
Ntp1204
Rp1205
(dp1206
g15
g568
sg17
VLFO 2 Dest
p1207
sg19
g570
sg21
I0
sg22
(lp1208
g1
(g24
g3
Ntp1209
Rp1210
(dp1211
g15
g541
sg29
(lp1212
sg19
(I0
I88
tp1213
sg32
I5
sg33
(dp1214
sg17
VCutoff 1
p1215
sbag1
(g24
g3
Ntp1216
Rp1217
(dp1218
g15
g541
sg29
(lp1219
sg19
(I0
I89
tp1220
sg32
I5
sg33
(dp1221
sg17
VCutoff 2
p1222
sbag1
(g24
g3
Ntp1223
Rp1224
(dp1225
g15
g541
sg29
(lp1226
sg19
(I0
I86
tp1227
sg32
I5
sg33
(dp1228
sg17
VShape 1+2
p1229
sbag1
(g24
g3
Ntp1230
Rp1231
(dp1232
g15
g541
sg29
(lp1233
sg19
(I0
I87
tp1234
sg32
I5
sg33
(dp1235
sg17
VFM Amount
p1236
sbag1
(g24
g3
Ntp1237
Rp1238
(dp1239
g15
g541
sg29
(lp1240
sg19
(I0
I90
tp1241
sg32
I5
sg33
(dp1242
sg17
VPanorama
p1243
sbag1
(g24
g3
Ntp1244
Rp1245
(dp1246
g15
g999
sg29
(lp1247
sg19
(I1
I81
tp1248
sg32
I1
sg33
(dp1249
I0
g1003
sI1
g1004
sI2
g1005
sI3
g1006
sI4
g1007
sI5
g1008
sI6
g1009
sI7
g1010
sI8
g1011
sI9
g1012
sI10
g1013
sI11
g1014
sI12
g1015
sI13
g1016
sI14
g1017
sI15
g1018
sI16
g1019
sI17
g1020
sI18
g1021
sI19
g1022
sI20
g1023
sI21
g1024
sI22
g1025
sI23
g1026
sI24
g1027
sI25
g1028
sI26
g1029
sI27
g1030
sI28
g1031
sI29
g1032
sI30
g1033
sI31
g1034
sI32
g1035
sI33
g1036
sI34
g1037
sI35
g1038
sI36
g1039
sI37
g1040
sI38
g1041
sI39
g1042
sI40
g1043
sI41
g1044
sI42
g1045
sI43
g1046
sI44
g1047
sI45
g1048
sI46
g1049
sI47
g1050
sI48
g1051
sI49
g1052
sI50
g1053
sI51
g1054
sI52
g1055
sI53
g1056
sI54
g1057
sI55
g1058
sI56
g1059
sI57
g1060
sI58
g1061
sI59
g1062
sI60
g1063
sI61
g1064
sI62
g1065
sI63
g1066
sI64
g1067
sI65
g1068
sI66
g1069
sI67
g1070
sI68
g1071
sI69
g1072
sI70
g1073
sI71
g1074
sI72
g1075
sI73
g1076
sI74
g1077
sI75
g1078
sI76
g1079
sI77
g1080
sI80
g1081
sI82
g1082
sI83
g1083
sI84
g1084
sI85
g1085
sI86
g1086
sI87
g1087
sI88
g1088
sI89
g1089
sI90
g1090
sI91
g1091
sI92
g1092
sI93
g1093
sI94
g1094
sI95
g1095
sI96
g1096
sI97
g1097
sI98
g1098
sI99
g1099
sI100
g1100
sI101
g1101
sI102
g1102
sI103
g1103
sI104
g1104
sI105
g1105
sI106
g1106
sI107
g1107
sI108
g1108
sI109
g1109
sI110
g1110
sI111
g1111
sI112
g1112
sI113
g1113
sI114
g1114
sI115
g1115
sI116
g1116
sI117
g1117
sI118
g1118
sI119
g1119
sI120
g1120
sI121
g1121
sI122
g1122
sI123
g1123
sI124
g1124
sI125
g1125
sI126
g1126
sI127
g1127
ssg17
VAssign Target
p1250
sbag1
(g24
g3
Ntp1251
Rp1252
(dp1253
g15
g541
sg29
(lp1254
sg19
(I1
I82
tp1255
sg32
I5
sg33
(dp1256
sg17
VAmount
p1257
sbasg33
(dp1258
sbag1
(g11
g3
Ntp1259
Rp1260
(dp1261
g15
g854
sg17
VLFO 3
p1262
sg19
(I1
I21
tp1263
sg21
I2
sg22
(lp1264
g1
(g24
g3
Ntp1265
Rp1266
(dp1267
g15
g861
sg29
(lp1268
I0
aI1
asg19
(I1
I21
tp1269
sg32
I1
sg33
(dp1270
I0
g865
sI1
g866
sI2
g867
sI3
g868
sI4
g869
sI5
g870
sI6
g871
sI7
g872
sI8
g873
sI9
g874
sI10
g875
sI11
g876
sI12
g877
sI13
g878
sI14
g879
sI15
g880
sI16
g881
sI17
g882
sI18
g883
sI19
g884
sI20
g885
sI21
g886
ssg17
VClock
p1271
sbag1
(g24
g3
Ntp1272
Rp1273
(dp1274
g15
g541
sg29
(lp1275
I0
asg19
(I1
I7
tp1276
sg32
I0
sg33
(dp1277
sg17
VRate
p1278
sbag1
(g24
g3
Ntp1279
Rp1280
(dp1281
g15
g541
sg29
g898
sg19
g899
sg32
I11
sg33
(dp1282
sg17
g901
sbag1
(g24
g3
Ntp1283
Rp1284
(dp1285
g15
g905
sg29
(lp1286
I0
aI1
asg19
(I1
I8
tp1287
sg32
I12
sg33
(dp1288
I0
g909
sI1
g910
sI2
g911
sI3
g912
sI4
g913
sI5
g914
sI6
g915
ssg17
VShape
p1289
sbag1
(g24
g3
Ntp1290
Rp1291
(dp1292
g15
g927
sg29
(lp1293
I0
aI1
asg19
(I1
I9
tp1294
sg32
I1
sg33
(dp1295
I0
g931
sI1
g932
ssg17
VMode
p1296
sbag1
(g24
g3
Ntp1297
Rp1298
(dp1299
g15
g541
sg29
(lp1300
I0
aI1
asg19
(I1
I10
tp1301
sg32
I0
sg33
(dp1302
sg17
VKey Follow
p1303
sbasg33
(dp1304
sbag1
(g11
g3
Ntp1305
Rp1306
(dp1307
g15
g568
sg17
VLFO 3 Dest
p1308
sg19
g570
sg21
I0
sg22
(lp1309
g1
(g24
g3
Ntp1310
Rp1311
(dp1312
g15
g541
sg29
(lp1313
sg19
(I1
I13
tp1314
sg32
I0
sg33
(dp1315
sg17
VFade In
p1316
sbag1
(g24
g3
Ntp1317
Rp1318
(dp1319
g15
(I0
I6
tp1320
sg29
(lp1321
sg19
(I1
I11
tp1322
sg32
I1
sg33
(dp1323
I0
VOsc 1 Pitch
p1324
sI1
VOsc 1+2 Pitch
p1325
sI2
VOsc 2 Pitch
p1326
sI3
VOsc 1 Pulse Width
p1327
sI4
VOsc 1+2 Pulse Width
p1328
sI5
VOsc 2 Pulse Width
p1329
sI6
VSync Phase
p1330
ssg17
VAssign Target
p1331
sbag1
(g24
g3
Ntp1332
Rp1333
(dp1334
g15
g541
sg29
(lp1335
sg19
(I1
I12
tp1336
sg32
I7
sg33
(dp1337
sg17
VAmount
p1338
sbasg33
(dp1339
sbasg17
V.LFO
p1340
sg559
I3
sbag1
(g2
g3
Ntp1341
Rp1342
(dp1343
g7
(dp1344
I0
I2
sI1
I2
sI2
I2
ssg9
(lp1345
g1
(g11
g3
Ntp1346
Rp1347
(dp1348
g15
(I0
I0
tp1349
sg17
VSlot 1
p1350
sg19
(I0
I17
tp1351
sg21
I0
sg22
(lp1352
g1
(g24
g3
Ntp1353
Rp1354
(dp1355
g15
(I0
I37
tp1356
sg29
(lp1357
sg19
(I1
I64
tp1358
sg32
I1
sg33
(dp1359
I0
VOff
p1360
sI1
VPitch Bend
p1361
sI2
VChan Pressure
p1362
sI3
VMod Wheel
p1363
sI4
VBreath
p1364
sI5
VController 3
p1365
sI6
VFoot Pedal
p1366
sI7
VData Entry
p1367
sI8
VBalance
p1368
sI9
VController 9
p1369
sI10
VExpression
p1370
sI11
VController 12
p1371
sI12
VController 13
p1372
sI13
VController 14
p1373
sI14
VController 15
p1374
sI15
VController 16
p1375
sI16
VHold Pedal
p1376
sI17
VPortamento Sw
p1377
sI18
VSost Pedal
p1378
sI19
VAmp Envelope
p1379
sI20
VFilter Envelope
p1380
sI21
VLFO 1 bipolar
p1381
sI22
VLFO 2 bipolar
p1382
sI23
VLFO 3 bipolar
p1383
sI24
VVelocity On
p1384
sI25
VVelocity Off
p1385
sI26
VKey Follow
p1386
sI27
VRandom
p1387
sI28
VArp Input
p1388
sI29
VLFO 1 unipolar
p1389
sI30
VLFO 2 unipolar
p1390
sI31
VLFO 3 unipolar
p1391
sI32
V1% constant
p1392
sI33
V10% constant
p1393
sI34
VAnaKey1 Fine
p1394
sI35
VAnaKey 2 Fine
p1395
sI36
VAnaKey1 Coarse
p1396
sI37
VAnaKey2 Coarse
p1397
ssg17
VSource
p1398
sbag1
(g24
g3
Ntp1399
Rp1400
(dp1401
g15
g999
sg29
(lp1402
sg19
(I1
I66
tp1403
sg32
I4
sg33
(dp1404
sg17
VAmount 1
p1405
sbag1
(g24
g3
Ntp1406
Rp1407
(dp1408
g15
g999
sg29
(lp1409
sg19
(I3
I91
tp1410
sg32
I4
sg33
(dp1411
sg17
VAmount 2
p1412
sbag1
(g24
g3
Ntp1413
Rp1414
(dp1415
g15
g999
sg29
(lp1416
sg19
(I3
I93
tp1417
sg32
I4
sg33
(dp1418
sg17
VAmount 3
p1419
sbag1
(g24
g3
Ntp1420
Rp1421
(dp1422
g15
g999
sg29
(lp1423
sg19
(I1
I65
tp1424
sg32
I1
sg33
(dp1425
I0
g1003
sI1
g1004
sI2
g1005
sI3
g1006
sI4
g1007
sI5
g1008
sI6
g1009
sI7
g1010
sI8
g1011
sI9
g1012
sI10
g1013
sI11
g1014
sI12
g1015
sI13
g1016
sI14
g1017
sI15
g1018
sI16
g1019
sI17
g1020
sI18
g1021
sI19
g1022
sI20
g1023
sI21
g1024
sI22
g1025
sI23
g1026
sI24
g1027
sI25
g1028
sI26
g1029
sI27
g1030
sI28
g1031
sI29
g1032
sI30
g1033
sI31
g1034
sI32
g1035
sI33
g1036
sI34
g1037
sI35
g1038
sI36
g1039
sI37
g1040
sI38
g1041
sI39
g1042
sI40
g1043
sI41
g1044
sI42
g1045
sI43
g1046
sI44
g1047
sI45
g1048
sI46
g1049
sI47
g1050
sI48
g1051
sI49
g1052
sI50
g1053
sI51
g1054
sI52
g1055
sI53
g1056
sI54
g1057
sI55
g1058
sI56
g1059
sI57
g1060
sI58
g1061
sI59
g1062
sI60
g1063
sI61
g1064
sI62
g1065
sI63
g1066
sI64
g1067
sI65
g1068
sI66
g1069
sI67
g1070
sI68
g1071
sI69
g1072
sI70
g1073
sI71
g1074
sI72
g1075
sI73
g1076
sI74
g1077
sI75
g1078
sI76
g1079
sI77
g1080
sI80
g1081
sI82
g1082
sI83
g1083
sI84
g1084
sI85
g1085
sI86
g1086
sI87
g1087
sI88
g1088
sI89
g1089
sI90
g1090
sI91
g1091
sI92
g1092
sI93
g1093
sI94
g1094
sI95
g1095
sI96
g1096
sI97
g1097
sI98
g1098
sI99
g1099
sI100
g1100
sI101
g1101
sI102
g1102
sI103
g1103
sI104
g1104
sI105
g1105
sI106
g1106
sI107
g1107
sI108
g1108
sI109
g1109
sI110
g1110
sI111
g1111
sI112
g1112
sI113
g1113
sI114
g1114
sI115
g1115
sI116
g1116
sI117
g1117
sI118
g1118
sI119
g1119
sI120
g1120
sI121
g1121
sI122
g1122
sI123
g1123
sI124
g1124
sI125
g1125
sI126
g1126
sI127
g1127
ssg17
VDest 1
p1426
sbag1
(g24
g3
Ntp1427
Rp1428
(dp1429
g15
g999
sg29
(lp1430
sg19
(I3
I90
tp1431
sg32
I1
sg33
(dp1432
I0
g1003
sI1
g1004
sI2
g1005
sI3
g1006
sI4
g1007
sI5
g1008
sI6
g1009
sI7
g1010
sI8
g1011
sI9
g1012
sI10
g1013
sI11
g1014
sI12
g1015
sI13
g1016
sI14
g1017
sI15
g1018
sI16
g1019
sI17
g1020
sI18
g1021
sI19
g1022
sI20
g1023
sI21
g1024
sI22
g1025
sI23
g1026
sI24
g1027
sI25
g1028
sI26
g1029
sI27
g1030
sI28
g1031
sI29
g1032
sI30
g1033
sI31
g1034
sI32
g1035
sI33
g1036
sI34
g1037
sI35
g1038
sI36
g1039
sI37
g1040
sI38
g1041
sI39
g1042
sI40
g1043
sI41
g1044
sI42
g1045
sI43
g1046
sI44
g1047
sI45
g1048
sI46
g1049
sI47
g1050
sI48
g1051
sI49
g1052
sI50
g1053
sI51
g1054
sI52
g1055
sI53
g1056
sI54
g1057
sI55
g1058
sI56
g1059
sI57
g1060
sI58
g1061
sI59
g1062
sI60
g1063
sI61
g1064
sI62
g1065
sI63
g1066
sI64
g1067
sI65
g1068
sI66
g1069
sI67
g1070
sI68
g1071
sI69
g1072
sI70
g1073
sI71
g1074
sI72
g1075
sI73
g1076
sI74
g1077
sI75
g1078
sI76
g1079
sI77
g1080
sI80
g1081
sI82
g1082
sI83
g1083
sI84
g1084
sI85
g1085
sI86
g1086
sI87
g1087
sI88
g1088
sI89
g1089
sI90
g1090
sI91
g1091
sI92
g1092
sI93
g1093
sI94
g1094
sI95
g1095
sI96
g1096
sI97
g1097
sI98
g1098
sI99
g1099
sI100
g1100
sI101
g1101
sI102
g1102
sI103
g1103
sI104
g1104
sI105
g1105
sI106
g1106
sI107
g1107
sI108
g1108
sI109
g1109
sI110
g1110
sI111
g1111
sI112
g1112
sI113
g1113
sI114
g1114
sI115
g1115
sI116
g1116
sI117
g1117
sI118
g1118
sI119
g1119
sI120
g1120
sI121
g1121
sI122
g1122
sI123
g1123
sI124
g1124
sI125
g1125
sI126
g1126
sI127
g1127
ssg17
VDest 2
p1433
sbag1
(g24
g3
Ntp1434
Rp1435
(dp1436
g15
g999
sg29
(lp1437
sg19
(I3
I92
tp1438
sg32
I1
sg33
(dp1439
I0
g1003
sI1
g1004
sI2
g1005
sI3
g1006
sI4
g1007
sI5
g1008
sI6
g1009
sI7
g1010
sI8
g1011
sI9
g1012
sI10
g1013
sI11
g1014
sI12
g1015
sI13
g1016
sI14
g1017
sI15
g1018
sI16
g1019
sI17
g1020
sI18
g1021
sI19
g1022
sI20
g1023
sI21
g1024
sI22
g1025
sI23
g1026
sI24
g1027
sI25
g1028
sI26
g1029
sI27
g1030
sI28
g1031
sI29
g1032
sI30
g1033
sI31
g1034
sI32
g1035
sI33
g1036
sI34
g1037
sI35
g1038
sI36
g1039
sI37
g1040
sI38
g1041
sI39
g1042
sI40
g1043
sI41
g1044
sI42
g1045
sI43
g1046
sI44
g1047
sI45
g1048
sI46
g1049
sI47
g1050
sI48
g1051
sI49
g1052
sI50
g1053
sI51
g1054
sI52
g1055
sI53
g1056
sI54
g1057
sI55
g1058
sI56
g1059
sI57
g1060
sI58
g1061
sI59
g1062
sI60
g1063
sI61
g1064
sI62
g1065
sI63
g1066
sI64
g1067
sI65
g1068
sI66
g1069
sI67
g1070
sI68
g1071
sI69
g1072
sI70
g1073
sI71
g1074
sI72
g1075
sI73
g1076
sI74
g1077
sI75
g1078
sI76
g1079
sI77
g1080
sI80
g1081
sI82
g1082
sI83
g1083
sI84
g1084
sI85
g1085
sI86
g1086
sI87
g1087
sI88
g1088
sI89
g1089
sI90
g1090
sI91
g1091
sI92
g1092
sI93
g1093
sI94
g1094
sI95
g1095
sI96
g1096
sI97
g1097
sI98
g1098
sI99
g1099
sI100
g1100
sI101
g1101
sI102
g1102
sI103
g1103
sI104
g1104
sI105
g1105
sI106
g1106
sI107
g1107
sI108
g1108
sI109
g1109
sI110
g1110
sI111
g1111
sI112
g1112
sI113
g1113
sI114
g1114
sI115
g1115
sI116
g1116
sI117
g1117
sI118
g1118
sI119
g1119
sI120
g1120
sI121
g1121
sI122
g1122
sI123
g1123
sI124
g1124
sI125
g1125
sI126
g1126
sI127
g1127
ssg17
VDest 3
p1440
sbasg33
(dp1441
sbag1
(g11
g3
Ntp1442
Rp1443
(dp1444
g15
g1349
sg17
VSlot 4
p1445
sg19
g1351
sg21
I0
sg22
(lp1446
g1
(g24
g3
Ntp1447
Rp1448
(dp1449
g15
g1356
sg29
(lp1450
sg19
(I1
I103
tp1451
sg32
I1
sg33
(dp1452
I0
g1360
sI1
g1361
sI2
g1362
sI3
g1363
sI4
g1364
sI5
g1365
sI6
g1366
sI7
g1367
sI8
g1368
sI9
g1369
sI10
g1370
sI11
g1371
sI12
g1372
sI13
g1373
sI14
g1374
sI15
g1375
sI16
g1376
sI17
g1377
sI18
g1378
sI19
g1379
sI20
g1380
sI21
g1381
sI22
g1382
sI23
g1383
sI24
g1384
sI25
g1385
sI26
g1386
sI27
g1387
sI28
g1388
sI29
g1389
sI30
g1390
sI31
g1391
sI32
g1392
sI33
g1393
sI34
g1394
sI35
g1395
sI36
g1396
sI37
g1397
ssg17
VSource
p1453
sbag1
(g24
g3
Ntp1454
Rp1455
(dp1456
g15
g999
sg29
(lp1457
sg19
(I1
I105
tp1458
sg32
I4
sg33
(dp1459
sg17
VAmount 1
p1460
sbag1
(g24
g3
Ntp1461
Rp1462
(dp1463
g15
g999
sg29
(lp1464
sg19
(I3
I97
tp1465
sg32
I4
sg33
(dp1466
sg17
VAmount 2
p1467
sbag1
(g24
g3
Ntp1468
Rp1469
(dp1470
g15
g999
sg29
(lp1471
sg19
(I3
I99
tp1472
sg32
I4
sg33
(dp1473
sg17
VAmount 3
p1474
sbag1
(g24
g3
Ntp1475
Rp1476
(dp1477
g15
g999
sg29
(lp1478
sg19
(I1
I104
tp1479
sg32
I1
sg33
(dp1480
I0
g1003
sI1
g1004
sI2
g1005
sI3
g1006
sI4
g1007
sI5
g1008
sI6
g1009
sI7
g1010
sI8
g1011
sI9
g1012
sI10
g1013
sI11
g1014
sI12
g1015
sI13
g1016
sI14
g1017
sI15
g1018
sI16
g1019
sI17
g1020
sI18
g1021
sI19
g1022
sI20
g1023
sI21
g1024
sI22
g1025
sI23
g1026
sI24
g1027
sI25
g1028
sI26
g1029
sI27
g1030
sI28
g1031
sI29
g1032
sI30
g1033
sI31
g1034
sI32
g1035
sI33
g1036
sI34
g1037
sI35
g1038
sI36
g1039
sI37
g1040
sI38
g1041
sI39
g1042
sI40
g1043
sI41
g1044
sI42
g1045
sI43
g1046
sI44
g1047
sI45
g1048
sI46
g1049
sI47
g1050
sI48
g1051
sI49
g1052
sI50
g1053
sI51
g1054
sI52
g1055
sI53
g1056
sI54
g1057
sI55
g1058
sI56
g1059
sI57
g1060
sI58
g1061
sI59
g1062
sI60
g1063
sI61
g1064
sI62
g1065
sI63
g1066
sI64
g1067
sI65
g1068
sI66
g1069
sI67
g1070
sI68
g1071
sI69
g1072
sI70
g1073
sI71
g1074
sI72
g1075
sI73
g1076
sI74
g1077
sI75
g1078
sI76
g1079
sI77
g1080
sI80
g1081
sI82
g1082
sI83
g1083
sI84
g1084
sI85
g1085
sI86
g1086
sI87
g1087
sI88
g1088
sI89
g1089
sI90
g1090
sI91
g1091
sI92
g1092
sI93
g1093
sI94
g1094
sI95
g1095
sI96
g1096
sI97
g1097
sI98
g1098
sI99
g1099
sI100
g1100
sI101
g1101
sI102
g1102
sI103
g1103
sI104
g1104
sI105
g1105
sI106
g1106
sI107
g1107
sI108
g1108
sI109
g1109
sI110
g1110
sI111
g1111
sI112
g1112
sI113
g1113
sI114
g1114
sI115
g1115
sI116
g1116
sI117
g1117
sI118
g1118
sI119
g1119
sI120
g1120
sI121
g1121
sI122
g1122
sI123
g1123
sI124
g1124
sI125
g1125
sI126
g1126
sI127
g1127
ssg17
VDest 1
p1481
sbag1
(g24
g3
Ntp1482
Rp1483
(dp1484
g15
g999
sg29
(lp1485
sg19
(I3
I96
tp1486
sg32
I1
sg33
(dp1487
I0
g1003
sI1
g1004
sI2
g1005
sI3
g1006
sI4
g1007
sI5
g1008
sI6
g1009
sI7
g1010
sI8
g1011
sI9
g1012
sI10
g1013
sI11
g1014
sI12
g1015
sI13
g1016
sI14
g1017
sI15
g1018
sI16
g1019
sI17
g1020
sI18
g1021
sI19
g1022
sI20
g1023
sI21
g1024
sI22
g1025
sI23
g1026
sI24
g1027
sI25
g1028
sI26
g1029
sI27
g1030
sI28
g1031
sI29
g1032
sI30
g1033
sI31
g1034
sI32
g1035
sI33
g1036
sI34
g1037
sI35
g1038
sI36
g1039
sI37
g1040
sI38
g1041
sI39
g1042
sI40
g1043
sI41
g1044
sI42
g1045
sI43
g1046
sI44
g1047
sI45
g1048
sI46
g1049
sI47
g1050
sI48
g1051
sI49
g1052
sI50
g1053
sI51
g1054
sI52
g1055
sI53
g1056
sI54
g1057
sI55
g1058
sI56
g1059
sI57
g1060
sI58
g1061
sI59
g1062
sI60
g1063
sI61
g1064
sI62
g1065
sI63
g1066
sI64
g1067
sI65
g1068
sI66
g1069
sI67
g1070
sI68
g1071
sI69
g1072
sI70
g1073
sI71
g1074
sI72
g1075
sI73
g1076
sI74
g1077
sI75
g1078
sI76
g1079
sI77
g1080
sI80
g1081
sI82
g1082
sI83
g1083
sI84
g1084
sI85
g1085
sI86
g1086
sI87
g1087
sI88
g1088
sI89
g1089
sI90
g1090
sI91
g1091
sI92
g1092
sI93
g1093
sI94
g1094
sI95
g1095
sI96
g1096
sI97
g1097
sI98
g1098
sI99
g1099
sI100
g1100
sI101
g1101
sI102
g1102
sI103
g1103
sI104
g1104
sI105
g1105
sI106
g1106
sI107
g1107
sI108
g1108
sI109
g1109
sI110
g1110
sI111
g1111
sI112
g1112
sI113
g1113
sI114
g1114
sI115
g1115
sI116
g1116
sI117
g1117
sI118
g1118
sI119
g1119
sI120
g1120
sI121
g1121
sI122
g1122
sI123
g1123
sI124
g1124
sI125
g1125
sI126
g1126
sI127
g1127
ssg17
VDest 2
p1488
sbag1
(g24
g3
Ntp1489
Rp1490
(dp1491
g15
g999
sg29
(lp1492
sg19
(I3
I98
tp1493
sg32
I1
sg33
(dp1494
I0
g1003
sI1
g1004
sI2
g1005
sI3
g1006
sI4
g1007
sI5
g1008
sI6
g1009
sI7
g1010
sI8
g1011
sI9
g1012
sI10
g1013
sI11
g1014
sI12
g1015
sI13
g1016
sI14
g1017
sI15
g1018
sI16
g1019
sI17
g1020
sI18
g1021
sI19
g1022
sI20
g1023
sI21
g1024
sI22
g1025
sI23
g1026
sI24
g1027
sI25
g1028
sI26
g1029
sI27
g1030
sI28
g1031
sI29
g1032
sI30
g1033
sI31
g1034
sI32
g1035
sI33
g1036
sI34
g1037
sI35
g1038
sI36
g1039
sI37
g1040
sI38
g1041
sI39
g1042
sI40
g1043
sI41
g1044
sI42
g1045
sI43
g1046
sI44
g1047
sI45
g1048
sI46
g1049
sI47
g1050
sI48
g1051
sI49
g1052
sI50
g1053
sI51
g1054
sI52
g1055
sI53
g1056
sI54
g1057
sI55
g1058
sI56
g1059
sI57
g1060
sI58
g1061
sI59
g1062
sI60
g1063
sI61
g1064
sI62
g1065
sI63
g1066
sI64
g1067
sI65
g1068
sI66
g1069
sI67
g1070
sI68
g1071
sI69
g1072
sI70
g1073
sI71
g1074
sI72
g1075
sI73
g1076
sI74
g1077
sI75
g1078
sI76
g1079
sI77
g1080
sI80
g1081
sI82
g1082
sI83
g1083
sI84
g1084
sI85
g1085
sI86
g1086
sI87
g1087
sI88
g1088
sI89
g1089
sI90
g1090
sI91
g1091
sI92
g1092
sI93
g1093
sI94
g1094
sI95
g1095
sI96
g1096
sI97
g1097
sI98
g1098
sI99
g1099
sI100
g1100
sI101
g1101
sI102
g1102
sI103
g1103
sI104
g1104
sI105
g1105
sI106
g1106
sI107
g1107
sI108
g1108
sI109
g1109
sI110
g1110
sI111
g1111
sI112
g1112
sI113
g1113
sI114
g1114
sI115
g1115
sI116
g1116
sI117
g1117
sI118
g1118
sI119
g1119
sI120
g1120
sI121
g1121
sI122
g1122
sI123
g1123
sI124
g1124
sI125
g1125
sI126
g1126
sI127
g1127
ssg17
VDest 3
p1495
sbasg33
(dp1496
sbag1
(g11
g3
Ntp1497
Rp1498
(dp1499
g15
g1349
sg17
VSlot 2
p1500
sg19
g1351
sg21
I0
sg22
(lp1501
g1
(g24
g3
Ntp1502
Rp1503
(dp1504
g15
g1356
sg29
(lp1505
sg19
(I1
I67
tp1506
sg32
I1
sg33
(dp1507
I0
g1360
sI1
g1361
sI2
g1362
sI3
g1363
sI4
g1364
sI5
g1365
sI6
g1366
sI7
g1367
sI8
g1368
sI9
g1369
sI10
g1370
sI11
g1371
sI12
g1372
sI13
g1373
sI14
g1374
sI15
g1375
sI16
g1376
sI17
g1377
sI18
g1378
sI19
g1379
sI20
g1380
sI21
g1381
sI22
g1382
sI23
g1383
sI24
g1384
sI25
g1385
sI26
g1386
sI27
g1387
sI28
g1388
sI29
g1389
sI30
g1390
sI31
g1391
sI32
g1392
sI33
g1393
sI34
g1394
sI35
g1395
sI36
g1396
sI37
g1397
ssg17
VSource
p1508
sbag1
(g24
g3
Ntp1509
Rp1510
(dp1511
g15
g999
sg29
(lp1512
sg19
(I1
I69
tp1513
sg32
I4
sg33
(dp1514
sg17
VAmount 1
p1515
sbag1
(g24
g3
Ntp1516
Rp1517
(dp1518
g15
g999
sg29
(lp1519
sg19
(I1
I71
tp1520
sg32
I4
sg33
(dp1521
sg17
VAmount 2
p1522
sbag1
(g24
g3
Ntp1523
Rp1524
(dp1525
g15
g999
sg29
(lp1526
sg19
(I3
I95
tp1527
sg32
I4
sg33
(dp1528
sg17
VAmount 3
p1529
sbag1
(g24
g3
Ntp1530
Rp1531
(dp1532
g15
g999
sg29
(lp1533
sg19
(I1
I68
tp1534
sg32
I1
sg33
(dp1535
I0
g1003
sI1
g1004
sI2
g1005
sI3
g1006
sI4
g1007
sI5
g1008
sI6
g1009
sI7
g1010
sI8
g1011
sI9
g1012
sI10
g1013
sI11
g1014
sI12
g1015
sI13
g1016
sI14
g1017
sI15
g1018
sI16
g1019
sI17
g1020
sI18
g1021
sI19
g1022
sI20
g1023
sI21
g1024
sI22
g1025
sI23
g1026
sI24
g1027
sI25
g1028
sI26
g1029
sI27
g1030
sI28
g1031
sI29
g1032
sI30
g1033
sI31
g1034
sI32
g1035
sI33
g1036
sI34
g1037
sI35
g1038
sI36
g1039
sI37
g1040
sI38
g1041
sI39
g1042
sI40
g1043
sI41
g1044
sI42
g1045
sI43
g1046
sI44
g1047
sI45
g1048
sI46
g1049
sI47
g1050
sI48
g1051
sI49
g1052
sI50
g1053
sI51
g1054
sI52
g1055
sI53
g1056
sI54
g1057
sI55
g1058
sI56
g1059
sI57
g1060
sI58
g1061
sI59
g1062
sI60
g1063
sI61
g1064
sI62
g1065
sI63
g1066
sI64
g1067
sI65
g1068
sI66
g1069
sI67
g1070
sI68
g1071
sI69
g1072
sI70
g1073
sI71
g1074
sI72
g1075
sI73
g1076
sI74
g1077
sI75
g1078
sI76
g1079
sI77
g1080
sI80
g1081
sI82
g1082
sI83
g1083
sI84
g1084
sI85
g1085
sI86
g1086
sI87
g1087
sI88
g1088
sI89
g1089
sI90
g1090
sI91
g1091
sI92
g1092
sI93
g1093
sI94
g1094
sI95
g1095
sI96
g1096
sI97
g1097
sI98
g1098
sI99
g1099
sI100
g1100
sI101
g1101
sI102
g1102
sI103
g1103
sI104
g1104
sI105
g1105
sI106
g1106
sI107
g1107
sI108
g1108
sI109
g1109
sI110
g1110
sI111
g1111
sI112
g1112
sI113
g1113
sI114
g1114
sI115
g1115
sI116
g1116
sI117
g1117
sI118
g1118
sI119
g1119
sI120
g1120
sI121
g1121
sI122
g1122
sI123
g1123
sI124
g1124
sI125
g1125
sI126
g1126
sI127
g1127
ssg17
VDest 1
p1536
sbag1
(g24
g3
Ntp1537
Rp1538
(dp1539
g15
g999
sg29
(lp1540
sg19
(I1
I70
tp1541
sg32
I1
sg33
(dp1542
I0
g1003
sI1
g1004
sI2
g1005
sI3
g1006
sI4
g1007
sI5
g1008
sI6
g1009
sI7
g1010
sI8
g1011
sI9
g1012
sI10
g1013
sI11
g1014
sI12
g1015
sI13
g1016
sI14
g1017
sI15
g1018
sI16
g1019
sI17
g1020
sI18
g1021
sI19
g1022
sI20
g1023
sI21
g1024
sI22
g1025
sI23
g1026
sI24
g1027
sI25
g1028
sI26
g1029
sI27
g1030
sI28
g1031
sI29
g1032
sI30
g1033
sI31
g1034
sI32
g1035
sI33
g1036
sI34
g1037
sI35
g1038
sI36
g1039
sI37
g1040
sI38
g1041
sI39
g1042
sI40
g1043
sI41
g1044
sI42
g1045
sI43
g1046
sI44
g1047
sI45
g1048
sI46
g1049
sI47
g1050
sI48
g1051
sI49
g1052
sI50
g1053
sI51
g1054
sI52
g1055
sI53
g1056
sI54
g1057
sI55
g1058
sI56
g1059
sI57
g1060
sI58
g1061
sI59
g1062
sI60
g1063
sI61
g1064
sI62
g1065
sI63
g1066
sI64
g1067
sI65
g1068
sI66
g1069
sI67
g1070
sI68
g1071
sI69
g1072
sI70
g1073
sI71
g1074
sI72
g1075
sI73
g1076
sI74
g1077
sI75
g1078
sI76
g1079
sI77
g1080
sI80
g1081
sI82
g1082
sI83
g1083
sI84
g1084
sI85
g1085
sI86
g1086
sI87
g1087
sI88
g1088
sI89
g1089
sI90
g1090
sI91
g1091
sI92
g1092
sI93
g1093
sI94
g1094
sI95
g1095
sI96
g1096
sI97
g1097
sI98
g1098
sI99
g1099
sI100
g1100
sI101
g1101
sI102
g1102
sI103
g1103
sI104
g1104
sI105
g1105
sI106
g1106
sI107
g1107
sI108
g1108
sI109
g1109
sI110
g1110
sI111
g1111
sI112
g1112
sI113
g1113
sI114
g1114
sI115
g1115
sI116
g1116
sI117
g1117
sI118
g1118
sI119
g1119
sI120
g1120
sI121
g1121
sI122
g1122
sI123
g1123
sI124
g1124
sI125
g1125
sI126
g1126
sI127
g1127
ssg17
VDest 2
p1543
sbag1
(g24
g3
Ntp1544
Rp1545
(dp1546
g15
g999
sg29
(lp1547
sg19
(I3
I94
tp1548
sg32
I1
sg33
(dp1549
I0
g1003
sI1
g1004
sI2
g1005
sI3
g1006
sI4
g1007
sI5
g1008
sI6
g1009
sI7
g1010
sI8
g1011
sI9
g1012
sI10
g1013
sI11
g1014
sI12
g1015
sI13
g1016
sI14
g1017
sI15
g1018
sI16
g1019
sI17
g1020
sI18
g1021
sI19
g1022
sI20
g1023
sI21
g1024
sI22
g1025
sI23
g1026
sI24
g1027
sI25
g1028
sI26
g1029
sI27
g1030
sI28
g1031
sI29
g1032
sI30
g1033
sI31
g1034
sI32
g1035
sI33
g1036
sI34
g1037
sI35
g1038
sI36
g1039
sI37
g1040
sI38
g1041
sI39
g1042
sI40
g1043
sI41
g1044
sI42
g1045
sI43
g1046
sI44
g1047
sI45
g1048
sI46
g1049
sI47
g1050
sI48
g1051
sI49
g1052
sI50
g1053
sI51
g1054
sI52
g1055
sI53
g1056
sI54
g1057
sI55
g1058
sI56
g1059
sI57
g1060
sI58
g1061
sI59
g1062
sI60
g1063
sI61
g1064
sI62
g1065
sI63
g1066
sI64
g1067
sI65
g1068
sI66
g1069
sI67
g1070
sI68
g1071
sI69
g1072
sI70
g1073
sI71
g1074
sI72
g1075
sI73
g1076
sI74
g1077
sI75
g1078
sI76
g1079
sI77
g1080
sI80
g1081
sI82
g1082
sI83
g1083
sI84
g1084
sI85
g1085
sI86
g1086
sI87
g1087
sI88
g1088
sI89
g1089
sI90
g1090
sI91
g1091
sI92
g1092
sI93
g1093
sI94
g1094
sI95
g1095
sI96
g1096
sI97
g1097
sI98
g1098
sI99
g1099
sI100
g1100
sI101
g1101
sI102
g1102
sI103
g1103
sI104
g1104
sI105
g1105
sI106
g1106
sI107
g1107
sI108
g1108
sI109
g1109
sI110
g1110
sI111
g1111
sI112
g1112
sI113
g1113
sI114
g1114
sI115
g1115
sI116
g1116
sI117
g1117
sI118
g1118
sI119
g1119
sI120
g1120
sI121
g1121
sI122
g1122
sI123
g1123
sI124
g1124
sI125
g1125
sI126
g1126
sI127
g1127
ssg17
VDest 3
p1550
sbasg33
(dp1551
sbag1
(g11
g3
Ntp1552
Rp1553
(dp1554
g15
g1349
sg17
VSlot 5
p1555
sg19
g1351
sg21
I0
sg22
(lp1556
g1
(g24
g3
Ntp1557
Rp1558
(dp1559
g15
g1356
sg29
(lp1560
sg19
(I1
I106
tp1561
sg32
I1
sg33
(dp1562
I0
g1360
sI1
g1361
sI2
g1362
sI3
g1363
sI4
g1364
sI5
g1365
sI6
g1366
sI7
g1367
sI8
g1368
sI9
g1369
sI10
g1370
sI11
g1371
sI12
g1372
sI13
g1373
sI14
g1374
sI15
g1375
sI16
g1376
sI17
g1377
sI18
g1378
sI19
g1379
sI20
g1380
sI21
g1381
sI22
g1382
sI23
g1383
sI24
g1384
sI25
g1385
sI26
g1386
sI27
g1387
sI28
g1388
sI29
g1389
sI30
g1390
sI31
g1391
sI32
g1392
sI33
g1393
sI34
g1394
sI35
g1395
sI36
g1396
sI37
g1397
ssg17
VSource
p1563
sbag1
(g24
g3
Ntp1564
Rp1565
(dp1566
g15
g999
sg29
(lp1567
sg19
(I1
I108
tp1568
sg32
I4
sg33
(dp1569
sg17
VAmount 1
p1570
sbag1
(g24
g3
Ntp1571
Rp1572
(dp1573
g15
g999
sg29
(lp1574
sg19
(I3
I101
tp1575
sg32
I4
sg33
(dp1576
sg17
VAmount 2
p1577
sbag1
(g24
g3
Ntp1578
Rp1579
(dp1580
g15
g999
sg29
(lp1581
sg19
(I3
I103
tp1582
sg32
I4
sg33
(dp1583
sg17
VAmount 3
p1584
sbag1
(g24
g3
Ntp1585
Rp1586
(dp1587
g15
g999
sg29
(lp1588
sg19
(I1
I107
tp1589
sg32
I1
sg33
(dp1590
I0
g1003
sI1
g1004
sI2
g1005
sI3
g1006
sI4
g1007
sI5
g1008
sI6
g1009
sI7
g1010
sI8
g1011
sI9
g1012
sI10
g1013
sI11
g1014
sI12
g1015
sI13
g1016
sI14
g1017
sI15
g1018
sI16
g1019
sI17
g1020
sI18
g1021
sI19
g1022
sI20
g1023
sI21
g1024
sI22
g1025
sI23
g1026
sI24
g1027
sI25
g1028
sI26
g1029
sI27
g1030
sI28
g1031
sI29
g1032
sI30
g1033
sI31
g1034
sI32
g1035
sI33
g1036
sI34
g1037
sI35
g1038
sI36
g1039
sI37
g1040
sI38
g1041
sI39
g1042
sI40
g1043
sI41
g1044
sI42
g1045
sI43
g1046
sI44
g1047
sI45
g1048
sI46
g1049
sI47
g1050
sI48
g1051
sI49
g1052
sI50
g1053
sI51
g1054
sI52
g1055
sI53
g1056
sI54
g1057
sI55
g1058
sI56
g1059
sI57
g1060
sI58
g1061
sI59
g1062
sI60
g1063
sI61
g1064
sI62
g1065
sI63
g1066
sI64
g1067
sI65
g1068
sI66
g1069
sI67
g1070
sI68
g1071
sI69
g1072
sI70
g1073
sI71
g1074
sI72
g1075
sI73
g1076
sI74
g1077
sI75
g1078
sI76
g1079
sI77
g1080
sI80
g1081
sI82
g1082
sI83
g1083
sI84
g1084
sI85
g1085
sI86
g1086
sI87
g1087
sI88
g1088
sI89
g1089
sI90
g1090
sI91
g1091
sI92
g1092
sI93
g1093
sI94
g1094
sI95
g1095
sI96
g1096
sI97
g1097
sI98
g1098
sI99
g1099
sI100
g1100
sI101
g1101
sI102
g1102
sI103
g1103
sI104
g1104
sI105
g1105
sI106
g1106
sI107
g1107
sI108
g1108
sI109
g1109
sI110
g1110
sI111
g1111
sI112
g1112
sI113
g1113
sI114
g1114
sI115
g1115
sI116
g1116
sI117
g1117
sI118
g1118
sI119
g1119
sI120
g1120
sI121
g1121
sI122
g1122
sI123
g1123
sI124
g1124
sI125
g1125
sI126
g1126
sI127
g1127
ssg17
VDest 1
p1591
sbag1
(g24
g3
Ntp1592
Rp1593
(dp1594
g15
g999
sg29
(lp1595
sg19
(I3
I100
tp1596
sg32
I1
sg33
(dp1597
I0
g1003
sI1
g1004
sI2
g1005
sI3
g1006
sI4
g1007
sI5
g1008
sI6
g1009
sI7
g1010
sI8
g1011
sI9
g1012
sI10
g1013
sI11
g1014
sI12
g1015
sI13
g1016
sI14
g1017
sI15
g1018
sI16
g1019
sI17
g1020
sI18
g1021
sI19
g1022
sI20
g1023
sI21
g1024
sI22
g1025
sI23
g1026
sI24
g1027
sI25
g1028
sI26
g1029
sI27
g1030
sI28
g1031
sI29
g1032
sI30
g1033
sI31
g1034
sI32
g1035
sI33
g1036
sI34
g1037
sI35
g1038
sI36
g1039
sI37
g1040
sI38
g1041
sI39
g1042
sI40
g1043
sI41
g1044
sI42
g1045
sI43
g1046
sI44
g1047
sI45
g1048
sI46
g1049
sI47
g1050
sI48
g1051
sI49
g1052
sI50
g1053
sI51
g1054
sI52
g1055
sI53
g1056
sI54
g1057
sI55
g1058
sI56
g1059
sI57
g1060
sI58
g1061
sI59
g1062
sI60
g1063
sI61
g1064
sI62
g1065
sI63
g1066
sI64
g1067
sI65
g1068
sI66
g1069
sI67
g1070
sI68
g1071
sI69
g1072
sI70
g1073
sI71
g1074
sI72
g1075
sI73
g1076
sI74
g1077
sI75
g1078
sI76
g1079
sI77
g1080
sI80
g1081
sI82
g1082
sI83
g1083
sI84
g1084
sI85
g1085
sI86
g1086
sI87
g1087
sI88
g1088
sI89
g1089
sI90
g1090
sI91
g1091
sI92
g1092
sI93
g1093
sI94
g1094
sI95
g1095
sI96
g1096
sI97
g1097
sI98
g1098
sI99
g1099
sI100
g1100
sI101
g1101
sI102
g1102
sI103
g1103
sI104
g1104
sI105
g1105
sI106
g1106
sI107
g1107
sI108
g1108
sI109
g1109
sI110
g1110
sI111
g1111
sI112
g1112
sI113
g1113
sI114
g1114
sI115
g1115
sI116
g1116
sI117
g1117
sI118
g1118
sI119
g1119
sI120
g1120
sI121
g1121
sI122
g1122
sI123
g1123
sI124
g1124
sI125
g1125
sI126
g1126
sI127
g1127
ssg17
VDest 2
p1598
sbag1
(g24
g3
Ntp1599
Rp1600
(dp1601
g15
g999
sg29
(lp1602
sg19
(I3
I102
tp1603
sg32
I1
sg33
(dp1604
I0
g1003
sI1
g1004
sI2
g1005
sI3
g1006
sI4
g1007
sI5
g1008
sI6
g1009
sI7
g1010
sI8
g1011
sI9
g1012
sI10
g1013
sI11
g1014
sI12
g1015
sI13
g1016
sI14
g1017
sI15
g1018
sI16
g1019
sI17
g1020
sI18
g1021
sI19
g1022
sI20
g1023
sI21
g1024
sI22
g1025
sI23
g1026
sI24
g1027
sI25
g1028
sI26
g1029
sI27
g1030
sI28
g1031
sI29
g1032
sI30
g1033
sI31
g1034
sI32
g1035
sI33
g1036
sI34
g1037
sI35
g1038
sI36
g1039
sI37
g1040
sI38
g1041
sI39
g1042
sI40
g1043
sI41
g1044
sI42
g1045
sI43
g1046
sI44
g1047
sI45
g1048
sI46
g1049
sI47
g1050
sI48
g1051
sI49
g1052
sI50
g1053
sI51
g1054
sI52
g1055
sI53
g1056
sI54
g1057
sI55
g1058
sI56
g1059
sI57
g1060
sI58
g1061
sI59
g1062
sI60
g1063
sI61
g1064
sI62
g1065
sI63
g1066
sI64
g1067
sI65
g1068
sI66
g1069
sI67
g1070
sI68
g1071
sI69
g1072
sI70
g1073
sI71
g1074
sI72
g1075
sI73
g1076
sI74
g1077
sI75
g1078
sI76
g1079
sI77
g1080
sI80
g1081
sI82
g1082
sI83
g1083
sI84
g1084
sI85
g1085
sI86
g1086
sI87
g1087
sI88
g1088
sI89
g1089
sI90
g1090
sI91
g1091
sI92
g1092
sI93
g1093
sI94
g1094
sI95
g1095
sI96
g1096
sI97
g1097
sI98
g1098
sI99
g1099
sI100
g1100
sI101
g1101
sI102
g1102
sI103
g1103
sI104
g1104
sI105
g1105
sI106
g1106
sI107
g1107
sI108
g1108
sI109
g1109
sI110
g1110
sI111
g1111
sI112
g1112
sI113
g1113
sI114
g1114
sI115
g1115
sI116
g1116
sI117
g1117
sI118
g1118
sI119
g1119
sI120
g1120
sI121
g1121
sI122
g1122
sI123
g1123
sI124
g1124
sI125
g1125
sI126
g1126
sI127
g1127
ssg17
VDest 3
p1605
sbasg33
(dp1606
sbag1
(g11
g3
Ntp1607
Rp1608
(dp1609
g15
g1349
sg17
VSlot 3
p1610
sg19
g1351
sg21
I0
sg22
(lp1611
g1
(g24
g3
Ntp1612
Rp1613
(dp1614
g15
g1356
sg29
(lp1615
sg19
(I1
I72
tp1616
sg32
I1
sg33
(dp1617
I0
g1360
sI1
g1361
sI2
g1362
sI3
g1363
sI4
g1364
sI5
g1365
sI6
g1366
sI7
g1367
sI8
g1368
sI9
g1369
sI10
g1370
sI11
g1371
sI12
g1372
sI13
g1373
sI14
g1374
sI15
g1375
sI16
g1376
sI17
g1377
sI18
g1378
sI19
g1379
sI20
g1380
sI21
g1381
sI22
g1382
sI23
g1383
sI24
g1384
sI25
g1385
sI26
g1386
sI27
g1387
sI28
g1388
sI29
g1389
sI30
g1390
sI31
g1391
sI32
g1392
sI33
g1393
sI34
g1394
sI35
g1395
sI36
g1396
sI37
g1397
ssg17
VSource
p1618
sbag1
(g24
g3
Ntp1619
Rp1620
(dp1621
g15
g999
sg29
(lp1622
sg19
(I1
I74
tp1623
sg32
I4
sg33
(dp1624
sg17
VAmount 1
p1625
sbag1
(g24
g3
Ntp1626
Rp1627
(dp1628
g15
g999
sg29
(lp1629
sg19
(I1
I76
tp1630
sg32
I4
sg33
(dp1631
sg17
VAmount 2
p1632
sbag1
(g24
g3
Ntp1633
Rp1634
(dp1635
g15
g999
sg29
(lp1636
sg19
(I1
I78
tp1637
sg32
I4
sg33
(dp1638
sg17
VAmount 3
p1639
sbag1
(g24
g3
Ntp1640
Rp1641
(dp1642
g15
g999
sg29
(lp1643
sg19
(I1
I73
tp1644
sg32
I1
sg33
(dp1645
I0
g1003
sI1
g1004
sI2
g1005
sI3
g1006
sI4
g1007
sI5
g1008
sI6
g1009
sI7
g1010
sI8
g1011
sI9
g1012
sI10
g1013
sI11
g1014
sI12
g1015
sI13
g1016
sI14
g1017
sI15
g1018
sI16
g1019
sI17
g1020
sI18
g1021
sI19
g1022
sI20
g1023
sI21
g1024
sI22
g1025
sI23
g1026
sI24
g1027
sI25
g1028
sI26
g1029
sI27
g1030
sI28
g1031
sI29
g1032
sI30
g1033
sI31
g1034
sI32
g1035
sI33
g1036
sI34
g1037
sI35
g1038
sI36
g1039
sI37
g1040
sI38
g1041
sI39
g1042
sI40
g1043
sI41
g1044
sI42
g1045
sI43
g1046
sI44
g1047
sI45
g1048
sI46
g1049
sI47
g1050
sI48
g1051
sI49
g1052
sI50
g1053
sI51
g1054
sI52
g1055
sI53
g1056
sI54
g1057
sI55
g1058
sI56
g1059
sI57
g1060
sI58
g1061
sI59
g1062
sI60
g1063
sI61
g1064
sI62
g1065
sI63
g1066
sI64
g1067
sI65
g1068
sI66
g1069
sI67
g1070
sI68
g1071
sI69
g1072
sI70
g1073
sI71
g1074
sI72
g1075
sI73
g1076
sI74
g1077
sI75
g1078
sI76
g1079
sI77
g1080
sI80
g1081
sI82
g1082
sI83
g1083
sI84
g1084
sI85
g1085
sI86
g1086
sI87
g1087
sI88
g1088
sI89
g1089
sI90
g1090
sI91
g1091
sI92
g1092
sI93
g1093
sI94
g1094
sI95
g1095
sI96
g1096
sI97
g1097
sI98
g1098
sI99
g1099
sI100
g1100
sI101
g1101
sI102
g1102
sI103
g1103
sI104
g1104
sI105
g1105
sI106
g1106
sI107
g1107
sI108
g1108
sI109
g1109
sI110
g1110
sI111
g1111
sI112
g1112
sI113
g1113
sI114
g1114
sI115
g1115
sI116
g1116
sI117
g1117
sI118
g1118
sI119
g1119
sI120
g1120
sI121
g1121
sI122
g1122
sI123
g1123
sI124
g1124
sI125
g1125
sI126
g1126
sI127
g1127
ssg17
VDest 1
p1646
sbag1
(g24
g3
Ntp1647
Rp1648
(dp1649
g15
g999
sg29
(lp1650
sg19
(I1
I75
tp1651
sg32
I1
sg33
(dp1652
I0
g1003
sI1
g1004
sI2
g1005
sI3
g1006
sI4
g1007
sI5
g1008
sI6
g1009
sI7
g1010
sI8
g1011
sI9
g1012
sI10
g1013
sI11
g1014
sI12
g1015
sI13
g1016
sI14
g1017
sI15
g1018
sI16
g1019
sI17
g1020
sI18
g1021
sI19
g1022
sI20
g1023
sI21
g1024
sI22
g1025
sI23
g1026
sI24
g1027
sI25
g1028
sI26
g1029
sI27
g1030
sI28
g1031
sI29
g1032
sI30
g1033
sI31
g1034
sI32
g1035
sI33
g1036
sI34
g1037
sI35
g1038
sI36
g1039
sI37
g1040
sI38
g1041
sI39
g1042
sI40
g1043
sI41
g1044
sI42
g1045
sI43
g1046
sI44
g1047
sI45
g1048
sI46
g1049
sI47
g1050
sI48
g1051
sI49
g1052
sI50
g1053
sI51
g1054
sI52
g1055
sI53
g1056
sI54
g1057
sI55
g1058
sI56
g1059
sI57
g1060
sI58
g1061
sI59
g1062
sI60
g1063
sI61
g1064
sI62
g1065
sI63
g1066
sI64
g1067
sI65
g1068
sI66
g1069
sI67
g1070
sI68
g1071
sI69
g1072
sI70
g1073
sI71
g1074
sI72
g1075
sI73
g1076
sI74
g1077
sI75
g1078
sI76
g1079
sI77
g1080
sI80
g1081
sI82
g1082
sI83
g1083
sI84
g1084
sI85
g1085
sI86
g1086
sI87
g1087
sI88
g1088
sI89
g1089
sI90
g1090
sI91
g1091
sI92
g1092
sI93
g1093
sI94
g1094
sI95
g1095
sI96
g1096
sI97
g1097
sI98
g1098
sI99
g1099
sI100
g1100
sI101
g1101
sI102
g1102
sI103
g1103
sI104
g1104
sI105
g1105
sI106
g1106
sI107
g1107
sI108
g1108
sI109
g1109
sI110
g1110
sI111
g1111
sI112
g1112
sI113
g1113
sI114
g1114
sI115
g1115
sI116
g1116
sI117
g1117
sI118
g1118
sI119
g1119
sI120
g1120
sI121
g1121
sI122
g1122
sI123
g1123
sI124
g1124
sI125
g1125
sI126
g1126
sI127
g1127
ssg17
VDest 2
p1653
sbag1
(g24
g3
Ntp1654
Rp1655
(dp1656
g15
g999
sg29
(lp1657
sg19
(I1
I77
tp1658
sg32
I1
sg33
(dp1659
I0
g1003
sI1
g1004
sI2
g1005
sI3
g1006
sI4
g1007
sI5
g1008
sI6
g1009
sI7
g1010
sI8
g1011
sI9
g1012
sI10
g1013
sI11
g1014
sI12
g1015
sI13
g1016
sI14
g1017
sI15
g1018
sI16
g1019
sI17
g1020
sI18
g1021
sI19
g1022
sI20
g1023
sI21
g1024
sI22
g1025
sI23
g1026
sI24
g1027
sI25
g1028
sI26
g1029
sI27
g1030
sI28
g1031
sI29
g1032
sI30
g1033
sI31
g1034
sI32
g1035
sI33
g1036
sI34
g1037
sI35
g1038
sI36
g1039
sI37
g1040
sI38
g1041
sI39
g1042
sI40
g1043
sI41
g1044
sI42
g1045
sI43
g1046
sI44
g1047
sI45
g1048
sI46
g1049
sI47
g1050
sI48
g1051
sI49
g1052
sI50
g1053
sI51
g1054
sI52
g1055
sI53
g1056
sI54
g1057
sI55
g1058
sI56
g1059
sI57
g1060
sI58
g1061
sI59
g1062
sI60
g1063
sI61
g1064
sI62
g1065
sI63
g1066
sI64
g1067
sI65
g1068
sI66
g1069
sI67
g1070
sI68
g1071
sI69
g1072
sI70
g1073
sI71
g1074
sI72
g1075
sI73
g1076
sI74
g1077
sI75
g1078
sI76
g1079
sI77
g1080
sI80
g1081
sI82
g1082
sI83
g1083
sI84
g1084
sI85
g1085
sI86
g1086
sI87
g1087
sI88
g1088
sI89
g1089
sI90
g1090
sI91
g1091
sI92
g1092
sI93
g1093
sI94
g1094
sI95
g1095
sI96
g1096
sI97
g1097
sI98
g1098
sI99
g1099
sI100
g1100
sI101
g1101
sI102
g1102
sI103
g1103
sI104
g1104
sI105
g1105
sI106
g1106
sI107
g1107
sI108
g1108
sI109
g1109
sI110
g1110
sI111
g1111
sI112
g1112
sI113
g1113
sI114
g1114
sI115
g1115
sI116
g1116
sI117
g1117
sI118
g1118
sI119
g1119
sI120
g1120
sI121
g1121
sI122
g1122
sI123
g1123
sI124
g1124
sI125
g1125
sI126
g1126
sI127
g1127
ssg17
VDest 3
p1660
sbasg33
(dp1661
sbag1
(g11
g3
Ntp1662
Rp1663
(dp1664
g15
g1349
sg17
VSlot 6
p1665
sg19
g1351
sg21
I0
sg22
(lp1666
g1
(g24
g3
Ntp1667
Rp1668
(dp1669
g15
g1356
sg29
(lp1670
sg19
(I1
I109
tp1671
sg32
I1
sg33
(dp1672
I0
g1360
sI1
g1361
sI2
g1362
sI3
g1363
sI4
g1364
sI5
g1365
sI6
g1366
sI7
g1367
sI8
g1368
sI9
g1369
sI10
g1370
sI11
g1371
sI12
g1372
sI13
g1373
sI14
g1374
sI15
g1375
sI16
g1376
sI17
g1377
sI18
g1378
sI19
g1379
sI20
g1380
sI21
g1381
sI22
g1382
sI23
g1383
sI24
g1384
sI25
g1385
sI26
g1386
sI27
g1387
sI28
g1388
sI29
g1389
sI30
g1390
sI31
g1391
sI32
g1392
sI33
g1393
sI34
g1394
sI35
g1395
sI36
g1396
sI37
g1397
ssg17
VSource
p1673
sbag1
(g24
g3
Ntp1674
Rp1675
(dp1676
g15
g999
sg29
(lp1677
sg19
(I1
I111
tp1678
sg32
I4
sg33
(dp1679
sg17
VAmount 1
p1680
sbag1
(g24
g3
Ntp1681
Rp1682
(dp1683
g15
g999
sg29
(lp1684
sg19
(I3
I105
tp1685
sg32
I4
sg33
(dp1686
sg17
VAmount 2
p1687
sbag1
(g24
g3
Ntp1688
Rp1689
(dp1690
g15
g999
sg29
(lp1691
sg19
(I3
I107
tp1692
sg32
I4
sg33
(dp1693
sg17
VAmount 3
p1694
sbag1
(g24
g3
Ntp1695
Rp1696
(dp1697
g15
g999
sg29
(lp1698
sg19
(I1
I110
tp1699
sg32
I1
sg33
(dp1700
I0
g1003
sI1
g1004
sI2
g1005
sI3
g1006
sI4
g1007
sI5
g1008
sI6
g1009
sI7
g1010
sI8
g1011
sI9
g1012
sI10
g1013
sI11
g1014
sI12
g1015
sI13
g1016
sI14
g1017
sI15
g1018
sI16
g1019
sI17
g1020
sI18
g1021
sI19
g1022
sI20
g1023
sI21
g1024
sI22
g1025
sI23
g1026
sI24
g1027
sI25
g1028
sI26
g1029
sI27
g1030
sI28
g1031
sI29
g1032
sI30
g1033
sI31
g1034
sI32
g1035
sI33
g1036
sI34
g1037
sI35
g1038
sI36
g1039
sI37
g1040
sI38
g1041
sI39
g1042
sI40
g1043
sI41
g1044
sI42
g1045
sI43
g1046
sI44
g1047
sI45
g1048
sI46
g1049
sI47
g1050
sI48
g1051
sI49
g1052
sI50
g1053
sI51
g1054
sI52
g1055
sI53
g1056
sI54
g1057
sI55
g1058
sI56
g1059
sI57
g1060
sI58
g1061
sI59
g1062
sI60
g1063
sI61
g1064
sI62
g1065
sI63
g1066
sI64
g1067
sI65
g1068
sI66
g1069
sI67
g1070
sI68
g1071
sI69
g1072
sI70
g1073
sI71
g1074
sI72
g1075
sI73
g1076
sI74
g1077
sI75
g1078
sI76
g1079
sI77
g1080
sI80
g1081
sI82
g1082
sI83
g1083
sI84
g1084
sI85
g1085
sI86
g1086
sI87
g1087
sI88
g1088
sI89
g1089
sI90
g1090
sI91
g1091
sI92
g1092
sI93
g1093
sI94
g1094
sI95
g1095
sI96
g1096
sI97
g1097
sI98
g1098
sI99
g1099
sI100
g1100
sI101
g1101
sI102
g1102
sI103
g1103
sI104
g1104
sI105
g1105
sI106
g1106
sI107
g1107
sI108
g1108
sI109
g1109
sI110
g1110
sI111
g1111
sI112
g1112
sI113
g1113
sI114
g1114
sI115
g1115
sI116
g1116
sI117
g1117
sI118
g1118
sI119
g1119
sI120
g1120
sI121
g1121
sI122
g1122
sI123
g1123
sI124
g1124
sI125
g1125
sI126
g1126
sI127
g1127
ssg17
VDest 1
p1701
sbag1
(g24
g3
Ntp1702
Rp1703
(dp1704
g15
g999
sg29
(lp1705
sg19
(I3
I104
tp1706
sg32
I1
sg33
(dp1707
I0
g1003
sI1
g1004
sI2
g1005
sI3
g1006
sI4
g1007
sI5
g1008
sI6
g1009
sI7
g1010
sI8
g1011
sI9
g1012
sI10
g1013
sI11
g1014
sI12
g1015
sI13
g1016
sI14
g1017
sI15
g1018
sI16
g1019
sI17
g1020
sI18
g1021
sI19
g1022
sI20
g1023
sI21
g1024
sI22
g1025
sI23
g1026
sI24
g1027
sI25
g1028
sI26
g1029
sI27
g1030
sI28
g1031
sI29
g1032
sI30
g1033
sI31
g1034
sI32
g1035
sI33
g1036
sI34
g1037
sI35
g1038
sI36
g1039
sI37
g1040
sI38
g1041
sI39
g1042
sI40
g1043
sI41
g1044
sI42
g1045
sI43
g1046
sI44
g1047
sI45
g1048
sI46
g1049
sI47
g1050
sI48
g1051
sI49
g1052
sI50
g1053
sI51
g1054
sI52
g1055
sI53
g1056
sI54
g1057
sI55
g1058
sI56
g1059
sI57
g1060
sI58
g1061
sI59
g1062
sI60
g1063
sI61
g1064
sI62
g1065
sI63
g1066
sI64
g1067
sI65
g1068
sI66
g1069
sI67
g1070
sI68
g1071
sI69
g1072
sI70
g1073
sI71
g1074
sI72
g1075
sI73
g1076
sI74
g1077
sI75
g1078
sI76
g1079
sI77
g1080
sI80
g1081
sI82
g1082
sI83
g1083
sI84
g1084
sI85
g1085
sI86
g1086
sI87
g1087
sI88
g1088
sI89
g1089
sI90
g1090
sI91
g1091
sI92
g1092
sI93
g1093
sI94
g1094
sI95
g1095
sI96
g1096
sI97
g1097
sI98
g1098
sI99
g1099
sI100
g1100
sI101
g1101
sI102
g1102
sI103
g1103
sI104
g1104
sI105
g1105
sI106
g1106
sI107
g1107
sI108
g1108
sI109
g1109
sI110
g1110
sI111
g1111
sI112
g1112
sI113
g1113
sI114
g1114
sI115
g1115
sI116
g1116
sI117
g1117
sI118
g1118
sI119
g1119
sI120
g1120
sI121
g1121
sI122
g1122
sI123
g1123
sI124
g1124
sI125
g1125
sI126
g1126
sI127
g1127
ssg17
VDest 2
p1708
sbag1
(g24
g3
Ntp1709
Rp1710
(dp1711
g15
g999
sg29
(lp1712
sg19
(I3
I106
tp1713
sg32
I1
sg33
(dp1714
I0
g1003
sI1
g1004
sI2
g1005
sI3
g1006
sI4
g1007
sI5
g1008
sI6
g1009
sI7
g1010
sI8
g1011
sI9
g1012
sI10
g1013
sI11
g1014
sI12
g1015
sI13
g1016
sI14
g1017
sI15
g1018
sI16
g1019
sI17
g1020
sI18
g1021
sI19
g1022
sI20
g1023
sI21
g1024
sI22
g1025
sI23
g1026
sI24
g1027
sI25
g1028
sI26
g1029
sI27
g1030
sI28
g1031
sI29
g1032
sI30
g1033
sI31
g1034
sI32
g1035
sI33
g1036
sI34
g1037
sI35
g1038
sI36
g1039
sI37
g1040
sI38
g1041
sI39
g1042
sI40
g1043
sI41
g1044
sI42
g1045
sI43
g1046
sI44
g1047
sI45
g1048
sI46
g1049
sI47
g1050
sI48
g1051
sI49
g1052
sI50
g1053
sI51
g1054
sI52
g1055
sI53
g1056
sI54
g1057
sI55
g1058
sI56
g1059
sI57
g1060
sI58
g1061
sI59
g1062
sI60
g1063
sI61
g1064
sI62
g1065
sI63
g1066
sI64
g1067
sI65
g1068
sI66
g1069
sI67
g1070
sI68
g1071
sI69
g1072
sI70
g1073
sI71
g1074
sI72
g1075
sI73
g1076
sI74
g1077
sI75
g1078
sI76
g1079
sI77
g1080
sI80
g1081
sI82
g1082
sI83
g1083
sI84
g1084
sI85
g1085
sI86
g1086
sI87
g1087
sI88
g1088
sI89
g1089
sI90
g1090
sI91
g1091
sI92
g1092
sI93
g1093
sI94
g1094
sI95
g1095
sI96
g1096
sI97
g1097
sI98
g1098
sI99
g1099
sI100
g1100
sI101
g1101
sI102
g1102
sI103
g1103
sI104
g1104
sI105
g1105
sI106
g1106
sI107
g1107
sI108
g1108
sI109
g1109
sI110
g1110
sI111
g1111
sI112
g1112
sI113
g1113
sI114
g1114
sI115
g1115
sI116
g1116
sI117
g1117
sI118
g1118
sI119
g1119
sI120
g1120
sI121
g1121
sI122
g1122
sI123
g1123
sI124
g1124
sI125
g1125
sI126
g1126
sI127
g1127
ssg17
VDest 3
p1715
sbasg33
(dp1716
sbasg17
V.Matrix
p1717
sg559
I3
sba.