(lp0
ccopy_reg
_reconstructor
p1
(cvxcctrl
PageDef
p2
c__builtin__
object
p3
Ntp4
Rp5
(dp6
S'collength'
p7
(dp8
I0
I2
sI1
I2
sI2
I2
ssS'blocks'
p9
(lp10
g1
(cvxcctrl
BlockDef
p11
g3
Ntp12
Rp13
(dp14
S'valrange'
p15
(I0
I7
tp16
sS'name'
p17
VOsc 1
p18
sS'cid'
p19
(I3
I30
tp20
sS'modetype'
p21
I1
sS'ctrldefs'
p22
(lp23
g1
(cvxcctrl
CtrlDef
p24
g3
Ntp25
Rp26
(dp27
g15
(I0
I7
tp28
sS'modes'
p29
(lp30
I0
aI1
aI2
aI3
aI4
aI5
aI6
aI7
asg19
(I3
I30
tp31
sS'ctype'
p32
I1
sS'valinfo'
p33
(dp34
I0
VClassic
p35
sI1
VHyperSaw
p36
sI2
VWavetable
p37
sI3
VWave PWM
p38
sI4
VGrain Simple
p39
sI5
VGrain Complex
p40
sI6
VFormant Simple
p41
sI7
VFormant Complex
p42
ssg17
VMode
p43
sbag1
(g24
g3
Ntp44
Rp45
(dp46
g15
(I0
I127
tp47
sg29
(lp48
I0
asg19
(I0
I17
tp49
sg32
I2
sg33
(dp50
I0
VWave
p51
sI1
VWave>Saw
p52
sI2
VSaw
p53
sI3
VSaw>Pulse
p54
sI4
VPulse
p55
ssg17
VShape
p56
sbag1
(g24
g3
Ntp57
Rp58
(dp59
g15
(I0
I127
tp60
sg29
(lp61
I1
asg19
(I0
I17
tp62
sg32
I8
sg33
(dp63
I0
V1 0
p64
sI1
V1.6 17
p65
sI2
V2 32
p66
sI3
V3 64
p67
sI4
V4 80
p68
sI5
V5 96
p69
sI6
V6 104
p70
sI7
V7 112
p71
sI8
V8 120
p72
sI9
V9 127
p73
ssg17
VDensity
p74
sbag1
(g24
g3
Ntp75
Rp76
(dp77
g15
(I0
I127
tp78
sg29
(lp79
I2
aI3
aI4
aI5
aI6
aI7
asg19
(I0
I17
tp80
sg32
I0
sg33
(dp81
sg17
VIndex
p82
sbag1
(g24
g3
Ntp83
Rp84
(dp85
g15
(I2
I63
tp86
sg29
(lp87
I0
asg19
(I0
I19
tp88
sg32
I12
sg33
(dp89
I0
VSine
p90
sI1
VTriangle
p91
sI2
VWave 3
p92
ssg17
VWave Sel
p93
sbag1
(g24
g3
Ntp94
Rp95
(dp96
g15
(I0
I99
tp97
sg29
(lp98
I2
aI3
aI4
aI5
aI6
aI7
asg19
(I0
I19
tp99
sg32
I1
sg33
(dp100
I0
VSine
p101
sI1
VHarmncSweep
p102
sI2
VGlass Sweep
p103
sI3
VDraw Bars
p104
sI4
VCluster
p105
sI5
VInsine Out
p106
sI6
VLanding
p107
sI7
VLiquid Metal
p108
sI8
VOpposition
p109
sI9
VOvertunes 1
p110
sI10
VOvertunes 2
p111
sI11
VScale Trix
p112
sI12
VSine Rider
p113
sI13
VSqr Series
p114
sI14
VUpsine Down
p115
sI15
VThumbs Up
p116
sI16
VWaterphone
p117
sI17
VE-Chime
p118
sI18
VTinkabell
p119
sI19
VBellfizz
p120
sI20
VBellentine
p121
sI21
VRobot Wars
p122
sI22
VAlternator
p123
sI23
VFinger Bass
p124
sI24
VFizzybar
p125
sI25
VFlutes
p126
sI26
VHP Love
p127
sI27
VMajestix
p128
sI28
VHotch Potch
p129
sI29
VResynater
p130
sI30
VSmooth Rough
p131
sI31
VSawsalito
p132
sI32
VBells 1
p133
sI33
VBells 2
p134
sI34
VSportReport
p135
sI35
VMetal Guru
p136
sI36
VBat Cave
p137
sI37
VAcetate
p138
sI38
VBuzzbizz
p139
sI39
VBuzzpartout
p140
sI40
VVanish
p141
sI41
VOverbones
p142
sI42
VPulsechecker
p143
sI43
VStratosfear
p144
sI44
VSooty Sweep
p145
sI45
VThroaty
p146
sI46
VDidgitalis
p147
sI47
VEvil
p148
sI48
VChords
p149
sI49
VFM Grit
p150
sI50
VBellsarnie
p151
sI51
VOctavius
p152
sI52
VEat Pulse
p153
sI53
VSinzin
p154
sI54
VSine System
p155
sI55
VClip Sweep
p156
sI56
VRoughage
p157
sI57
VWaving
p158
sI58
VPling Saw
p159
sI59
VE-Peas
p160
sI60
VBump Sweep
p161
sI61
VFilter Sqr
p162
sI62
VFourmant
p163
sI63
VFormantera
p164
sI64
VSundial 1
p165
sI65
VSundial 2
p166
sI66
VSundial 3
p167
sI67
VClipdial 1
p168
sI68
VClipdial 2
p169
sI69
VVoxonix
p170
sI70
VSolenoid
p171
sI71
VKlingKlang
p172
sI72
VViolator
p173
sI73
VPotassium
p174
sI74
VPile Up
p175
sI75
VTincanali
p176
sI76
VSniper
p177
sI77
VSqueezy
p178
sI78
VDecomposer
p179
sI79
VMorfants
p180
sI80
VPingvox
p181
sI81
VAdenoids
p182
sI82
VNasal
p183
sI83
VPartialism
p184
sI84
VTableDance
p185
sI85
VCascade
p186
sI86
VPrismism
p187
sI87
VFriction
p188
sI88
VRobotix
p189
sI89
VWhizzfizz
p190
sI90
VSpangly
p191
sI91
VFluxbin
p192
sI92
VFiboglide
p193
sI93
VFibonice
p194
sI94
VFibonasty
p195
sI95
VPenetrator
p196
sI96
VBlinder
p197
sI97
VElement 5
p198
sI98
VBad Signs
p199
sI99
VDomina7rix
p200
ssg17
VWaveTable
p201
sbag1
(g24
g3
Ntp202
Rp203
(dp204
g15
(I0
I127
tp205
sg29
(lp206
I0
asg19
(I0
I18
tp207
sg32
I7
sg33
(dp208
I0
V50
p209
sI1
V100
p210
ssg17
VPulse Width
p211
sbag1
(g24
g3
Ntp212
Rp213
(dp214
g15
g205
sg29
(lp215
I3
asg19
g207
sg32
I0
sg33
(dp216
I0
g209
sI1
g210
ssg17
VPulse Width
p217
sbag1
(g24
g3
Ntp218
Rp219
(dp220
g15
(I0
I127
tp221
sg29
(lp222
I1
asg19
(I0
I18
tp223
sg32
I0
sg33
(dp224
sg17
VLocal Detune
p225
sbag1
(g24
g3
Ntp226
Rp227
(dp228
g15
(I0
I127
tp229
sg29
(lp230
I4
aI5
aI6
aI7
asg19
(I3
I42
tp231
sg32
I4
sg33
(dp232
sg17
VF-Shift
p233
sbag1
(g24
g3
Ntp234
Rp235
(dp236
g15
g229
sg29
(lp237
I5
aI7
asg19
(I3
I37
tp238
sg32
I0
sg33
(dp239
sg17
VF-Spread
p240
sbag1
(g24
g3
Ntp241
Rp242
(dp243
g15
g229
sg29
(lp244
I2
aI3
aI4
aI5
aI6
aI7
asg19
(I3
I44
tp245
sg32
I0
sg33
(dp246
sg17
VInterpolation
p247
sbag1
(g24
g3
Ntp248
Rp249
(dp250
g15
g229
sg29
(lp251
I3
aI5
aI7
asg19
(I3
I43
tp252
sg32
I0
sg33
(dp253
sg17
VLocal Detune
p254
sbag1
(g24
g3
Ntp255
Rp256
(dp257
g15
(I0
I127
tp258
sg29
(lp259
sg19
(I0
I17
tp260
sg32
I11
sg33
(dp261
sg17
V----
p262
sbag1
(g24
g3
Ntp263
Rp264
(dp265
g15
(I16
I112
tp266
sg29
(lp267
I0
aI1
aI2
aI3
aI4
aI5
aI6
aI7
asg19
(I0
I20
tp268
sg32
I4
sg33
(dp269
sg17
VSemitone
p270
sbag1
(g24
g3
Ntp271
Rp272
(dp273
g15
(I0
I127
tp274
sg29
(lp275
I0
aI1
aI2
aI3
aI4
aI5
aI6
aI7
asg19
(I0
I21
tp276
sg32
I6
sg33
(dp277
I0
VNorm 32
p278
ssg17
VKey Follow
p279
sbasg33
(dp280
sbag1
(g11
g3
Ntp281
Rp282
(dp283
g15
(I0
I0
tp284
sg17
VCommon
p285
sg19
(I0
I17
tp286
sg21
I0
sg22
(lp287
g1
(g24
g3
Ntp288
Rp289
(dp290
g15
(I0
I127
tp291
sg29
(lp292
sg19
(I1
I35
tp293
sg32
I13
sg33
(dp294
I0
VOff 0
p295
ssg17
VPhase Init
p296
sbag1
(g24
g3
Ntp297
Rp298
(dp299
g15
(I0
I5
tp300
sg29
(lp301
sg19
(I0
I94
tp302
sg32
I1
sg33
(dp303
I0
VPoly
p304
sI1
VMono 1
p305
sI2
VMono 2
p306
sI3
VMono 3
p307
sI4
VMono 4
p308
sI5
VHold
p309
ssg17
VKey Mode
p310
sbag1
(g24
g3
Ntp311
Rp312
(dp313
g15
g291
sg29
(lp314
sg19
(I0
I5
tp315
sg32
I0
sg33
(dp316
sg17
VPortamento
p317
sbag1
(g24
g3
Ntp318
Rp319
(dp320
g15
g291
sg29
(lp321
sg19
(I1
I36
tp322
sg32
I0
sg33
(dp323
sg17
VPunch
p324
sbag1
(g24
g3
Ntp325
Rp326
(dp327
g15
(I0
I127
tp328
sg29
(lp329
sg19
(I0
I17
tp330
sg32
I11
sg33
(dp331
sg17
V--
p332
sbag1
(g24
g3
Ntp333
Rp334
(dp335
g15
g328
sg29
(lp336
sg19
(I0
I29
tp337
sg32
I5
sg33
(dp338
sg17
VFiltEnv>O2Pitch
p339
sbag1
(g24
g3
Ntp340
Rp341
(dp342
g15
g328
sg29
(lp343
sg19
(I0
I30
tp344
sg32
I5
sg33
(dp345
sg17
VFiltEnv>FM/Sync
p346
sbasg33
(dp347
sbag1
(g11
g3
Ntp348
Rp349
(dp350
g15
g16
sg17
VOsc 2
p351
sg19
(I3
I35
tp352
sg21
I1
sg22
(lp353
g1
(g24
g3
Ntp354
Rp355
(dp356
g15
g28
sg29
(lp357
I0
aI1
aI2
aI3
aI4
aI5
aI6
aI7
asg19
(I3
I35
tp358
sg32
I1
sg33
(dp359
I0
g35
sI1
g36
sI2
g37
sI3
g38
sI4
VGrain Simple
p360
sI5
VGrain Complex
p361
sI6
VFormant Simple
p362
sI7
VFormant Complex
p363
ssg17
VMode
p364
sbag1
(g24
g3
Ntp365
Rp366
(dp367
g15
g47
sg29
(lp368
I0
asg19
(I0
I22
tp369
sg32
I2
sg33
(dp370
I0
g51
sI1
g52
sI2
g53
sI3
g54
sI4
g55
ssg17
VShape
p371
sbag1
(g24
g3
Ntp372
Rp373
(dp374
g15
g60
sg29
(lp375
I1
asg19
(I0
I22
tp376
sg32
I8
sg33
(dp377
I0
g64
sI1
g65
sI2
g66
sI3
g67
sI4
g68
sI5
g69
sI6
g70
sI7
g71
sI8
g72
sI9
g73
ssg17
VDensity
p378
sbag1
(g24
g3
Ntp379
Rp380
(dp381
g15
g78
sg29
(lp382
I2
aI3
aI4
aI5
aI6
aI7
asg19
(I0
I22
tp383
sg32
I0
sg33
(dp384
sg17
VIndex
p385
sbag1
(g24
g3
Ntp386
Rp387
(dp388
g15
g86
sg29
(lp389
I0
asg19
(I0
I24
tp390
sg32
I12
sg33
(dp391
I0
g90
sI1
g91
sI2
g92
ssg17
VWave Sel
p392
sbag1
(g24
g3
Ntp393
Rp394
(dp395
g15
g97
sg29
(lp396
I2
aI3
aI4
aI5
aI6
aI7
asg19
(I0
I24
tp397
sg32
I1
sg33
(dp398
I0
g101
sI1
g102
sI2
g103
sI3
g104
sI4
g105
sI5
g106
sI6
g107
sI7
g108
sI8
g109
sI9
g110
sI10
g111
sI11
g112
sI12
g113
sI13
g114
sI14
g115
sI15
g116
sI16
g117
sI17
g118
sI18
g119
sI19
g120
sI20
g121
sI21
g122
sI22
g123
sI23
g124
sI24
g125
sI25
g126
sI26
g127
sI27
g128
sI28
g129
sI29
g130
sI30
g131
sI31
g132
sI32
g133
sI33
g134
sI34
g135
sI35
g136
sI36
g137
sI37
g138
sI38
g139
sI39
g140
sI40
g141
sI41
g142
sI42
g143
sI43
g144
sI44
g145
sI45
g146
sI46
g147
sI47
g148
sI48
g149
sI49
g150
sI50
g151
sI51
g152
sI52
g153
sI53
g154
sI54
g155
sI55
g156
sI56
g157
sI57
g158
sI58
g159
sI59
g160
sI60
g161
sI61
g162
sI62
g163
sI63
g164
sI64
g165
sI65
g166
sI66
g167
sI67
g168
sI68
g169
sI69
g170
sI70
g171
sI71
g172
sI72
g173
sI73
g174
sI74
g175
sI75
g176
sI76
g177
sI77
g178
sI78
g179
sI79
g180
sI80
g181
sI81
g182
sI82
g183
sI83
g184
sI84
g185
sI85
g186
sI86
g187
sI87
g188
sI88
g189
sI89
g190
sI90
g191
sI91
g192
sI92
g193
sI93
g194
sI94
g195
sI95
g196
sI96
g197
sI97
g198
sI98
g199
sI99
g200
ssg17
VWaveTable
p399
sbag1
(g24
g3
Ntp400
Rp401
(dp402
g15
g205
sg29
(lp403
I0
asg19
(I0
I23
tp404
sg32
I7
sg33
(dp405
I0
g209
sI1
g210
ssg17
VPulse Width
p406
sbag1
(g24
g3
Ntp407
Rp408
(dp409
g15
g205
sg29
(lp410
I3
asg19
(I0
I23
tp411
sg32
I0
sg33
(dp412
I0
g209
sI1
g210
ssg17
VPulse Width
p413
sbag1
(g24
g3
Ntp414
Rp415
(dp416
g15
g221
sg29
(lp417
I1
asg19
(I0
I23
tp418
sg32
I0
sg33
(dp419
sg17
VLocal Detune
p420
sbag1
(g24
g3
Ntp421
Rp422
(dp423
g15
g229
sg29
(lp424
I4
aI5
aI6
aI7
asg19
(I3
I62
tp425
sg32
I4
sg33
(dp426
sg17
VF-Shift
p427
sbag1
(g24
g3
Ntp428
Rp429
(dp430
g15
g229
sg29
(lp431
I5
aI7
asg19
(I3
I57
tp432
sg32
I0
sg33
(dp433
sg17
VF-Spread
p434
sbag1
(g24
g3
Ntp435
Rp436
(dp437
g15
g229
sg29
(lp438
I2
aI3
aI4
aI5
aI6
aI7
asg19
(I3
I64
tp439
sg32
I0
sg33
(dp440
sg17
VInterpolation
p441
sbag1
(g24
g3
Ntp442
Rp443
(dp444
g15
g229
sg29
(lp445
I3
aI5
aI7
asg19
(I3
I63
tp446
sg32
I0
sg33
(dp447
sg17
VLocal Detune
p448
sbag1
(g24
g3
Ntp449
Rp450
(dp451
g15
(I0
I127
tp452
sg29
(lp453
sg19
(I0
I17
tp454
sg32
I11
sg33
(dp455
sg17
V--
p456
sbag1
(g24
g3
Ntp457
Rp458
(dp459
g15
g266
sg29
(lp460
I0
aI1
aI2
aI3
aI4
aI5
aI6
aI7
asg19
(I0
I25
tp461
sg32
I4
sg33
(dp462
sg17
VSemitone
p463
sbag1
(g24
g3
Ntp464
Rp465
(dp466
g15
g274
sg29
(lp467
I0
aI1
aI2
aI3
aI4
aI5
aI6
aI7
asg19
(I0
I31
tp468
sg32
I6
sg33
(dp469
I0
g278
ssg17
VKey Follow
p470
sbag1
(g24
g3
Ntp471
Rp472
(dp473
g15
g229
sg29
(lp474
I0
aI1
aI2
aI3
aI4
aI5
aI6
aI7
asg19
(I0
I26
tp475
sg32
I0
sg33
(dp476
sg17
VDetune
p477
sbasg33
(dp478
sbag1
(g11
g3
Ntp479
Rp480
(dp481
g15
(I0
I7
tp482
sg17
VFM / Sync
p483
sg19
(I3
I35
tp484
sg21
I3
sg22
(lp485
g1
(g24
g3
Ntp486
Rp487
(dp488
g15
(I0
I6
tp489
sg29
(lp490
I0
asg19
(I1
I34
tp491
sg32
I1
sg33
(dp492
I0
VPos Triangle
p493
sI1
VTriangle
p494
sI2
VWave
p495
sI3
VNoise
p496
sI4
VIn L
p497
sI5
VIn L+R
p498
sI6
VIn R
p499
ssg17
VFM Mode
p500
sbag1
(g24
g3
Ntp501
Rp502
(dp503
g15
(I0
I1
tp504
sg29
(lp505
I2
aI3
aI4
aI5
aI6
aI7
asg19
g491
sg32
I1
sg33
(dp506
I0
VFreqMod
p507
sI1
VPhaseMod
p508
sI2
g495
sI3
g496
sI4
g497
sI5
g498
sI6
g499
ssg17
VFM Mode
p509
sbag1
(g24
g3
Ntp510
Rp511
(dp512
g15
g229
sg29
(lp513
I0
asg19
(I0
I27
tp514
sg32
I7
sg33
(dp515
I0
V0
p516
sI1
V100
p517
ssg17
VFM Amount
p518
sbag1
(g24
g3
Ntp519
Rp520
(dp521
g15
g229
sg29
(lp522
I2
aI3
aI4
aI5
aI6
aI7
asg19
g514
sg32
I0
sg33
(dp523
I0
g516
sI1
g517
ssg17
VFM Amount
p524
sbag1
(g24
g3
Ntp525
Rp526
(dp527
g15
g328
sg29
(lp528
sg19
g330
sg32
I11
sg33
(dp529
sg17
V--
p530
sbag1
(g24
g3
Ntp531
Rp532
(dp533
g15
(I0
I1
tp534
sg29
(lp535
I0
aI1
aI8
asg19
(I0
I28
tp536
sg32
I9
sg33
(dp537
I0
VOff
p538
sI1
VOn
p539
ssg17
VSync
p540
sbag1
(g24
g3
Ntp541
Rp542
(dp543
g15
g229
sg29
(lp544
I1
aI8
asg19
(I0
I27
tp545
sg32
I0
sg33
(dp546
sg17
VSync Freq
p547
sbag1
(g24
g3
Ntp548
Rp549
(dp550
g15
(I0
I127
tp551
sg29
(lp552
sg19
(I0
I17
tp553
sg32
I11
sg33
(dp554
sg17
V--
p555
sbasg33
(dp556
I0
V6E 30 1 1
p557
ssbag1
(g11
g3
Ntp558
Rp559
(dp560
g15
(I0
I7
tp561
sg17
VSub Oscillator
p562
sg19
(I3
I35
tp563
sg21
I3
sg22
(lp564
g1
(g24
g3
Ntp565
Rp566
(dp567
g15
(I0
I127
tp568
sg29
(lp569
I1
aI8
aI9
asg19
(I0
I34
tp570
sg32
I0
sg33
(dp571
sg17
VVolume
p572
sbag1
(g24
g3
Ntp573
Rp574
(dp575
g15
(I0
I1
tp576
sg29
(lp577
I8
asg19
(I0
I35
tp578
sg32
I1
sg33
(dp579
I0
VSquare
p580
sI1
VTriangle
p581
ssg17
VShape
p582
sbag1
(g24
g3
Ntp583
Rp584
(dp585
g15
g551
sg29
(lp586
sg19
g553
sg32
I11
sg33
(dp587
sg17
V--
p588
sbasg33
(dp589
I0
V6E 30 0 1
p590
ssbag1
(g11
g3
Ntp591
Rp592
(dp593
g15
(I2
I67
tp594
sg17
VOsc 3
p595
sg19
(I1
I41
tp596
sg21
I2
sg22
(lp597
g1
(g24
g3
Ntp598
Rp599
(dp600
g15
(I6
I67
tp601
sg29
(lp602
I0
aI1
aI2
asg19
(I1
I41
tp603
sg32
I12
sg33
(dp604
I0
VOff
p605
sI1
VSlave
p606
sI2
VSaw
p607
sI3
VPulse
p608
sI4
VSine
p609
sI5
VTriangle
p610
sI6
VWave 3
p611
ssg17
VMode/Wave
p612
sbag1
(g24
g3
Ntp613
Rp614
(dp615
g15
(I0
I127
tp616
sg29
(lp617
I2
asg19
(I1
I42
tp618
sg32
I0
sg33
(dp619
sg17
VVolume
p620
sbag1
(g24
g3
Ntp621
Rp622
(dp623
g15
(I16
I112
tp624
sg29
(lp625
I2
asg19
(I1
I43
tp626
sg32
I4
sg33
(dp627
sg17
VSemitone
p628
sbag1
(g24
g3
Ntp629
Rp630
(dp631
g15
g616
sg29
(lp632
I2
asg19
(I1
I44
tp633
sg32
I0
sg33
(dp634
sg17
VDetune
p635
sbag1
(g24
g3
Ntp636
Rp637
(dp638
g15
(I0
I127
tp639
sg29
(lp640
sg19
(I0
I17
tp641
sg32
I11
sg33
(dp642
sg17
V--
p643
sbasg33
(dp644
sbag1
(g11
g3
Ntp645
Rp646
(dp647
g15
g284
sg17
VMix
p648
sg19
g286
sg21
I0
sg22
(lp649
g1
(g24
g3
Ntp650
Rp651
(dp652
g15
g551
sg29
(lp653
sg19
(I0
I33
tp654
sg32
I5
sg33
(dp655
sg17
VOsc1/2 Bal
p656
sbag1
(g24
g3
Ntp657
Rp658
(dp659
g15
g551
sg29
(lp660
sg19
(I0
I36
tp661
sg32
I4
sg33
(dp662
sg17
VOsc Vol/Sat
p663
sbasg33
(dp664
sbag1
(g11
g3
Ntp665
Rp666
(dp667
g15
(I0
I3
tp668
sg17
VRing Mod
p669
sg19
(I0
I53
tp670
sg21
I1
sg22
(lp671
g1
(g24
g3
Ntp672
Rp673
(dp674
g15
g551
sg29
(lp675
I0
aI1
aI2
asg19
(I0
I50
tp676
sg32
I13
sg33
(dp677
I0
VOff 0
p678
ssg17
VVolume
p679
sbasg33
(dp680
sbag1
(g11
g3
Ntp681
Rp682
(dp683
g15
g284
sg17
VNoise
p684
sg19
g286
sg21
I0
sg22
(lp685
g1
(g24
g3
Ntp686
Rp687
(dp688
g15
g551
sg29
(lp689
sg19
(I0
I37
tp690
sg32
I13
sg33
(dp691
I0
VOff 0
p692
ssg17
VVolume
p693
sbag1
(g24
g3
Ntp694
Rp695
(dp696
g15
g551
sg29
(lp697
sg19
(I0
I39
tp698
sg32
I4
sg33
(dp699
sg17
VColor
p700
sbasg33
(dp701
sbasg17
VOsc
p702
sS'cols'
p703
I2
sbag1
(g2
g3
Ntp704
Rp705
(dp706
g7
(dp707
I0
I2
sI1
I2
ssg9
(lp708
g1
(g11
g3
Ntp709
Rp710
(dp711
g15
(I0
I0
tp712
sg17
VFilter 1
p713
sg19
(I0
I17
tp714
sg21
I0
sg22
(lp715
g1
(g24
g3
Ntp716
Rp717
(dp718
g15
(I0
I7
tp719
sg29
(lp720
sg19
(I0
I51
tp721
sg32
I1
sg33
(dp722
I0
VLow Pass
p723
sI1
VHigh Pass
p724
sI2
VBand Pass
p725
sI3
VBand Stop
p726
sI4
VAnalog 1 Pole
p727
sI5
VAnalog 2 Pole
p728
sI6
VAnalog 3 Pole
p729
sI7
VAnalog 4 Pole
p730
ssg17
VMode
p731
sbag1
(g24
g3
Ntp732
Rp733
(dp734
g15
g568
sg29
(lp735
sg19
(I0
I40
tp736
sg32
I0
sg33
(dp737
sg17
VCutoff
p738
sbag1
(g24
g3
Ntp739
Rp740
(dp741
g15
g568
sg29
(lp742
sg19
(I0
I42
tp743
sg32
I0
sg33
(dp744
sg17
VResonance
p745
sbag1
(g24
g3
Ntp746
Rp747
(dp748
g15
g568
sg29
(lp749
sg19
(I0
I44
tp750
sg32
I7
sg33
(dp751
sg17
VEnv Amount
p752
sbag1
(g24
g3
Ntp753
Rp754
(dp755
g15
g568
sg29
(lp756
sg19
(I0
I46
tp757
sg32
I4
sg33
(dp758
sg17
VKey Follow
p759
sbag1
(g24
g3
Ntp760
Rp761
(dp762
g15
(I0
I1
tp763
sg29
(lp764
sg19
(I1
I30
tp765
sg32
I1
sg33
(dp766
I0
VNegative
p767
sI1
VPositive
p768
ssg17
VEnv Polarity
p769
sbasg33
(dp770
sbag1
(g11
g3
Ntp771
Rp772
(dp773
g15
(I0
I1
tp774
sg17
VFilter 2
p775
sg19
(I1
I32
tp776
sg21
I1
sg22
(lp777
g1
(g24
g3
Ntp778
Rp779
(dp780
g15
(I0
I3
tp781
sg29
(lp782
I0
aI1
asg19
(I0
I52
tp783
sg32
I1
sg33
(dp784
I0
g723
sI1
g724
sI2
g725
sI3
g726
sI4
g727
sI5
g728
sI6
g729
sI7
g730
ssg17
VMode
p785
sbag1
(g24
g3
Ntp786
Rp787
(dp788
g15
g568
sg29
(lp789
I0
asg19
(I0
I41
tp790
sg32
I0
sg33
(dp791
sg17
VCutoff
p792
sbag1
(g24
g3
Ntp793
Rp794
(dp795
g15
g568
sg29
(lp796
I1
asg19
(I0
I41
tp797
sg32
I4
sg33
(dp798
sg17
VOffset
p799
sbag1
(g24
g3
Ntp800
Rp801
(dp802
g15
g568
sg29
(lp803
I0
aI1
asg19
(I0
I43
tp804
sg32
I0
sg33
(dp805
sg17
VResonance
p806
sbag1
(g24
g3
Ntp807
Rp808
(dp809
g15
g568
sg29
(lp810
I0
aI1
asg19
(I0
I45
tp811
sg32
I7
sg33
(dp812
sg17
VEnv Amount
p813
sbag1
(g24
g3
Ntp814
Rp815
(dp816
g15
g568
sg29
(lp817
I0
aI1
asg19
(I0
I47
tp818
sg32
I4
sg33
(dp819
sg17
VKey Follow
p820
sbag1
(g24
g3
Ntp821
Rp822
(dp823
g15
g763
sg29
(lp824
I0
aI1
asg19
(I1
I31
tp825
sg32
I1
sg33
(dp826
I0
g767
sI1
g768
ssg17
VEnv Polarity
p827
sbasg33
(dp828
sbag1
(g11
g3
Ntp829
Rp830
(dp831
g15
(I0
I3
tp832
sg17
VCommon
p833
sg19
(I0
I53
tp834
sg21
I1
sg22
(lp835
g1
(g24
g3
Ntp836
Rp837
(dp838
g15
(I0
I3
tp839
sg29
(lp840
I0
aI1
aI2
aI3
asg19
(I0
I53
tp841
sg32
I1
sg33
(dp842
I0
VSerial 4
p843
sI1
VSerial 6
p844
sI2
VParallel 4
p845
sI3
VSplit Mode
p846
ssg17
VRouting
p847
sbag1
(g24
g3
Ntp848
Rp849
(dp850
g15
g568
sg29
(lp851
I0
aI1
aI2
aI3
asg19
(I0
I48
tp852
sg32
I4
sg33
(dp853
sg17
VFilter Balance
p854
sbag1
(g24
g3
Ntp855
Rp856
(dp857
g15
(I0
I1
tp858
sg29
(lp859
I0
aI1
aI2
aI3
asg19
(I1
I32
tp860
sg32
I9
sg33
(dp861
sg17
VCutoff Link
p862
sbag1
(g24
g3
Ntp863
Rp864
(dp865
g15
g568
sg29
(lp866
I0
aI1
aI2
aI3
asg19
(I1
I33
tp867
sg32
I15
sg33
(dp868
sg17
VKey Follow Base
p869
sbag1
(g24
g3
Ntp870
Rp871
(dp872
g15
g568
sg29
(lp873
I3
asg19
(I4
I122
tp874
sg32
I0
sg33
(dp875
sg17
VPan Spread
p876
sbasg33
(dp877
sbag1
(g11
g3
Ntp878
Rp879
(dp880
g15
g712
sg17
VSaturation
p881
sg19
g714
sg21
I0
sg22
(lp882
g1
(g24
g3
Ntp883
Rp884
(dp885
g15
(I0
I14
tp886
sg29
(lp887
sg19
(I0
I49
tp888
sg32
I1
sg33
(dp889
I0
VOff
p890
sI1
VLight
p891
sI2
VSoft
p892
sI3
VMiddle
p893
sI4
VHard
p894
sI5
VDigital
p895
sI6
VWave Shaper
p896
sI7
VRectifier
p897
sI8
VBit Reducer
p898
sI9
VRate Reducer
p899
sI10
VRate+Follow
p900
sI11
VLow Pass
p901
sI12
VLow+Follow
p902
sI13
VHigh Pass
p903
sI14
VHigh+Follow
p904
ssg17
VType
p905
sbasg33
(dp906
sbag1
(g11
g3
Ntp907
Rp908
(dp909
g15
g712
sg17
VFilter Envelope
p910
sg19
g714
sg21
I0
sg22
(lp911
g1
(g24
g3
Ntp912
Rp913
(dp914
g15
g568
sg29
(lp915
sg19
(I0
I54
tp916
sg32
I0
sg33
(dp917
sg17
VAttack
p918
sbag1
(g24
g3
Ntp919
Rp920
(dp921
g15
g568
sg29
(lp922
sg19
(I0
I55
tp923
sg32
I0
sg33
(dp924
sg17
VDecay
p925
sbag1
(g24
g3
Ntp926
Rp927
(dp928
g15
g568
sg29
(lp929
sg19
(I0
I56
tp930
sg32
I7
sg33
(dp931
sg17
VSustain
p932
sbag1
(g24
g3
Ntp933
Rp934
(dp935
g15
g568
sg29
(lp936
sg19
(I0
I57
tp937
sg32
I4
sg33
(dp938
sg17
VSustain Slope
p939
sbag1
(g24
g3
Ntp940
Rp941
(dp942
g15
g568
sg29
(lp943
sg19
(I0
I58
tp944
sg32
I0
sg33
(dp945
sg17
VRelease
p946
sbasg33
(dp947
sbag1
(g11
g3
Ntp948
Rp949
(dp950
g15
g712
sg17
VAmp Envelope
p951
sg19
g714
sg21
I0
sg22
(lp952
g1
(g24
g3
Ntp953
Rp954
(dp955
g15
g568
sg29
(lp956
sg19
(I0
I59
tp957
sg32
I0
sg33
(dp958
sg17
VAttack
p959
sbag1
(g24
g3
Ntp960
Rp961
(dp962
g15
g568
sg29
(lp963
sg19
(I0
I60
tp964
sg32
I0
sg33
(dp965
sg17
VDecay
p966
sbag1
(g24
g3
Ntp967
Rp968
(dp969
g15
g568
sg29
(lp970
sg19
(I0
I61
tp971
sg32
I7
sg33
(dp972
sg17
VSustain
p973
sbag1
(g24
g3
Ntp974
Rp975
(dp976
g15
g568
sg29
(lp977
sg19
(I0
I62
tp978
sg32
I4
sg33
(dp979
sg17
VSustain Slope
p980
sbag1
(g24
g3
Ntp981
Rp982
(dp983
g15
g568
sg29
(lp984
sg19
(I0
I63
tp985
sg32
I0
sg33
(dp986
sg17
VRelease
p987
sbasg33
(dp988
sbasg17
V.Filter
p989
sg703
I2
sbag1
(g2
g3
Ntp990
Rp991
(dp992
g7
(dp993
I0
I2
sI1
I2
sI2
I2
ssg9
(lp994
g1
(g11
g3
Ntp995
Rp996
(dp997
g15
(I1
I21
tp998
sg17
VLFO 1
p999
sg19
(I1
I18
tp1000
sg21
I2
sg22
(lp1001
g1
(g24
g3
Ntp1002
Rp1003
(dp1004
g15
(I0
I21
tp1005
sg29
(lp1006
I0
aI1
asg19
(I1
I18
tp1007
sg32
I1
sg33
(dp1008
I0
VOff
p1009
sI1
V1/64
p1010
sI2
V1/32
p1011
sI3
V1/16
p1012
sI4
V1/8
p1013
sI5
V1/4
p1014
sI6
V1/2
p1015
sI7
V3/64
p1016
sI8
V3/32
p1017
sI9
V3/16
p1018
sI10
V3/8
p1019
sI11
V1/24
p1020
sI12
V1/12
p1021
sI13
V1/6
p1022
sI14
V1/3
p1023
sI15
V2/3
p1024
sI16
V3/4
p1025
sI17
V1/1
p1026
sI18
V2/1
p1027
sI19
V4/1
p1028
sI20
V8/1
p1029
sI21
V16/1
p1030
ssg17
VClock
p1031
sbag1
(g24
g3
Ntp1032
Rp1033
(dp1034
g15
g568
sg29
(lp1035
I0
asg19
(I0
I67
tp1036
sg32
I0
sg33
(dp1037
sg17
VRate
p1038
sbag1
(g24
g3
Ntp1039
Rp1040
(dp1041
g15
g568
sg29
(lp1042
sg19
(I0
I17
tp1043
sg32
I11
sg33
(dp1044
sg17
V--
p1045
sbag1
(g24
g3
Ntp1046
Rp1047
(dp1048
g15
(I6
I67
tp1049
sg29
(lp1050
I0
aI1
asg19
(I0
I68
tp1051
sg32
I12
sg33
(dp1052
I0
VSine
p1053
sI1
VTriangle
p1054
sI2
VSawtooth
p1055
sI3
VSquare
p1056
sI4
VS&H
p1057
sI5
VS&G
p1058
sI6
VWave 3
p1059
ssg17
VShape
p1060
sbag1
(g24
g3
Ntp1061
Rp1062
(dp1063
g15
g568
sg29
(lp1064
I0
aI1
asg19
(I0
I71
tp1065
sg32
I4
sg33
(dp1066
sg17
VContour
p1067
sbag1
(g24
g3
Ntp1068
Rp1069
(dp1070
g15
(I0
I1
tp1071
sg29
(lp1072
I0
aI1
asg19
(I0
I70
tp1073
sg32
I1
sg33
(dp1074
I0
VPoly
p1075
sI1
VMono
p1076
ssg17
VMode
p1077
sbag1
(g24
g3
Ntp1078
Rp1079
(dp1080
g15
g568
sg29
(lp1081
I0
aI1
asg19
(I0
I69
tp1082
sg32
I9
sg33
(dp1083
sg17
VEnvelope Mode
p1084
sbag1
(g24
g3
Ntp1085
Rp1086
(dp1087
g15
g568
sg29
(lp1088
I0
aI1
asg19
(I0
I73
tp1089
sg32
I13
sg33
(dp1090
I0
VOff 0
p1091
ssg17
VTrigger Phase
p1092
sbag1
(g24
g3
Ntp1093
Rp1094
(dp1095
g15
g568
sg29
(lp1096
I0
aI1
asg19
(I0
I72
tp1097
sg32
I14
sg33
(dp1098
I0
VOff 0
p1099
ssg17
VKey Follow
p1100
sbasg33
(dp1101
sbag1
(g11
g3
Ntp1102
Rp1103
(dp1104
g15
g712
sg17
VLFO 1 Dest
p1105
sg19
g714
sg21
I0
sg22
(lp1106
g1
(g24
g3
Ntp1107
Rp1108
(dp1109
g15
g568
sg29
(lp1110
sg19
(I0
I74
tp1111
sg32
I5
sg33
(dp1112
sg17
VOsc1 Pitch
p1113
sbag1
(g24
g3
Ntp1114
Rp1115
(dp1116
g15
g568
sg29
(lp1117
sg19
(I0
I75
tp1118
sg32
I5
sg33
(dp1119
sg17
VOsc2 Pitch
p1120
sbag1
(g24
g3
Ntp1121
Rp1122
(dp1123
g15
g568
sg29
(lp1124
sg19
(I0
I76
tp1125
sg32
I5
sg33
(dp1126
sg17
VPulse Width
p1127
sbag1
(g24
g3
Ntp1128
Rp1129
(dp1130
g15
g568
sg29
(lp1131
sg19
(I0
I77
tp1132
sg32
I5
sg33
(dp1133
sg17
VResonance
p1134
sbag1
(g24
g3
Ntp1135
Rp1136
(dp1137
g15
g568
sg29
(lp1138
sg19
(I0
I78
tp1139
sg32
I5
sg33
(dp1140
sg17
VFilter Gain
p1141
sbag1
(g24
g3
Ntp1142
Rp1143
(dp1144
g15
(I0
I127
tp1145
sg29
(lp1146
sg19
(I1
I79
tp1147
sg32
I1
sg33
(dp1148
I0
VOff
p1149
sI1
VPatch Volume
p1150
sI2
VOsc 1 Interpolation
p1151
sI3
VPanorama
p1152
sI4
VTranspose
p1153
sI5
VPortamento
p1154
sI6
VOsc 1 Shape
p1155
sI7
VOsc 1 Pulse Width
p1156
sI8
VOsc 1 Wave Select
p1157
sI9
VOsc 1 Pitch
p1158
sI10
VSlot 6 Amount 3
p1159
sI11
VOsc 2 Shape
p1160
sI12
VOsc 2 Pulse Width
p1161
sI13
VOsc 2 Wave Select
p1162
sI14
VOsc 2 Pitch
p1163
sI15
VOsc 2 Detune
p1164
sI16
VOsc 2 FM Amount
p1165
sI17
VFiltEnv>Osc 2 Pitch
p1166
sI18
VFiltEnv>FM/Sync
p1167
sI19
VOsc 2 Interpolation
p1168
sI20
VOsc Balance
p1169
sI21
VSub Osc Volume
p1170
sI22
VOsc Volume
p1171
sI23
VNoise Volume
p1172
sI24
VFilter 1 Cutoff
p1173
sI25
VFilter 2 Cutoff
p1174
sI26
VFilter 1 Resonance
p1175
sI27
VFilter 2 Resonance
p1176
sI28
VFilter 1 Env Amount
p1177
sI29
VFilter 2 Env Amount
p1178
sI30
VSlot 5 Amount 2
p1179
sI31
VSlot 5 Amount 3
p1180
sI32
VFilter Balance
p1181
sI33
VFilter Env Attack
p1182
sI34
VFilter Env Decay
p1183
sI35
VFilter Env Sustain
p1184
sI36
VFilter Env Slope
p1185
sI37
VFilter Env Release
p1186
sI38
VAmp Env Attack
p1187
sI39
VAmp Env Decay
p1188
sI40
VAmp Env Sustain
p1189
sI41
VAmp Env Slope
p1190
sI42
VAmp Env Release
p1191
sI43
VLFO 1 Rate
p1192
sI44
VLFO 1 Contour
p1193
sI45
VLFO 1>Osc 1 Pitch
p1194
sI46
VLFO 1>Osc 2 Pitch
p1195
sI47
VLFO 1>Pulse Width
p1196
sI48
VLFO 1>Resonance
p1197
sI49
VLFO 1>Filter Gain
p1198
sI50
VLFO 2 Rate
p1199
sI51
VLFO 2 Contour
p1200
sI52
VLFO 2>Shape
p1201
sI53
VLFO 2>FM Amount
p1202
sI54
VLFO 2>Cutoff 1
p1203
sI55
VLFO 2>Cutoff 2
p1204
sI56
VLFO 2>Panorama
p1205
sI57
VLFO 3 Rate
p1206
sI58
VLFO 3 Assign Amt
p1207
sI59
VUnison Detune
p1208
sI60
VPan Spread
p1209
sI61
VUnison LFO Phase
p1210
sI62
VChorus Mix
p1211
sI63
VChorus Mod Rate
p1212
sI64
VChorus Mod Depth
p1213
sI65
VChorus Delay
p1214
sI66
VChorus Feedback
p1215
sI67
VDelay Send
p1216
sI68
VDelay Time
p1217
sI69
VDelay Feedback
p1218
sI70
VDelay Mod Rate
p1219
sI71
VDelay Mod Depth
p1220
sI72
VReverb Send
p1221
sI73
VOsc 1 WT Index
p1222
sI74
VOsc 2 WT Index
p1223
sI75
VSlot 6 Amount 2
p1224
sI76
VSlot 4 Amount 2
p1225
sI77
VSlot 4 Amount 3
p1226
sI80
VSlot 2 Amount 3
p1227
sI82
VSlot 1 Amount 1
p1228
sI83
VSlot 2 Amount 1
p1229
sI84
VSlot 2 Amount 2
p1230
sI85
VSlot 3 Amount 1
p1231
sI86
VSlot 3 Amount 2
p1232
sI87
VSlot 3 Amount 3
p1233
sI88
VOsc Initial Phase
p1234
sI89
VPunch Intensity
p1235
sI90
VRing Modulator
p1236
sI91
VNoise Color
p1237
sI92
VDelay Coloration
p1238
sI93
VSlot 1 Amount 2
p1239
sI94
VSlot 1 Amount 3
p1240
sI95
VDistortion Intensity
p1241
sI96
VFreqShifter Freq
p1242
sI97
VOsc 3 Volume
p1243
sI98
VOsc 3 Pitch
p1244
sI99
VOsc 3 Detune
p1245
sI100
VLFO 1 Assign Amt
p1246
sI101
VLFO 2 Assign Amt
p1247
sI102
VPhaser Mix
p1248
sI103
VPhaser Mod Rate
p1249
sI104
VPhaser Mod Depth
p1250
sI105
VPhaser Frequency
p1251
sI106
VPhaser Feedback
p1252
sI107
VPhaser Spread
p1253
sI108
VReverb Time
p1254
sI109
VReverb Damping
p1255
sI110
VReverb Color
p1256
sI111
VReverb PreDelay
p1257
sI112
VReverb Feedback
p1258
sI113
VSurround Balance
p1259
sI114
VArp Note Length
p1260
sI115
VArp Swing Factor
p1261
sI116
VArp Pattern
p1262
sI117
VEQ Mid Gain
p1263
sI118
VEQ Mid Frequency
p1264
sI119
VEQ Mid Q-Factor
p1265
sI120
VSlot 4 Amount 1
p1266
sI121
VSlot 5 Amount 1
p1267
sI122
VSlot 6 Amount 1
p1268
sI123
VOsc 1 F-Shift
p1269
sI124
VOsc 2 F-Shift
p1270
sI125
VOsc 1 F-Spread
p1271
sI126
VOsc 2 F-Spread
p1272
sI127
VDistortion Mix
p1273
ssg17
VAssign Target
p1274
sbag1
(g24
g3
Ntp1275
Rp1276
(dp1277
g15
g568
sg29
(lp1278
sg19
(I1
I80
tp1279
sg32
I5
sg33
(dp1280
sg17
VAmount
p1281
sbasg33
(dp1282
sbag1
(g11
g3
Ntp1283
Rp1284
(dp1285
g15
g998
sg17
VLFO 2
p1286
sg19
(I1
I19
tp1287
sg21
I2
sg22
(lp1288
g1
(g24
g3
Ntp1289
Rp1290
(dp1291
g15
g1005
sg29
(lp1292
I0
aI1
asg19
(I1
I19
tp1293
sg32
I1
sg33
(dp1294
I0
g1009
sI1
g1010
sI2
g1011
sI3
g1012
sI4
g1013
sI5
g1014
sI6
g1015
sI7
g1016
sI8
g1017
sI9
g1018
sI10
g1019
sI11
g1020
sI12
g1021
sI13
g1022
sI14
g1023
sI15
g1024
sI16
g1025
sI17
g1026
sI18
g1027
sI19
g1028
sI20
g1029
sI21
g1030
ssg17
VClock
p1295
sbag1
(g24
g3
Ntp1296
Rp1297
(dp1298
g15
g568
sg29
(lp1299
I0
asg19
(I0
I79
tp1300
sg32
I0
sg33
(dp1301
sg17
VRate
p1302
sbag1
(g24
g3
Ntp1303
Rp1304
(dp1305
g15
g568
sg29
g1042
sg19
g1043
sg32
I11
sg33
(dp1306
sg17
g1045
sbag1
(g24
g3
Ntp1307
Rp1308
(dp1309
g15
g1049
sg29
(lp1310
I0
aI1
asg19
(I0
I80
tp1311
sg32
I12
sg33
(dp1312
I0
g1053
sI1
g1054
sI2
g1055
sI3
g1056
sI4
g1057
sI5
g1058
sI6
g1059
ssg17
VShape
p1313
sbag1
(g24
g3
Ntp1314
Rp1315
(dp1316
g15
g568
sg29
(lp1317
I0
aI1
asg19
(I0
I83
tp1318
sg32
I4
sg33
(dp1319
sg17
VContour
p1320
sbag1
(g24
g3
Ntp1321
Rp1322
(dp1323
g15
g1071
sg29
(lp1324
I0
aI1
asg19
(I0
I82
tp1325
sg32
I1
sg33
(dp1326
I0
g1075
sI1
g1076
ssg17
VMode
p1327
sbag1
(g24
g3
Ntp1328
Rp1329
(dp1330
g15
g568
sg29
(lp1331
I0
aI1
asg19
(I0
I81
tp1332
sg32
I9
sg33
(dp1333
sg17
VEnvelope Mode
p1334
sbag1
(g24
g3
Ntp1335
Rp1336
(dp1337
g15
g568
sg29
(lp1338
I0
aI1
asg19
(I0
I85
tp1339
sg32
I13
sg33
(dp1340
I0
VOff 0
p1341
ssg17
VTrigger Phase
p1342
sbag1
(g24
g3
Ntp1343
Rp1344
(dp1345
g15
g568
sg29
(lp1346
I0
aI1
asg19
(I0
I84
tp1347
sg32
I14
sg33
(dp1348
I0
VOff 0
p1349
ssg17
VKey Follow
p1350
sbasg33
(dp1351
sbag1
(g11
g3
Ntp1352
Rp1353
(dp1354
g15
g712
sg17
VLFO 2 Dest
p1355
sg19
g714
sg21
I0
sg22
(lp1356
g1
(g24
g3
Ntp1357
Rp1358
(dp1359
g15
g568
sg29
(lp1360
sg19
(I0
I88
tp1361
sg32
I5
sg33
(dp1362
sg17
VCutoff 1
p1363
sbag1
(g24
g3
Ntp1364
Rp1365
(dp1366
g15
g568
sg29
(lp1367
sg19
(I0
I89
tp1368
sg32
I5
sg33
(dp1369
sg17
VCutoff 2
p1370
sbag1
(g24
g3
Ntp1371
Rp1372
(dp1373
g15
g568
sg29
(lp1374
sg19
(I0
I86
tp1375
sg32
I5
sg33
(dp1376
sg17
VShape 1+2
p1377
sbag1
(g24
g3
Ntp1378
Rp1379
(dp1380
g15
g568
sg29
(lp1381
sg19
(I0
I87
tp1382
sg32
I5
sg33
(dp1383
sg17
VFM Amount
p1384
sbag1
(g24
g3
Ntp1385
Rp1386
(dp1387
g15
g568
sg29
(lp1388
sg19
(I0
I90
tp1389
sg32
I5
sg33
(dp1390
sg17
VPanorama
p1391
sbag1
(g24
g3
Ntp1392
Rp1393
(dp1394
g15
g1145
sg29
(lp1395
sg19
(I1
I81
tp1396
sg32
I1
sg33
(dp1397
I0
g1149
sI1
g1150
sI2
g1151
sI3
g1152
sI4
g1153
sI5
g1154
sI6
g1155
sI7
g1156
sI8
g1157
sI9
g1158
sI10
g1159
sI11
g1160
sI12
g1161
sI13
g1162
sI14
g1163
sI15
g1164
sI16
g1165
sI17
g1166
sI18
g1167
sI19
g1168
sI20
g1169
sI21
g1170
sI22
g1171
sI23
g1172
sI24
g1173
sI25
g1174
sI26
g1175
sI27
g1176
sI28
g1177
sI29
g1178
sI30
g1179
sI31
g1180
sI32
g1181
sI33
g1182
sI34
g1183
sI35
g1184
sI36
g1185
sI37
g1186
sI38
g1187
sI39
g1188
sI40
g1189
sI41
g1190
sI42
g1191
sI43
g1192
sI44
g1193
sI45
g1194
sI46
g1195
sI47
g1196
sI48
g1197
sI49
g1198
sI50
g1199
sI51
g1200
sI52
g1201
sI53
g1202
sI54
g1203
sI55
g1204
sI56
g1205
sI57
g1206
sI58
g1207
sI59
g1208
sI60
g1209
sI61
g1210
sI62
g1211
sI63
g1212
sI64
g1213
sI65
g1214
sI66
g1215
sI67
g1216
sI68
g1217
sI69
g1218
sI70
g1219
sI71
g1220
sI72
g1221
sI73
g1222
sI74
g1223
sI75
g1224
sI76
g1225
sI77
g1226
sI80
g1227
sI82
g1228
sI83
g1229
sI84
g1230
sI85
g1231
sI86
g1232
sI87
g1233
sI88
g1234
sI89
g1235
sI90
g1236
sI91
g1237
sI92
g1238
sI93
g1239
sI94
g1240
sI95
g1241
sI96
g1242
sI97
g1243
sI98
g1244
sI99
g1245
sI100
g1246
sI101
g1247
sI102
g1248
sI103
g1249
sI104
g1250
sI105
g1251
sI106
g1252
sI107
g1253
sI108
g1254
sI109
g1255
sI110
g1256
sI111
g1257
sI112
g1258
sI113
g1259
sI114
g1260
sI115
g1261
sI116
g1262
sI117
g1263
sI118
g1264
sI119
g1265
sI120
g1266
sI121
g1267
sI122
g1268
sI123
g1269
sI124
g1270
sI125
g1271
sI126
g1272
sI127
g1273
ssg17
VAssign Target
p1398
sbag1
(g24
g3
Ntp1399
Rp1400
(dp1401
g15
g568
sg29
(lp1402
sg19
(I1
I82
tp1403
sg32
I5
sg33
(dp1404
sg17
VAmount
p1405
sbasg33
(dp1406
sbag1
(g11
g3
Ntp1407
Rp1408
(dp1409
g15
g998
sg17
VLFO 3
p1410
sg19
(I1
I21
tp1411
sg21
I2
sg22
(lp1412
g1
(g24
g3
Ntp1413
Rp1414
(dp1415
g15
g1005
sg29
(lp1416
I0
aI1
asg19
(I1
I21
tp1417
sg32
I1
sg33
(dp1418
I0
g1009
sI1
g1010
sI2
g1011
sI3
g1012
sI4
g1013
sI5
g1014
sI6
g1015
sI7
g1016
sI8
g1017
sI9
g1018
sI10
g1019
sI11
g1020
sI12
g1021
sI13
g1022
sI14
g1023
sI15
g1024
sI16
g1025
sI17
g1026
sI18
g1027
sI19
g1028
sI20
g1029
sI21
g1030
ssg17
VClock
p1419
sbag1
(g24
g3
Ntp1420
Rp1421
(dp1422
g15
g568
sg29
(lp1423
I0
asg19
(I1
I7
tp1424
sg32
I0
sg33
(dp1425
sg17
VRate
p1426
sbag1
(g24
g3
Ntp1427
Rp1428
(dp1429
g15
g568
sg29
g1042
sg19
g1043
sg32
I11
sg33
(dp1430
sg17
g1045
sbag1
(g24
g3
Ntp1431
Rp1432
(dp1433
g15
g1049
sg29
(lp1434
I0
aI1
asg19
(I1
I8
tp1435
sg32
I12
sg33
(dp1436
I0
g1053
sI1
g1054
sI2
g1055
sI3
g1056
sI4
g1057
sI5
g1058
sI6
g1059
ssg17
VShape
p1437
sbag1
(g24
g3
Ntp1438
Rp1439
(dp1440
g15
g1071
sg29
(lp1441
I0
aI1
asg19
(I1
I9
tp1442
sg32
I1
sg33
(dp1443
I0
g1075
sI1
g1076
ssg17
VMode
p1444
sbag1
(g24
g3
Ntp1445
Rp1446
(dp1447
g15
g568
sg29
(lp1448
I0
aI1
asg19
(I1
I10
tp1449
sg32
I0
sg33
(dp1450
sg17
VKey Follow
p1451
sbasg33
(dp1452
sbag1
(g11
g3
Ntp1453
Rp1454
(dp1455
g15
g712
sg17
VLFO 3 Dest
p1456
sg19
g714
sg21
I0
sg22
(lp1457
g1
(g24
g3
Ntp1458
Rp1459
(dp1460
g15
g568
sg29
(lp1461
sg19
(I1
I13
tp1462
sg32
I0
sg33
(dp1463
sg17
VFade In
p1464
sbag1
(g24
g3
Ntp1465
Rp1466
(dp1467
g15
(I0
I6
tp1468
sg29
(lp1469
sg19
(I1
I11
tp1470
sg32
I1
sg33
(dp1471
I0
VOsc 1 Pitch
p1472
sI1
VOsc 1+2 Pitch
p1473
sI2
VOsc 2 Pitch
p1474
sI3
VOsc 1 Pulse Width
p1475
sI4
VOsc 1+2 Pulse Width
p1476
sI5
VOsc 2 Pulse Width
p1477
sI6
VSync Phase
p1478
ssg17
VAssign Target
p1479
sbag1
(g24
g3
Ntp1480
Rp1481
(dp1482
g15
g568
sg29
(lp1483
sg19
(I1
I12
tp1484
sg32
I7
sg33
(dp1485
sg17
VAmount
p1486
sbasg33
(dp1487
sbasg17
V.LFO
p1488
sg703
I3
sbag1
(g2
g3
Ntp1489
Rp1490
(dp1491
g7
(dp1492
I0
I2
sI1
I2
sI2
I2
ssg9
(lp1493
g1
(g11
g3
Ntp1494
Rp1495
(dp1496
g15
(I0
I0
tp1497
sg17
VSlot 1
p1498
sg19
(I0
I17
tp1499
sg21
I0
sg22
(lp1500
g1
(g24
g3
Ntp1501
Rp1502
(dp1503
g15
(I0
I37
tp1504
sg29
(lp1505
sg19
(I1
I64
tp1506
sg32
I1
sg33
(dp1507
I0
VOff
p1508
sI1
VPitch Bend
p1509
sI2
VChan Pressure
p1510
sI3
VMod Wheel
p1511
sI4
VBreath
p1512
sI5
VController 3
p1513
sI6
VFoot Pedal
p1514
sI7
VData Entry
p1515
sI8
VBalance
p1516
sI9
VController 9
p1517
sI10
VExpression
p1518
sI11
VController 12
p1519
sI12
VController 13
p1520
sI13
VController 14
p1521
sI14
VController 15
p1522
sI15
VController 16
p1523
sI16
VHold Pedal
p1524
sI17
VPortamento Sw
p1525
sI18
VSost Pedal
p1526
sI19
VAmp Envelope
p1527
sI20
VFilter Envelope
p1528
sI21
VLFO 1 bipolar
p1529
sI22
VLFO 2 bipolar
p1530
sI23
VLFO 3 bipolar
p1531
sI24
VVelocity On
p1532
sI25
VVelocity Off
p1533
sI26
VKey Follow
p1534
sI27
VRandom
p1535
sI28
VArp Input
p1536
sI29
VLFO 1 unipolar
p1537
sI30
VLFO 2 unipolar
p1538
sI31
VLFO 3 unipolar
p1539
sI32
V1% constant
p1540
sI33
V10% constant
p1541
sI34
VAnaKey1 Fine
p1542
sI35
VAnaKey 2 Fine
p1543
sI36
VAnaKey1 Coarse
p1544
sI37
VAnaKey2 Coarse
p1545
ssg17
VSource
p1546
sbag1
(g24
g3
Ntp1547
Rp1548
(dp1549
g15
g1145
sg29
(lp1550
sg19
(I1
I66
tp1551
sg32
I4
sg33
(dp1552
sg17
VAmount 1
p1553
sbag1
(g24
g3
Ntp1554
Rp1555
(dp1556
g15
g1145
sg29
(lp1557
sg19
(I3
I91
tp1558
sg32
I4
sg33
(dp1559
sg17
VAmount 2
p1560
sbag1
(g24
g3
Ntp1561
Rp1562
(dp1563
g15
g1145
sg29
(lp1564
sg19
(I3
I93
tp1565
sg32
I4
sg33
(dp1566
sg17
VAmount 3
p1567
sbag1
(g24
g3
Ntp1568
Rp1569
(dp1570
g15
g1145
sg29
(lp1571
sg19
(I1
I65
tp1572
sg32
I1
sg33
(dp1573
I0
g1149
sI1
g1150
sI2
g1151
sI3
g1152
sI4
g1153
sI5
g1154
sI6
g1155
sI7
g1156
sI8
g1157
sI9
g1158
sI10
g1159
sI11
g1160
sI12
g1161
sI13
g1162
sI14
g1163
sI15
g1164
sI16
g1165
sI17
g1166
sI18
g1167
sI19
g1168
sI20
g1169
sI21
g1170
sI22
g1171
sI23
g1172
sI24
g1173
sI25
g1174
sI26
g1175
sI27
g1176
sI28
g1177
sI29
g1178
sI30
g1179
sI31
g1180
sI32
g1181
sI33
g1182
sI34
g1183
sI35
g1184
sI36
g1185
sI37
g1186
sI38
g1187
sI39
g1188
sI40
g1189
sI41
g1190
sI42
g1191
sI43
g1192
sI44
g1193
sI45
g1194
sI46
g1195
sI47
g1196
sI48
g1197
sI49
g1198
sI50
g1199
sI51
g1200
sI52
g1201
sI53
g1202
sI54
g1203
sI55
g1204
sI56
g1205
sI57
g1206
sI58
g1207
sI59
g1208
sI60
g1209
sI61
g1210
sI62
g1211
sI63
g1212
sI64
g1213
sI65
g1214
sI66
g1215
sI67
g1216
sI68
g1217
sI69
g1218
sI70
g1219
sI71
g1220
sI72
g1221
sI73
g1222
sI74
g1223
sI75
g1224
sI76
g1225
sI77
g1226
sI80
g1227
sI82
g1228
sI83
g1229
sI84
g1230
sI85
g1231
sI86
g1232
sI87
g1233
sI88
g1234
sI89
g1235
sI90
g1236
sI91
g1237
sI92
g1238
sI93
g1239
sI94
g1240
sI95
g1241
sI96
g1242
sI97
g1243
sI98
g1244
sI99
g1245
sI100
g1246
sI101
g1247
sI102
g1248
sI103
g1249
sI104
g1250
sI105
g1251
sI106
g1252
sI107
g1253
sI108
g1254
sI109
g1255
sI110
g1256
sI111
g1257
sI112
g1258
sI113
g1259
sI114
g1260
sI115
g1261
sI116
g1262
sI117
g1263
sI118
g1264
sI119
g1265
sI120
g1266
sI121
g1267
sI122
g1268
sI123
g1269
sI124
g1270
sI125
g1271
sI126
g1272
sI127
g1273
ssg17
VDest 1
p1574
sbag1
(g24
g3
Ntp1575
Rp1576
(dp1577
g15
g1145
sg29
(lp1578
sg19
(I3
I90
tp1579
sg32
I1
sg33
(dp1580
I0
g1149
sI1
g1150
sI2
g1151
sI3
g1152
sI4
g1153
sI5
g1154
sI6
g1155
sI7
g1156
sI8
g1157
sI9
g1158
sI10
g1159
sI11
g1160
sI12
g1161
sI13
g1162
sI14
g1163
sI15
g1164
sI16
g1165
sI17
g1166
sI18
g1167
sI19
g1168
sI20
g1169
sI21
g1170
sI22
g1171
sI23
g1172
sI24
g1173
sI25
g1174
sI26
g1175
sI27
g1176
sI28
g1177
sI29
g1178
sI30
g1179
sI31
g1180
sI32
g1181
sI33
g1182
sI34
g1183
sI35
g1184
sI36
g1185
sI37
g1186
sI38
g1187
sI39
g1188
sI40
g1189
sI41
g1190
sI42
g1191
sI43
g1192
sI44
g1193
sI45
g1194
sI46
g1195
sI47
g1196
sI48
g1197
sI49
g1198
sI50
g1199
sI51
g1200
sI52
g1201
sI53
g1202
sI54
g1203
sI55
g1204
sI56
g1205
sI57
g1206
sI58
g1207
sI59
g1208
sI60
g1209
sI61
g1210
sI62
g1211
sI63
g1212
sI64
g1213
sI65
g1214
sI66
g1215
sI67
g1216
sI68
g1217
sI69
g1218
sI70
g1219
sI71
g1220
sI72
g1221
sI73
g1222
sI74
g1223
sI75
g1224
sI76
g1225
sI77
g1226
sI80
g1227
sI82
g1228
sI83
g1229
sI84
g1230
sI85
g1231
sI86
g1232
sI87
g1233
sI88
g1234
sI89
g1235
sI90
g1236
sI91
g1237
sI92
g1238
sI93
g1239
sI94
g1240
sI95
g1241
sI96
g1242
sI97
g1243
sI98
g1244
sI99
g1245
sI100
g1246
sI101
g1247
sI102
g1248
sI103
g1249
sI104
g1250
sI105
g1251
sI106
g1252
sI107
g1253
sI108
g1254
sI109
g1255
sI110
g1256
sI111
g1257
sI112
g1258
sI113
g1259
sI114
g1260
sI115
g1261
sI116
g1262
sI117
g1263
sI118
g1264
sI119
g1265
sI120
g1266
sI121
g1267
sI122
g1268
sI123
g1269
sI124
g1270
sI125
g1271
sI126
g1272
sI127
g1273
ssg17
VDest 2
p1581
sbag1
(g24
g3
Ntp1582
Rp1583
(dp1584
g15
g1145
sg29
(lp1585
sg19
(I3
I92
tp1586
sg32
I1
sg33
(dp1587
I0
g1149
sI1
g1150
sI2
g1151
sI3
g1152
sI4
g1153
sI5
g1154
sI6
g1155
sI7
g1156
sI8
g1157
sI9
g1158
sI10
g1159
sI11
g1160
sI12
g1161
sI13
g1162
sI14
g1163
sI15
g1164
sI16
g1165
sI17
g1166
sI18
g1167
sI19
g1168
sI20
g1169
sI21
g1170
sI22
g1171
sI23
g1172
sI24
g1173
sI25
g1174
sI26
g1175
sI27
g1176
sI28
g1177
sI29
g1178
sI30
g1179
sI31
g1180
sI32
g1181
sI33
g1182
sI34
g1183
sI35
g1184
sI36
g1185
sI37
g1186
sI38
g1187
sI39
g1188
sI40
g1189
sI41
g1190
sI42
g1191
sI43
g1192
sI44
g1193
sI45
g1194
sI46
g1195
sI47
g1196
sI48
g1197
sI49
g1198
sI50
g1199
sI51
g1200
sI52
g1201
sI53
g1202
sI54
g1203
sI55
g1204
sI56
g1205
sI57
g1206
sI58
g1207
sI59
g1208
sI60
g1209
sI61
g1210
sI62
g1211
sI63
g1212
sI64
g1213
sI65
g1214
sI66
g1215
sI67
g1216
sI68
g1217
sI69
g1218
sI70
g1219
sI71
g1220
sI72
g1221
sI73
g1222
sI74
g1223
sI75
g1224
sI76
g1225
sI77
g1226
sI80
g1227
sI82
g1228
sI83
g1229
sI84
g1230
sI85
g1231
sI86
g1232
sI87
g1233
sI88
g1234
sI89
g1235
sI90
g1236
sI91
g1237
sI92
g1238
sI93
g1239
sI94
g1240
sI95
g1241
sI96
g1242
sI97
g1243
sI98
g1244
sI99
g1245
sI100
g1246
sI101
g1247
sI102
g1248
sI103
g1249
sI104
g1250
sI105
g1251
sI106
g1252
sI107
g1253
sI108
g1254
sI109
g1255
sI110
g1256
sI111
g1257
sI112
g1258
sI113
g1259
sI114
g1260
sI115
g1261
sI116
g1262
sI117
g1263
sI118
g1264
sI119
g1265
sI120
g1266
sI121
g1267
sI122
g1268
sI123
g1269
sI124
g1270
sI125
g1271
sI126
g1272
sI127
g1273
ssg17
VDest 3
p1588
sbasg33
(dp1589
sbag1
(g11
g3
Ntp1590
Rp1591
(dp1592
g15
g1497
sg17
VSlot 4
p1593
sg19
g1499
sg21
I0
sg22
(lp1594
g1
(g24
g3
Ntp1595
Rp1596
(dp1597
g15
g1504
sg29
(lp1598
sg19
(I1
I103
tp1599
sg32
I1
sg33
(dp1600
I0
g1508
sI1
g1509
sI2
g1510
sI3
g1511
sI4
g1512
sI5
g1513
sI6
g1514
sI7
g1515
sI8
g1516
sI9
g1517
sI10
g1518
sI11
g1519
sI12
g1520
sI13
g1521
sI14
g1522
sI15
g1523
sI16
g1524
sI17
g1525
sI18
g1526
sI19
g1527
sI20
g1528
sI21
g1529
sI22
g1530
sI23
g1531
sI24
g1532
sI25
g1533
sI26
g1534
sI27
g1535
sI28
g1536
sI29
g1537
sI30
g1538
sI31
g1539
sI32
g1540
sI33
g1541
sI34
g1542
sI35
g1543
sI36
g1544
sI37
g1545
ssg17
VSource
p1601
sbag1
(g24
g3
Ntp1602
Rp1603
(dp1604
g15
g1145
sg29
(lp1605
sg19
(I1
I105
tp1606
sg32
I4
sg33
(dp1607
sg17
VAmount 1
p1608
sbag1
(g24
g3
Ntp1609
Rp1610
(dp1611
g15
g1145
sg29
(lp1612
sg19
(I3
I97
tp1613
sg32
I4
sg33
(dp1614
sg17
VAmount 2
p1615
sbag1
(g24
g3
Ntp1616
Rp1617
(dp1618
g15
g1145
sg29
(lp1619
sg19
(I3
I99
tp1620
sg32
I4
sg33
(dp1621
sg17
VAmount 3
p1622
sbag1
(g24
g3
Ntp1623
Rp1624
(dp1625
g15
g1145
sg29
(lp1626
sg19
(I1
I104
tp1627
sg32
I1
sg33
(dp1628
I0
g1149
sI1
g1150
sI2
g1151
sI3
g1152
sI4
g1153
sI5
g1154
sI6
g1155
sI7
g1156
sI8
g1157
sI9
g1158
sI10
g1159
sI11
g1160
sI12
g1161
sI13
g1162
sI14
g1163
sI15
g1164
sI16
g1165
sI17
g1166
sI18
g1167
sI19
g1168
sI20
g1169
sI21
g1170
sI22
g1171
sI23
g1172
sI24
g1173
sI25
g1174
sI26
g1175
sI27
g1176
sI28
g1177
sI29
g1178
sI30
g1179
sI31
g1180
sI32
g1181
sI33
g1182
sI34
g1183
sI35
g1184
sI36
g1185
sI37
g1186
sI38
g1187
sI39
g1188
sI40
g1189
sI41
g1190
sI42
g1191
sI43
g1192
sI44
g1193
sI45
g1194
sI46
g1195
sI47
g1196
sI48
g1197
sI49
g1198
sI50
g1199
sI51
g1200
sI52
g1201
sI53
g1202
sI54
g1203
sI55
g1204
sI56
g1205
sI57
g1206
sI58
g1207
sI59
g1208
sI60
g1209
sI61
g1210
sI62
g1211
sI63
g1212
sI64
g1213
sI65
g1214
sI66
g1215
sI67
g1216
sI68
g1217
sI69
g1218
sI70
g1219
sI71
g1220
sI72
g1221
sI73
g1222
sI74
g1223
sI75
g1224
sI76
g1225
sI77
g1226
sI80
g1227
sI82
g1228
sI83
g1229
sI84
g1230
sI85
g1231
sI86
g1232
sI87
g1233
sI88
g1234
sI89
g1235
sI90
g1236
sI91
g1237
sI92
g1238
sI93
g1239
sI94
g1240
sI95
g1241
sI96
g1242
sI97
g1243
sI98
g1244
sI99
g1245
sI100
g1246
sI101
g1247
sI102
g1248
sI103
g1249
sI104
g1250
sI105
g1251
sI106
g1252
sI107
g1253
sI108
g1254
sI109
g1255
sI110
g1256
sI111
g1257
sI112
g1258
sI113
g1259
sI114
g1260
sI115
g1261
sI116
g1262
sI117
g1263
sI118
g1264
sI119
g1265
sI120
g1266
sI121
g1267
sI122
g1268
sI123
g1269
sI124
g1270
sI125
g1271
sI126
g1272
sI127
g1273
ssg17
VDest 1
p1629
sbag1
(g24
g3
Ntp1630
Rp1631
(dp1632
g15
g1145
sg29
(lp1633
sg19
(I3
I96
tp1634
sg32
I1
sg33
(dp1635
I0
g1149
sI1
g1150
sI2
g1151
sI3
g1152
sI4
g1153
sI5
g1154
sI6
g1155
sI7
g1156
sI8
g1157
sI9
g1158
sI10
g1159
sI11
g1160
sI12
g1161
sI13
g1162
sI14
g1163
sI15
g1164
sI16
g1165
sI17
g1166
sI18
g1167
sI19
g1168
sI20
g1169
sI21
g1170
sI22
g1171
sI23
g1172
sI24
g1173
sI25
g1174
sI26
g1175
sI27
g1176
sI28
g1177
sI29
g1178
sI30
g1179
sI31
g1180
sI32
g1181
sI33
g1182
sI34
g1183
sI35
g1184
sI36
g1185
sI37
g1186
sI38
g1187
sI39
g1188
sI40
g1189
sI41
g1190
sI42
g1191
sI43
g1192
sI44
g1193
sI45
g1194
sI46
g1195
sI47
g1196
sI48
g1197
sI49
g1198
sI50
g1199
sI51
g1200
sI52
g1201
sI53
g1202
sI54
g1203
sI55
g1204
sI56
g1205
sI57
g1206
sI58
g1207
sI59
g1208
sI60
g1209
sI61
g1210
sI62
g1211
sI63
g1212
sI64
g1213
sI65
g1214
sI66
g1215
sI67
g1216
sI68
g1217
sI69
g1218
sI70
g1219
sI71
g1220
sI72
g1221
sI73
g1222
sI74
g1223
sI75
g1224
sI76
g1225
sI77
g1226
sI80
g1227
sI82
g1228
sI83
g1229
sI84
g1230
sI85
g1231
sI86
g1232
sI87
g1233
sI88
g1234
sI89
g1235
sI90
g1236
sI91
g1237
sI92
g1238
sI93
g1239
sI94
g1240
sI95
g1241
sI96
g1242
sI97
g1243
sI98
g1244
sI99
g1245
sI100
g1246
sI101
g1247
sI102
g1248
sI103
g1249
sI104
g1250
sI105
g1251
sI106
g1252
sI107
g1253
sI108
g1254
sI109
g1255
sI110
g1256
sI111
g1257
sI112
g1258
sI113
g1259
sI114
g1260
sI115
g1261
sI116
g1262
sI117
g1263
sI118
g1264
sI119
g1265
sI120
g1266
sI121
g1267
sI122
g1268
sI123
g1269
sI124
g1270
sI125
g1271
sI126
g1272
sI127
g1273
ssg17
VDest 2
p1636
sbag1
(g24
g3
Ntp1637
Rp1638
(dp1639
g15
g1145
sg29
(lp1640
sg19
(I3
I98
tp1641
sg32
I1
sg33
(dp1642
I0
g1149
sI1
g1150
sI2
g1151
sI3
g1152
sI4
g1153
sI5
g1154
sI6
g1155
sI7
g1156
sI8
g1157
sI9
g1158
sI10
g1159
sI11
g1160
sI12
g1161
sI13
g1162
sI14
g1163
sI15
g1164
sI16
g1165
sI17
g1166
sI18
g1167
sI19
g1168
sI20
g1169
sI21
g1170
sI22
g1171
sI23
g1172
sI24
g1173
sI25
g1174
sI26
g1175
sI27
g1176
sI28
g1177
sI29
g1178
sI30
g1179
sI31
g1180
sI32
g1181
sI33
g1182
sI34
g1183
sI35
g1184
sI36
g1185
sI37
g1186
sI38
g1187
sI39
g1188
sI40
g1189
sI41
g1190
sI42
g1191
sI43
g1192
sI44
g1193
sI45
g1194
sI46
g1195
sI47
g1196
sI48
g1197
sI49
g1198
sI50
g1199
sI51
g1200
sI52
g1201
sI53
g1202
sI54
g1203
sI55
g1204
sI56
g1205
sI57
g1206
sI58
g1207
sI59
g1208
sI60
g1209
sI61
g1210
sI62
g1211
sI63
g1212
sI64
g1213
sI65
g1214
sI66
g1215
sI67
g1216
sI68
g1217
sI69
g1218
sI70
g1219
sI71
g1220
sI72
g1221
sI73
g1222
sI74
g1223
sI75
g1224
sI76
g1225
sI77
g1226
sI80
g1227
sI82
g1228
sI83
g1229
sI84
g1230
sI85
g1231
sI86
g1232
sI87
g1233
sI88
g1234
sI89
g1235
sI90
g1236
sI91
g1237
sI92
g1238
sI93
g1239
sI94
g1240
sI95
g1241
sI96
g1242
sI97
g1243
sI98
g1244
sI99
g1245
sI100
g1246
sI101
g1247
sI102
g1248
sI103
g1249
sI104
g1250
sI105
g1251
sI106
g1252
sI107
g1253
sI108
g1254
sI109
g1255
sI110
g1256
sI111
g1257
sI112
g1258
sI113
g1259
sI114
g1260
sI115
g1261
sI116
g1262
sI117
g1263
sI118
g1264
sI119
g1265
sI120
g1266
sI121
g1267
sI122
g1268
sI123
g1269
sI124
g1270
sI125
g1271
sI126
g1272
sI127
g1273
ssg17
VDest 3
p1643
sbasg33
(dp1644
sbag1
(g11
g3
Ntp1645
Rp1646
(dp1647
g15
g1497
sg17
VSlot 2
p1648
sg19
g1499
sg21
I0
sg22
(lp1649
g1
(g24
g3
Ntp1650
Rp1651
(dp1652
g15
g1504
sg29
(lp1653
sg19
(I1
I67
tp1654
sg32
I1
sg33
(dp1655
I0
g1508
sI1
g1509
sI2
g1510
sI3
g1511
sI4
g1512
sI5
g1513
sI6
g1514
sI7
g1515
sI8
g1516
sI9
g1517
sI10
g1518
sI11
g1519
sI12
g1520
sI13
g1521
sI14
g1522
sI15
g1523
sI16
g1524
sI17
g1525
sI18
g1526
sI19
g1527
sI20
g1528
sI21
g1529
sI22
g1530
sI23
g1531
sI24
g1532
sI25
g1533
sI26
g1534
sI27
g1535
sI28
g1536
sI29
g1537
sI30
g1538
sI31
g1539
sI32
g1540
sI33
g1541
sI34
g1542
sI35
g1543
sI36
g1544
sI37
g1545
ssg17
VSource
p1656
sbag1
(g24
g3
Ntp1657
Rp1658
(dp1659
g15
g1145
sg29
(lp1660
sg19
(I1
I69
tp1661
sg32
I4
sg33
(dp1662
sg17
VAmount 1
p1663
sbag1
(g24
g3
Ntp1664
Rp1665
(dp1666
g15
g1145
sg29
(lp1667
sg19
(I1
I71
tp1668
sg32
I4
sg33
(dp1669
sg17
VAmount 2
p1670
sbag1
(g24
g3
Ntp1671
Rp1672
(dp1673
g15
g1145
sg29
(lp1674
sg19
(I3
I95
tp1675
sg32
I4
sg33
(dp1676
sg17
VAmount 3
p1677
sbag1
(g24
g3
Ntp1678
Rp1679
(dp1680
g15
g1145
sg29
(lp1681
sg19
(I1
I68
tp1682
sg32
I1
sg33
(dp1683
I0
g1149
sI1
g1150
sI2
g1151
sI3
g1152
sI4
g1153
sI5
g1154
sI6
g1155
sI7
g1156
sI8
g1157
sI9
g1158
sI10
g1159
sI11
g1160
sI12
g1161
sI13
g1162
sI14
g1163
sI15
g1164
sI16
g1165
sI17
g1166
sI18
g1167
sI19
g1168
sI20
g1169
sI21
g1170
sI22
g1171
sI23
g1172
sI24
g1173
sI25
g1174
sI26
g1175
sI27
g1176
sI28
g1177
sI29
g1178
sI30
g1179
sI31
g1180
sI32
g1181
sI33
g1182
sI34
g1183
sI35
g1184
sI36
g1185
sI37
g1186
sI38
g1187
sI39
g1188
sI40
g1189
sI41
g1190
sI42
g1191
sI43
g1192
sI44
g1193
sI45
g1194
sI46
g1195
sI47
g1196
sI48
g1197
sI49
g1198
sI50
g1199
sI51
g1200
sI52
g1201
sI53
g1202
sI54
g1203
sI55
g1204
sI56
g1205
sI57
g1206
sI58
g1207
sI59
g1208
sI60
g1209
sI61
g1210
sI62
g1211
sI63
g1212
sI64
g1213
sI65
g1214
sI66
g1215
sI67
g1216
sI68
g1217
sI69
g1218
sI70
g1219
sI71
g1220
sI72
g1221
sI73
g1222
sI74
g1223
sI75
g1224
sI76
g1225
sI77
g1226
sI80
g1227
sI82
g1228
sI83
g1229
sI84
g1230
sI85
g1231
sI86
g1232
sI87
g1233
sI88
g1234
sI89
g1235
sI90
g1236
sI91
g1237
sI92
g1238
sI93
g1239
sI94
g1240
sI95
g1241
sI96
g1242
sI97
g1243
sI98
g1244
sI99
g1245
sI100
g1246
sI101
g1247
sI102
g1248
sI103
g1249
sI104
g1250
sI105
g1251
sI106
g1252
sI107
g1253
sI108
g1254
sI109
g1255
sI110
g1256
sI111
g1257
sI112
g1258
sI113
g1259
sI114
g1260
sI115
g1261
sI116
g1262
sI117
g1263
sI118
g1264
sI119
g1265
sI120
g1266
sI121
g1267
sI122
g1268
sI123
g1269
sI124
g1270
sI125
g1271
sI126
g1272
sI127
g1273
ssg17
VDest 1
p1684
sbag1
(g24
g3
Ntp1685
Rp1686
(dp1687
g15
g1145
sg29
(lp1688
sg19
(I1
I70
tp1689
sg32
I1
sg33
(dp1690
I0
g1149
sI1
g1150
sI2
g1151
sI3
g1152
sI4
g1153
sI5
g1154
sI6
g1155
sI7
g1156
sI8
g1157
sI9
g1158
sI10
g1159
sI11
g1160
sI12
g1161
sI13
g1162
sI14
g1163
sI15
g1164
sI16
g1165
sI17
g1166
sI18
g1167
sI19
g1168
sI20
g1169
sI21
g1170
sI22
g1171
sI23
g1172
sI24
g1173
sI25
g1174
sI26
g1175
sI27
g1176
sI28
g1177
sI29
g1178
sI30
g1179
sI31
g1180
sI32
g1181
sI33
g1182
sI34
g1183
sI35
g1184
sI36
g1185
sI37
g1186
sI38
g1187
sI39
g1188
sI40
g1189
sI41
g1190
sI42
g1191
sI43
g1192
sI44
g1193
sI45
g1194
sI46
g1195
sI47
g1196
sI48
g1197
sI49
g1198
sI50
g1199
sI51
g1200
sI52
g1201
sI53
g1202
sI54
g1203
sI55
g1204
sI56
g1205
sI57
g1206
sI58
g1207
sI59
g1208
sI60
g1209
sI61
g1210
sI62
g1211
sI63
g1212
sI64
g1213
sI65
g1214
sI66
g1215
sI67
g1216
sI68
g1217
sI69
g1218
sI70
g1219
sI71
g1220
sI72
g1221
sI73
g1222
sI74
g1223
sI75
g1224
sI76
g1225
sI77
g1226
sI80
g1227
sI82
g1228
sI83
g1229
sI84
g1230
sI85
g1231
sI86
g1232
sI87
g1233
sI88
g1234
sI89
g1235
sI90
g1236
sI91
g1237
sI92
g1238
sI93
g1239
sI94
g1240
sI95
g1241
sI96
g1242
sI97
g1243
sI98
g1244
sI99
g1245
sI100
g1246
sI101
g1247
sI102
g1248
sI103
g1249
sI104
g1250
sI105
g1251
sI106
g1252
sI107
g1253
sI108
g1254
sI109
g1255
sI110
g1256
sI111
g1257
sI112
g1258
sI113
g1259
sI114
g1260
sI115
g1261
sI116
g1262
sI117
g1263
sI118
g1264
sI119
g1265
sI120
g1266
sI121
g1267
sI122
g1268
sI123
g1269
sI124
g1270
sI125
g1271
sI126
g1272
sI127
g1273
ssg17
VDest 2
p1691
sbag1
(g24
g3
Ntp1692
Rp1693
(dp1694
g15
g1145
sg29
(lp1695
sg19
(I3
I94
tp1696
sg32
I1
sg33
(dp1697
I0
g1149
sI1
g1150
sI2
g1151
sI3
g1152
sI4
g1153
sI5
g1154
sI6
g1155
sI7
g1156
sI8
g1157
sI9
g1158
sI10
g1159
sI11
g1160
sI12
g1161
sI13
g1162
sI14
g1163
sI15
g1164
sI16
g1165
sI17
g1166
sI18
g1167
sI19
g1168
sI20
g1169
sI21
g1170
sI22
g1171
sI23
g1172
sI24
g1173
sI25
g1174
sI26
g1175
sI27
g1176
sI28
g1177
sI29
g1178
sI30
g1179
sI31
g1180
sI32
g1181
sI33
g1182
sI34
g1183
sI35
g1184
sI36
g1185
sI37
g1186
sI38
g1187
sI39
g1188
sI40
g1189
sI41
g1190
sI42
g1191
sI43
g1192
sI44
g1193
sI45
g1194
sI46
g1195
sI47
g1196
sI48
g1197
sI49
g1198
sI50
g1199
sI51
g1200
sI52
g1201
sI53
g1202
sI54
g1203
sI55
g1204
sI56
g1205
sI57
g1206
sI58
g1207
sI59
g1208
sI60
g1209
sI61
g1210
sI62
g1211
sI63
g1212
sI64
g1213
sI65
g1214
sI66
g1215
sI67
g1216
sI68
g1217
sI69
g1218
sI70
g1219
sI71
g1220
sI72
g1221
sI73
g1222
sI74
g1223
sI75
g1224
sI76
g1225
sI77
g1226
sI80
g1227
sI82
g1228
sI83
g1229
sI84
g1230
sI85
g1231
sI86
g1232
sI87
g1233
sI88
g1234
sI89
g1235
sI90
g1236
sI91
g1237
sI92
g1238
sI93
g1239
sI94
g1240
sI95
g1241
sI96
g1242
sI97
g1243
sI98
g1244
sI99
g1245
sI100
g1246
sI101
g1247
sI102
g1248
sI103
g1249
sI104
g1250
sI105
g1251
sI106
g1252
sI107
g1253
sI108
g1254
sI109
g1255
sI110
g1256
sI111
g1257
sI112
g1258
sI113
g1259
sI114
g1260
sI115
g1261
sI116
g1262
sI117
g1263
sI118
g1264
sI119
g1265
sI120
g1266
sI121
g1267
sI122
g1268
sI123
g1269
sI124
g1270
sI125
g1271
sI126
g1272
sI127
g1273
ssg17
VDest 3
p1698
sbasg33
(dp1699
sbag1
(g11
g3
Ntp1700
Rp1701
(dp1702
g15
g1497
sg17
VSlot 5
p1703
sg19
g1499
sg21
I0
sg22
(lp1704
g1
(g24
g3
Ntp1705
Rp1706
(dp1707
g15
g1504
sg29
(lp1708
sg19
(I1
I106
tp1709
sg32
I1
sg33
(dp1710
I0
g1508
sI1
g1509
sI2
g1510
sI3
g1511
sI4
g1512
sI5
g1513
sI6
g1514
sI7
g1515
sI8
g1516
sI9
g1517
sI10
g1518
sI11
g1519
sI12
g1520
sI13
g1521
sI14
g1522
sI15
g1523
sI16
g1524
sI17
g1525
sI18
g1526
sI19
g1527
sI20
g1528
sI21
g1529
sI22
g1530
sI23
g1531
sI24
g1532
sI25
g1533
sI26
g1534
sI27
g1535
sI28
g1536
sI29
g1537
sI30
g1538
sI31
g1539
sI32
g1540
sI33
g1541
sI34
g1542
sI35
g1543
sI36
g1544
sI37
g1545
ssg17
VSource
p1711
sbag1
(g24
g3
Ntp1712
Rp1713
(dp1714
g15
g1145
sg29
(lp1715
sg19
(I1
I108
tp1716
sg32
I4
sg33
(dp1717
sg17
VAmount 1
p1718
sbag1
(g24
g3
Ntp1719
Rp1720
(dp1721
g15
g1145
sg29
(lp1722
sg19
(I3
I101
tp1723
sg32
I4
sg33
(dp1724
sg17
VAmount 2
p1725
sbag1
(g24
g3
Ntp1726
Rp1727
(dp1728
g15
g1145
sg29
(lp1729
sg19
(I3
I103
tp1730
sg32
I4
sg33
(dp1731
sg17
VAmount 3
p1732
sbag1
(g24
g3
Ntp1733
Rp1734
(dp1735
g15
g1145
sg29
(lp1736
sg19
(I1
I107
tp1737
sg32
I1
sg33
(dp1738
I0
g1149
sI1
g1150
sI2
g1151
sI3
g1152
sI4
g1153
sI5
g1154
sI6
g1155
sI7
g1156
sI8
g1157
sI9
g1158
sI10
g1159
sI11
g1160
sI12
g1161
sI13
g1162
sI14
g1163
sI15
g1164
sI16
g1165
sI17
g1166
sI18
g1167
sI19
g1168
sI20
g1169
sI21
g1170
sI22
g1171
sI23
g1172
sI24
g1173
sI25
g1174
sI26
g1175
sI27
g1176
sI28
g1177
sI29
g1178
sI30
g1179
sI31
g1180
sI32
g1181
sI33
g1182
sI34
g1183
sI35
g1184
sI36
g1185
sI37
g1186
sI38
g1187
sI39
g1188
sI40
g1189
sI41
g1190
sI42
g1191
sI43
g1192
sI44
g1193
sI45
g1194
sI46
g1195
sI47
g1196
sI48
g1197
sI49
g1198
sI50
g1199
sI51
g1200
sI52
g1201
sI53
g1202
sI54
g1203
sI55
g1204
sI56
g1205
sI57
g1206
sI58
g1207
sI59
g1208
sI60
g1209
sI61
g1210
sI62
g1211
sI63
g1212
sI64
g1213
sI65
g1214
sI66
g1215
sI67
g1216
sI68
g1217
sI69
g1218
sI70
g1219
sI71
g1220
sI72
g1221
sI73
g1222
sI74
g1223
sI75
g1224
sI76
g1225
sI77
g1226
sI80
g1227
sI82
g1228
sI83
g1229
sI84
g1230
sI85
g1231
sI86
g1232
sI87
g1233
sI88
g1234
sI89
g1235
sI90
g1236
sI91
g1237
sI92
g1238
sI93
g1239
sI94
g1240
sI95
g1241
sI96
g1242
sI97
g1243
sI98
g1244
sI99
g1245
sI100
g1246
sI101
g1247
sI102
g1248
sI103
g1249
sI104
g1250
sI105
g1251
sI106
g1252
sI107
g1253
sI108
g1254
sI109
g1255
sI110
g1256
sI111
g1257
sI112
g1258
sI113
g1259
sI114
g1260
sI115
g1261
sI116
g1262
sI117
g1263
sI118
g1264
sI119
g1265
sI120
g1266
sI121
g1267
sI122
g1268
sI123
g1269
sI124
g1270
sI125
g1271
sI126
g1272
sI127
g1273
ssg17
VDest 1
p1739
sbag1
(g24
g3
Ntp1740
Rp1741
(dp1742
g15
g1145
sg29
(lp1743
sg19
(I3
I100
tp1744
sg32
I1
sg33
(dp1745
I0
g1149
sI1
g1150
sI2
g1151
sI3
g1152
sI4
g1153
sI5
g1154
sI6
g1155
sI7
g1156
sI8
g1157
sI9
g1158
sI10
g1159
sI11
g1160
sI12
g1161
sI13
g1162
sI14
g1163
sI15
g1164
sI16
g1165
sI17
g1166
sI18
g1167
sI19
g1168
sI20
g1169
sI21
g1170
sI22
g1171
sI23
g1172
sI24
g1173
sI25
g1174
sI26
g1175
sI27
g1176
sI28
g1177
sI29
g1178
sI30
g1179
sI31
g1180
sI32
g1181
sI33
g1182
sI34
g1183
sI35
g1184
sI36
g1185
sI37
g1186
sI38
g1187
sI39
g1188
sI40
g1189
sI41
g1190
sI42
g1191
sI43
g1192
sI44
g1193
sI45
g1194
sI46
g1195
sI47
g1196
sI48
g1197
sI49
g1198
sI50
g1199
sI51
g1200
sI52
g1201
sI53
g1202
sI54
g1203
sI55
g1204
sI56
g1205
sI57
g1206
sI58
g1207
sI59
g1208
sI60
g1209
sI61
g1210
sI62
g1211
sI63
g1212
sI64
g1213
sI65
g1214
sI66
g1215
sI67
g1216
sI68
g1217
sI69
g1218
sI70
g1219
sI71
g1220
sI72
g1221
sI73
g1222
sI74
g1223
sI75
g1224
sI76
g1225
sI77
g1226
sI80
g1227
sI82
g1228
sI83
g1229
sI84
g1230
sI85
g1231
sI86
g1232
sI87
g1233
sI88
g1234
sI89
g1235
sI90
g1236
sI91
g1237
sI92
g1238
sI93
g1239
sI94
g1240
sI95
g1241
sI96
g1242
sI97
g1243
sI98
g1244
sI99
g1245
sI100
g1246
sI101
g1247
sI102
g1248
sI103
g1249
sI104
g1250
sI105
g1251
sI106
g1252
sI107
g1253
sI108
g1254
sI109
g1255
sI110
g1256
sI111
g1257
sI112
g1258
sI113
g1259
sI114
g1260
sI115
g1261
sI116
g1262
sI117
g1263
sI118
g1264
sI119
g1265
sI120
g1266
sI121
g1267
sI122
g1268
sI123
g1269
sI124
g1270
sI125
g1271
sI126
g1272
sI127
g1273
ssg17
VDest 2
p1746
sbag1
(g24
g3
Ntp1747
Rp1748
(dp1749
g15
g1145
sg29
(lp1750
sg19
(I3
I102
tp1751
sg32
I1
sg33
(dp1752
I0
g1149
sI1
g1150
sI2
g1151
sI3
g1152
sI4
g1153
sI5
g1154
sI6
g1155
sI7
g1156
sI8
g1157
sI9
g1158
sI10
g1159
sI11
g1160
sI12
g1161
sI13
g1162
sI14
g1163
sI15
g1164
sI16
g1165
sI17
g1166
sI18
g1167
sI19
g1168
sI20
g1169
sI21
g1170
sI22
g1171
sI23
g1172
sI24
g1173
sI25
g1174
sI26
g1175
sI27
g1176
sI28
g1177
sI29
g1178
sI30
g1179
sI31
g1180
sI32
g1181
sI33
g1182
sI34
g1183
sI35
g1184
sI36
g1185
sI37
g1186
sI38
g1187
sI39
g1188
sI40
g1189
sI41
g1190
sI42
g1191
sI43
g1192
sI44
g1193
sI45
g1194
sI46
g1195
sI47
g1196
sI48
g1197
sI49
g1198
sI50
g1199
sI51
g1200
sI52
g1201
sI53
g1202
sI54
g1203
sI55
g1204
sI56
g1205
sI57
g1206
sI58
g1207
sI59
g1208
sI60
g1209
sI61
g1210
sI62
g1211
sI63
g1212
sI64
g1213
sI65
g1214
sI66
g1215
sI67
g1216
sI68
g1217
sI69
g1218
sI70
g1219
sI71
g1220
sI72
g1221
sI73
g1222
sI74
g1223
sI75
g1224
sI76
g1225
sI77
g1226
sI80
g1227
sI82
g1228
sI83
g1229
sI84
g1230
sI85
g1231
sI86
g1232
sI87
g1233
sI88
g1234
sI89
g1235
sI90
g1236
sI91
g1237
sI92
g1238
sI93
g1239
sI94
g1240
sI95
g1241
sI96
g1242
sI97
g1243
sI98
g1244
sI99
g1245
sI100
g1246
sI101
g1247
sI102
g1248
sI103
g1249
sI104
g1250
sI105
g1251
sI106
g1252
sI107
g1253
sI108
g1254
sI109
g1255
sI110
g1256
sI111
g1257
sI112
g1258
sI113
g1259
sI114
g1260
sI115
g1261
sI116
g1262
sI117
g1263
sI118
g1264
sI119
g1265
sI120
g1266
sI121
g1267
sI122
g1268
sI123
g1269
sI124
g1270
sI125
g1271
sI126
g1272
sI127
g1273
ssg17
VDest 3
p1753
sbasg33
(dp1754
sbag1
(g11
g3
Ntp1755
Rp1756
(dp1757
g15
g1497
sg17
VSlot 3
p1758
sg19
g1499
sg21
I0
sg22
(lp1759
g1
(g24
g3
Ntp1760
Rp1761
(dp1762
g15
g1504
sg29
(lp1763
sg19
(I1
I72
tp1764
sg32
I1
sg33
(dp1765
I0
g1508
sI1
g1509
sI2
g1510
sI3
g1511
sI4
g1512
sI5
g1513
sI6
g1514
sI7
g1515
sI8
g1516
sI9
g1517
sI10
g1518
sI11
g1519
sI12
g1520
sI13
g1521
sI14
g1522
sI15
g1523
sI16
g1524
sI17
g1525
sI18
g1526
sI19
g1527
sI20
g1528
sI21
g1529
sI22
g1530
sI23
g1531
sI24
g1532
sI25
g1533
sI26
g1534
sI27
g1535
sI28
g1536
sI29
g1537
sI30
g1538
sI31
g1539
sI32
g1540
sI33
g1541
sI34
g1542
sI35
g1543
sI36
g1544
sI37
g1545
ssg17
VSource
p1766
sbag1
(g24
g3
Ntp1767
Rp1768
(dp1769
g15
g1145
sg29
(lp1770
sg19
(I1
I74
tp1771
sg32
I4
sg33
(dp1772
sg17
VAmount 1
p1773
sbag1
(g24
g3
Ntp1774
Rp1775
(dp1776
g15
g1145
sg29
(lp1777
sg19
(I1
I76
tp1778
sg32
I4
sg33
(dp1779
sg17
VAmount 2
p1780
sbag1
(g24
g3
Ntp1781
Rp1782
(dp1783
g15
g1145
sg29
(lp1784
sg19
(I1
I78
tp1785
sg32
I4
sg33
(dp1786
sg17
VAmount 3
p1787
sbag1
(g24
g3
Ntp1788
Rp1789
(dp1790
g15
g1145
sg29
(lp1791
sg19
(I1
I73
tp1792
sg32
I1
sg33
(dp1793
I0
g1149
sI1
g1150
sI2
g1151
sI3
g1152
sI4
g1153
sI5
g1154
sI6
g1155
sI7
g1156
sI8
g1157
sI9
g1158
sI10
g1159
sI11
g1160
sI12
g1161
sI13
g1162
sI14
g1163
sI15
g1164
sI16
g1165
sI17
g1166
sI18
g1167
sI19
g1168
sI20
g1169
sI21
g1170
sI22
g1171
sI23
g1172
sI24
g1173
sI25
g1174
sI26
g1175
sI27
g1176
sI28
g1177
sI29
g1178
sI30
g1179
sI31
g1180
sI32
g1181
sI33
g1182
sI34
g1183
sI35
g1184
sI36
g1185
sI37
g1186
sI38
g1187
sI39
g1188
sI40
g1189
sI41
g1190
sI42
g1191
sI43
g1192
sI44
g1193
sI45
g1194
sI46
g1195
sI47
g1196
sI48
g1197
sI49
g1198
sI50
g1199
sI51
g1200
sI52
g1201
sI53
g1202
sI54
g1203
sI55
g1204
sI56
g1205
sI57
g1206
sI58
g1207
sI59
g1208
sI60
g1209
sI61
g1210
sI62
g1211
sI63
g1212
sI64
g1213
sI65
g1214
sI66
g1215
sI67
g1216
sI68
g1217
sI69
g1218
sI70
g1219
sI71
g1220
sI72
g1221
sI73
g1222
sI74
g1223
sI75
g1224
sI76
g1225
sI77
g1226
sI80
g1227
sI82
g1228
sI83
g1229
sI84
g1230
sI85
g1231
sI86
g1232
sI87
g1233
sI88
g1234
sI89
g1235
sI90
g1236
sI91
g1237
sI92
g1238
sI93
g1239
sI94
g1240
sI95
g1241
sI96
g1242
sI97
g1243
sI98
g1244
sI99
g1245
sI100
g1246
sI101
g1247
sI102
g1248
sI103
g1249
sI104
g1250
sI105
g1251
sI106
g1252
sI107
g1253
sI108
g1254
sI109
g1255
sI110
g1256
sI111
g1257
sI112
g1258
sI113
g1259
sI114
g1260
sI115
g1261
sI116
g1262
sI117
g1263
sI118
g1264
sI119
g1265
sI120
g1266
sI121
g1267
sI122
g1268
sI123
g1269
sI124
g1270
sI125
g1271
sI126
g1272
sI127
g1273
ssg17
VDest 1
p1794
sbag1
(g24
g3
Ntp1795
Rp1796
(dp1797
g15
g1145
sg29
(lp1798
sg19
(I1
I75
tp1799
sg32
I1
sg33
(dp1800
I0
g1149
sI1
g1150
sI2
g1151
sI3
g1152
sI4
g1153
sI5
g1154
sI6
g1155
sI7
g1156
sI8
g1157
sI9
g1158
sI10
g1159
sI11
g1160
sI12
g1161
sI13
g1162
sI14
g1163
sI15
g1164
sI16
g1165
sI17
g1166
sI18
g1167
sI19
g1168
sI20
g1169
sI21
g1170
sI22
g1171
sI23
g1172
sI24
g1173
sI25
g1174
sI26
g1175
sI27
g1176
sI28
g1177
sI29
g1178
sI30
g1179
sI31
g1180
sI32
g1181
sI33
g1182
sI34
g1183
sI35
g1184
sI36
g1185
sI37
g1186
sI38
g1187
sI39
g1188
sI40
g1189
sI41
g1190
sI42
g1191
sI43
g1192
sI44
g1193
sI45
g1194
sI46
g1195
sI47
g1196
sI48
g1197
sI49
g1198
sI50
g1199
sI51
g1200
sI52
g1201
sI53
g1202
sI54
g1203
sI55
g1204
sI56
g1205
sI57
g1206
sI58
g1207
sI59
g1208
sI60
g1209
sI61
g1210
sI62
g1211
sI63
g1212
sI64
g1213
sI65
g1214
sI66
g1215
sI67
g1216
sI68
g1217
sI69
g1218
sI70
g1219
sI71
g1220
sI72
g1221
sI73
g1222
sI74
g1223
sI75
g1224
sI76
g1225
sI77
g1226
sI80
g1227
sI82
g1228
sI83
g1229
sI84
g1230
sI85
g1231
sI86
g1232
sI87
g1233
sI88
g1234
sI89
g1235
sI90
g1236
sI91
g1237
sI92
g1238
sI93
g1239
sI94
g1240
sI95
g1241
sI96
g1242
sI97
g1243
sI98
g1244
sI99
g1245
sI100
g1246
sI101
g1247
sI102
g1248
sI103
g1249
sI104
g1250
sI105
g1251
sI106
g1252
sI107
g1253
sI108
g1254
sI109
g1255
sI110
g1256
sI111
g1257
sI112
g1258
sI113
g1259
sI114
g1260
sI115
g1261
sI116
g1262
sI117
g1263
sI118
g1264
sI119
g1265
sI120
g1266
sI121
g1267
sI122
g1268
sI123
g1269
sI124
g1270
sI125
g1271
sI126
g1272
sI127
g1273
ssg17
VDest 2
p1801
sbag1
(g24
g3
Ntp1802
Rp1803
(dp1804
g15
g1145
sg29
(lp1805
sg19
(I1
I77
tp1806
sg32
I1
sg33
(dp1807
I0
g1149
sI1
g1150
sI2
g1151
sI3
g1152
sI4
g1153
sI5
g1154
sI6
g1155
sI7
g1156
sI8
g1157
sI9
g1158
sI10
g1159
sI11
g1160
sI12
g1161
sI13
g1162
sI14
g1163
sI15
g1164
sI16
g1165
sI17
g1166
sI18
g1167
sI19
g1168
sI20
g1169
sI21
g1170
sI22
g1171
sI23
g1172
sI24
g1173
sI25
g1174
sI26
g1175
sI27
g1176
sI28
g1177
sI29
g1178
sI30
g1179
sI31
g1180
sI32
g1181
sI33
g1182
sI34
g1183
sI35
g1184
sI36
g1185
sI37
g1186
sI38
g1187
sI39
g1188
sI40
g1189
sI41
g1190
sI42
g1191
sI43
g1192
sI44
g1193
sI45
g1194
sI46
g1195
sI47
g1196
sI48
g1197
sI49
g1198
sI50
g1199
sI51
g1200
sI52
g1201
sI53
g1202
sI54
g1203
sI55
g1204
sI56
g1205
sI57
g1206
sI58
g1207
sI59
g1208
sI60
g1209
sI61
g1210
sI62
g1211
sI63
g1212
sI64
g1213
sI65
g1214
sI66
g1215
sI67
g1216
sI68
g1217
sI69
g1218
sI70
g1219
sI71
g1220
sI72
g1221
sI73
g1222
sI74
g1223
sI75
g1224
sI76
g1225
sI77
g1226
sI80
g1227
sI82
g1228
sI83
g1229
sI84
g1230
sI85
g1231
sI86
g1232
sI87
g1233
sI88
g1234
sI89
g1235
sI90
g1236
sI91
g1237
sI92
g1238
sI93
g1239
sI94
g1240
sI95
g1241
sI96
g1242
sI97
g1243
sI98
g1244
sI99
g1245
sI100
g1246
sI101
g1247
sI102
g1248
sI103
g1249
sI104
g1250
sI105
g1251
sI106
g1252
sI107
g1253
sI108
g1254
sI109
g1255
sI110
g1256
sI111
g1257
sI112
g1258
sI113
g1259
sI114
g1260
sI115
g1261
sI116
g1262
sI117
g1263
sI118
g1264
sI119
g1265
sI120
g1266
sI121
g1267
sI122
g1268
sI123
g1269
sI124
g1270
sI125
g1271
sI126
g1272
sI127
g1273
ssg17
VDest 3
p1808
sbasg33
(dp1809
sbag1
(g11
g3
Ntp1810
Rp1811
(dp1812
g15
g1497
sg17
VSlot 6
p1813
sg19
g1499
sg21
I0
sg22
(lp1814
g1
(g24
g3
Ntp1815
Rp1816
(dp1817
g15
g1504
sg29
(lp1818
sg19
(I1
I109
tp1819
sg32
I1
sg33
(dp1820
I0
g1508
sI1
g1509
sI2
g1510
sI3
g1511
sI4
g1512
sI5
g1513
sI6
g1514
sI7
g1515
sI8
g1516
sI9
g1517
sI10
g1518
sI11
g1519
sI12
g1520
sI13
g1521
sI14
g1522
sI15
g1523
sI16
g1524
sI17
g1525
sI18
g1526
sI19
g1527
sI20
g1528
sI21
g1529
sI22
g1530
sI23
g1531
sI24
g1532
sI25
g1533
sI26
g1534
sI27
g1535
sI28
g1536
sI29
g1537
sI30
g1538
sI31
g1539
sI32
g1540
sI33
g1541
sI34
g1542
sI35
g1543
sI36
g1544
sI37
g1545
ssg17
VSource
p1821
sbag1
(g24
g3
Ntp1822
Rp1823
(dp1824
g15
g1145
sg29
(lp1825
sg19
(I1
I111
tp1826
sg32
I4
sg33
(dp1827
sg17
VAmount 1
p1828
sbag1
(g24
g3
Ntp1829
Rp1830
(dp1831
g15
g1145
sg29
(lp1832
sg19
(I3
I105
tp1833
sg32
I4
sg33
(dp1834
sg17
VAmount 2
p1835
sbag1
(g24
g3
Ntp1836
Rp1837
(dp1838
g15
g1145
sg29
(lp1839
sg19
(I3
I107
tp1840
sg32
I4
sg33
(dp1841
sg17
VAmount 3
p1842
sbag1
(g24
g3
Ntp1843
Rp1844
(dp1845
g15
g1145
sg29
(lp1846
sg19
(I1
I110
tp1847
sg32
I1
sg33
(dp1848
I0
g1149
sI1
g1150
sI2
g1151
sI3
g1152
sI4
g1153
sI5
g1154
sI6
g1155
sI7
g1156
sI8
g1157
sI9
g1158
sI10
g1159
sI11
g1160
sI12
g1161
sI13
g1162
sI14
g1163
sI15
g1164
sI16
g1165
sI17
g1166
sI18
g1167
sI19
g1168
sI20
g1169
sI21
g1170
sI22
g1171
sI23
g1172
sI24
g1173
sI25
g1174
sI26
g1175
sI27
g1176
sI28
g1177
sI29
g1178
sI30
g1179
sI31
g1180
sI32
g1181
sI33
g1182
sI34
g1183
sI35
g1184
sI36
g1185
sI37
g1186
sI38
g1187
sI39
g1188
sI40
g1189
sI41
g1190
sI42
g1191
sI43
g1192
sI44
g1193
sI45
g1194
sI46
g1195
sI47
g1196
sI48
g1197
sI49
g1198
sI50
g1199
sI51
g1200
sI52
g1201
sI53
g1202
sI54
g1203
sI55
g1204
sI56
g1205
sI57
g1206
sI58
g1207
sI59
g1208
sI60
g1209
sI61
g1210
sI62
g1211
sI63
g1212
sI64
g1213
sI65
g1214
sI66
g1215
sI67
g1216
sI68
g1217
sI69
g1218
sI70
g1219
sI71
g1220
sI72
g1221
sI73
g1222
sI74
g1223
sI75
g1224
sI76
g1225
sI77
g1226
sI80
g1227
sI82
g1228
sI83
g1229
sI84
g1230
sI85
g1231
sI86
g1232
sI87
g1233
sI88
g1234
sI89
g1235
sI90
g1236
sI91
g1237
sI92
g1238
sI93
g1239
sI94
g1240
sI95
g1241
sI96
g1242
sI97
g1243
sI98
g1244
sI99
g1245
sI100
g1246
sI101
g1247
sI102
g1248
sI103
g1249
sI104
g1250
sI105
g1251
sI106
g1252
sI107
g1253
sI108
g1254
sI109
g1255
sI110
g1256
sI111
g1257
sI112
g1258
sI113
g1259
sI114
g1260
sI115
g1261
sI116
g1262
sI117
g1263
sI118
g1264
sI119
g1265
sI120
g1266
sI121
g1267
sI122
g1268
sI123
g1269
sI124
g1270
sI125
g1271
sI126
g1272
sI127
g1273
ssg17
VDest 1
p1849
sbag1
(g24
g3
Ntp1850
Rp1851
(dp1852
g15
g1145
sg29
(lp1853
sg19
(I3
I104
tp1854
sg32
I1
sg33
(dp1855
I0
g1149
sI1
g1150
sI2
g1151
sI3
g1152
sI4
g1153
sI5
g1154
sI6
g1155
sI7
g1156
sI8
g1157
sI9
g1158
sI10
g1159
sI11
g1160
sI12
g1161
sI13
g1162
sI14
g1163
sI15
g1164
sI16
g1165
sI17
g1166
sI18
g1167
sI19
g1168
sI20
g1169
sI21
g1170
sI22
g1171
sI23
g1172
sI24
g1173
sI25
g1174
sI26
g1175
sI27
g1176
sI28
g1177
sI29
g1178
sI30
g1179
sI31
g1180
sI32
g1181
sI33
g1182
sI34
g1183
sI35
g1184
sI36
g1185
sI37
g1186
sI38
g1187
sI39
g1188
sI40
g1189
sI41
g1190
sI42
g1191
sI43
g1192
sI44
g1193
sI45
g1194
sI46
g1195
sI47
g1196
sI48
g1197
sI49
g1198
sI50
g1199
sI51
g1200
sI52
g1201
sI53
g1202
sI54
g1203
sI55
g1204
sI56
g1205
sI57
g1206
sI58
g1207
sI59
g1208
sI60
g1209
sI61
g1210
sI62
g1211
sI63
g1212
sI64
g1213
sI65
g1214
sI66
g1215
sI67
g1216
sI68
g1217
sI69
g1218
sI70
g1219
sI71
g1220
sI72
g1221
sI73
g1222
sI74
g1223
sI75
g1224
sI76
g1225
sI77
g1226
sI80
g1227
sI82
g1228
sI83
g1229
sI84
g1230
sI85
g1231
sI86
g1232
sI87
g1233
sI88
g1234
sI89
g1235
sI90
g1236
sI91
g1237
sI92
g1238
sI93
g1239
sI94
g1240
sI95
g1241
sI96
g1242
sI97
g1243
sI98
g1244
sI99
g1245
sI100
g1246
sI101
g1247
sI102
g1248
sI103
g1249
sI104
g1250
sI105
g1251
sI106
g1252
sI107
g1253
sI108
g1254
sI109
g1255
sI110
g1256
sI111
g1257
sI112
g1258
sI113
g1259
sI114
g1260
sI115
g1261
sI116
g1262
sI117
g1263
sI118
g1264
sI119
g1265
sI120
g1266
sI121
g1267
sI122
g1268
sI123
g1269
sI124
g1270
sI125
g1271
sI126
g1272
sI127
g1273
ssg17
VDest 2
p1856
sbag1
(g24
g3
Ntp1857
Rp1858
(dp1859
g15
g1145
sg29
(lp1860
sg19
(I3
I106
tp1861
sg32
I1
sg33
(dp1862
I0
g1149
sI1
g1150
sI2
g1151
sI3
g1152
sI4
g1153
sI5
g1154
sI6
g1155
sI7
g1156
sI8
g1157
sI9
g1158
sI10
g1159
sI11
g1160
sI12
g1161
sI13
g1162
sI14
g1163
sI15
g1164
sI16
g1165
sI17
g1166
sI18
g1167
sI19
g1168
sI20
g1169
sI21
g1170
sI22
g1171
sI23
g1172
sI24
g1173
sI25
g1174
sI26
g1175
sI27
g1176
sI28
g1177
sI29
g1178
sI30
g1179
sI31
g1180
sI32
g1181
sI33
g1182
sI34
g1183
sI35
g1184
sI36
g1185
sI37
g1186
sI38
g1187
sI39
g1188
sI40
g1189
sI41
g1190
sI42
g1191
sI43
g1192
sI44
g1193
sI45
g1194
sI46
g1195
sI47
g1196
sI48
g1197
sI49
g1198
sI50
g1199
sI51
g1200
sI52
g1201
sI53
g1202
sI54
g1203
sI55
g1204
sI56
g1205
sI57
g1206
sI58
g1207
sI59
g1208
sI60
g1209
sI61
g1210
sI62
g1211
sI63
g1212
sI64
g1213
sI65
g1214
sI66
g1215
sI67
g1216
sI68
g1217
sI69
g1218
sI70
g1219
sI71
g1220
sI72
g1221
sI73
g1222
sI74
g1223
sI75
g1224
sI76
g1225
sI77
g1226
sI80
g1227
sI82
g1228
sI83
g1229
sI84
g1230
sI85
g1231
sI86
g1232
sI87
g1233
sI88
g1234
sI89
g1235
sI90
g1236
sI91
g1237
sI92
g1238
sI93
g1239
sI94
g1240
sI95
g1241
sI96
g1242
sI97
g1243
sI98
g1244
sI99
g1245
sI100
g1246
sI101
g1247
sI102
g1248
sI103
g1249
sI104
g1250
sI105
g1251
sI106
g1252
sI107
g1253
sI108
g1254
sI109
g1255
sI110
g1256
sI111
g1257
sI112
g1258
sI113
g1259
sI114
g1260
sI115
g1261
sI116
g1262
sI117
g1263
sI118
g1264
sI119
g1265
sI120
g1266
sI121
g1267
sI122
g1268
sI123
g1269
sI124
g1270
sI125
g1271
sI126
g1272
sI127
g1273
ssg17
VDest 3
p1863
sbasg33
(dp1864
sbasg17
V.Matrix
p1865
sg703
I3
sbag1
(g2
g3
Ntp1866
Rp1867
(dp1868
g7
(dp1869
I0
I1
ssg9
(lp1870
g1
(g11
g3
Ntp1871
Rp1872
(dp1873
g15
(I0
I3
tp1874
sg17
VDelay
p1875
sg19
(I3
I10
tp1876
sg21
I1
sg22
(lp1877
g1
(g24
g3
Ntp1878
Rp1879
(dp1880
g15
(I0
I3
tp1881
sg29
(lp1882
I0
aI1
aI2
aI3
asg19
(I3
I10
tp1883
sg32
I1
sg33
(dp1884
I0
VClassic
p1885
sI1
VTape Clocked
p1886
sI2
VTape Free
p1887
sI3
VTape Doppler
p1888
ssg17
VType
p1889
sbag1
(g24
g3
Ntp1890
Rp1891
(dp1892
g15
(I0
I127
tp1893
sg29
(lp1894
I0
aI1
aI2
aI3
asg19
(I0
I113
tp1895
sg32
I13
sg33
(dp1896
I0
VOff 0
p1897
ssg17
VSend
p1898
sbag1
(g24
g3
Ntp1899
Rp1900
(dp1901
g15
g1893
sg29
(lp1902
I0
asg19
(I0
I115
tp1903
sg32
I7
sg33
(dp1904
sg17
VFeedback
p1905
sbag1
(g24
g3
Ntp1906
Rp1907
(dp1908
g15
g1893
sg29
(lp1909
I1
aI2
aI3
asg19
g1903
sg32
I7
sg33
(dp1910
I0
V0
p1911
sI1
V200
p1912
ssg17
VFeedback
p1913
sbag1
(g24
g3
Ntp1914
Rp1915
(dp1916
g15
g1893
sg29
(lp1917
sg19
(I0
I17
tp1918
sg32
I11
sg33
(dp1919
sg17
V--
p1920
sbag1
(g24
g3
Ntp1921
Rp1922
(dp1923
g15
(I1
I22
tp1924
sg29
(lp1925
I0
asg19
(I0
I112
tp1926
sg32
I1
sg33
(dp1927
I0
VSimple Delay
p1928
sI1
VSimple Delay
p1929
sI2
VPing Pong 2:1
p1930
sI3
VPing Pong 4:3
p1931
sI4
VPing Pong 4:1
p1932
sI5
VPing Pong 8:7
p1933
sI6
VPattern 1+1
p1934
sI7
VPattern 2+1
p1935
sI8
VPattern 3+1
p1936
sI9
VPattern 4+1
p1937
sI10
VPattern 5+1
p1938
sI11
VPattern 2+3
p1939
sI12
VPattern 2+5
p1940
sI13
VPattern 3+2
p1941
sI14
VPattern 3+3
p1942
sI15
VPattern 3+4
p1943
sI16
VPattern 3+5
p1944
sI17
VPattern 4+3
p1945
sI18
VPattern 4+5
p1946
sI19
VPattern 5+2
p1947
sI20
VPattern 5+3
p1948
sI21
VPattern 5+4
p1949
sI22
VPattern 5+5
p1950
ssg17
VMode
p1951
sbag1
(g24
g3
Ntp1952
Rp1953
(dp1954
g15
(I0
I16
tp1955
sg29
(lp1956
I0
asg19
(I1
I20
tp1957
sg32
I1
sg33
(dp1958
I0
VOff
p1959
sI1
V1/64
p1960
sI2
V1/32
p1961
sI3
V1/16
p1962
sI4
V1/8
p1963
sI5
V1/4
p1964
sI6
V1/2
p1965
sI7
V3/64
p1966
sI8
V3/32
p1967
sI9
V3/16
p1968
sI10
V3/8
p1969
sI11
V1/24
p1970
sI12
V1/12
p1971
sI13
V1/6
p1972
sI14
V1/3
p1973
sI15
V2/3
p1974
sI16
V3/4
p1975
ssg17
VClock
p1976
sbag1
(g24
g3
Ntp1977
Rp1978
(dp1979
g15
(I0
I127
tp1980
sg29
(lp1981
I0
asg19
(I0
I114
tp1982
sg32
I0
sg33
(dp1983
sg17
VDelay Time
p1984
sbag1
(g24
g3
Ntp1985
Rp1986
(dp1987
g15
g1980
sg29
(lp1988
I0
asg19
(I0
I119
tp1989
sg32
I4
sg33
(dp1990
sg17
VColoration
p1991
sbag1
(g24
g3
Ntp1992
Rp1993
(dp1994
g15
g1980
sg29
(lp1995
I0
asg19
(I0
I116
tp1996
sg32
I0
sg33
(dp1997
sg17
VRate
p1998
sbag1
(g24
g3
Ntp1999
Rp2000
(dp2001
g15
g1980
sg29
(lp2002
I0
asg19
(I0
I117
tp2003
sg32
I7
sg33
(dp2004
sg17
VDepth
p2005
sbag1
(g24
g3
Ntp2006
Rp2007
(dp2008
g15
(I0
I5
tp2009
sg29
(lp2010
I0
asg19
(I0
I118
tp2011
sg32
I1
sg33
(dp2012
I0
VSine
p2013
sI1
VTriangle
p2014
sI2
VSawtooth
p2015
sI3
VSquare
p2016
sI4
VS&H
p2017
sI5
VS&G
p2018
ssg17
VLFO Wave
p2019
sbag1
(g24
g3
Ntp2020
Rp2021
(dp2022
g15
(I0
I5
tp2023
sg29
(lp2024
I1
aI2
aI3
asg19
(I3
I13
tp2025
sg32
I1
sg33
(dp2026
I0
V1/32
p2027
sI1
V1/16
p2028
sI2
V2/16
p2029
sI3
V3/16
p2030
sI4
V4/16
p2031
sI5
V5/16
p2032
ssg17
VLeft Clock
p2033
sbag1
(g24
g3
Ntp2034
Rp2035
(dp2036
g15
g2023
sg29
(lp2037
I1
aI2
aI3
asg19
(I3
I14
tp2038
sg32
I1
sg33
(dp2039
I0
g2027
sI1
g2028
sI2
g2029
sI3
g2030
sI4
g2031
sI5
g2032
ssg17
VRight Clock
p2040
sbag1
(g24
g3
Ntp2041
Rp2042
(dp2043
g15
g1980
sg29
(lp2044
I1
aI2
aI3
asg19
(I0
I119
tp2045
sg32
I0
sg33
(dp2046
sg17
VFrequency
p2047
sbag1
(g24
g3
Ntp2048
Rp2049
(dp2050
g15
g1980
sg29
(lp2051
I1
aI2
aI3
asg19
(I3
I17
tp2052
sg32
I0
sg33
(dp2053
sg17
VBand Width
p2054
sbag1
(g24
g3
Ntp2055
Rp2056
(dp2057
g15
g1980
sg29
(lp2058
I1
aI2
aI3
asg19
(I0
I117
tp2059
sg32
I7
sg33
(dp2060
sg17
VModulation
p2061
sbag1
(g24
g3
Ntp2062
Rp2063
(dp2064
g15
g1980
sg29
(lp2065
sg19
(I0
I17
tp2066
sg32
I11
sg33
(dp2067
sg17
V--
p2068
sbasg33
(dp2069
sbag1
(g11
g3
Ntp2070
Rp2071
(dp2072
g15
(I1
I3
tp2073
sg17
VReverb
p2074
sg19
(I3
I1
tp2075
sg21
I1
sg22
(lp2076
g1
(g24
g3
Ntp2077
Rp2078
(dp2079
g15
(I1
I3
tp2080
sg29
(lp2081
I0
aI1
aI2
aI3
asg19
(I3
I1
tp2082
sg32
I1
sg33
(dp2083
I0
VReverb
p2084
sI1
VReverb
p2085
sI2
VFeedback 1
p2086
sI3
VFeedback 2
p2087
ssg17
VMode
p2088
sbag1
(g24
g3
Ntp2089
Rp2090
(dp2091
g15
(I0
I3
tp2092
sg29
(lp2093
I1
aI2
aI3
asg19
(I3
I3
tp2094
sg32
I1
sg33
(dp2095
I0
VAmbience
p2096
sI1
VSmall Room
p2097
sI2
VLarge Room
p2098
sI3
VHall
p2099
ssg17
VType
p2100
sbag1
(g24
g3
Ntp2101
Rp2102
(dp2103
g15
g1980
sg29
(lp2104
I1
aI2
aI3
asg19
(I3
I2
tp2105
sg32
I13
sg33
(dp2106
I0
VOff 0
p2107
ssg17
VSend
p2108
sbag1
(g24
g3
Ntp2109
Rp2110
(dp2111
g15
g1955
sg29
(lp2112
I1
aI2
aI3
asg19
(I3
I8
tp2113
sg32
I1
sg33
(dp2114
I0
g1959
sI1
g1960
sI2
g1961
sI3
g1962
sI4
g1963
sI5
g1964
sI6
g1965
sI7
g1966
sI8
g1967
sI9
g1968
sI10
g1969
sI11
g1970
sI12
g1971
sI13
g1972
sI14
g1973
sI15
g1974
sI16
g1975
ssg17
VClock
p2115
sbag1
(g24
g3
Ntp2116
Rp2117
(dp2118
g15
g1980
sg29
(lp2119
I1
aI2
aI3
asg19
(I3
I4
tp2120
sg32
I0
sg33
(dp2121
sg17
VTime
p2122
sbag1
(g24
g3
Ntp2123
Rp2124
(dp2125
g15
g1980
sg29
(lp2126
I1
aI2
aI3
asg19
(I3
I5
tp2127
sg32
I7
sg33
(dp2128
sg17
VDamping
p2129
sbag1
(g24
g3
Ntp2130
Rp2131
(dp2132
g15
g1980
sg29
(lp2133
I1
aI2
aI3
asg19
(I3
I6
tp2134
sg32
I4
sg33
(dp2135
sg17
VColoration
p2136
sbag1
(g24
g3
Ntp2137
Rp2138
(dp2139
g15
(I0
I92
tp2140
sg29
(lp2141
I1
aI2
aI3
asg19
(I3
I7
tp2142
sg32
I0
sg33
(dp2143
sg17
VPredelay
p2144
sbag1
(g24
g3
Ntp2145
Rp2146
(dp2147
g15
g1980
sg29
(lp2148
I2
aI3
asg19
(I3
I9
tp2149
sg32
I0
sg33
(dp2150
sg17
VFeedback
p2151
sbag1
(g24
g3
Ntp2152
Rp2153
(dp2154
g15
g1980
sg29
(lp2155
sg19
g2066
sg32
I11
sg33
(dp2156
sg17
V--
p2157
sbasg33
(dp2158
I0
V6E 8 0 0
p2159
ssbasg17
VFX1
p2160
sg703
I1
sba.