(lp0
ccopy_reg
_reconstructor
p1
(cvxcctrl
PageDef
p2
c__builtin__
object
p3
Ntp4
Rp5
(dp6
S'collength'
p7
(dp8
I0
I2
sI1
I2
sI2
I2
ssS'blocks'
p9
(lp10
g1
(cvxcctrl
BlockDef
p11
g3
Ntp12
Rp13
(dp14
S'valrange'
p15
(I0
I7
tp16
sS'name'
p17
VOsc 1
p18
sS'cid'
p19
(I3
I30
tp20
sS'modetype'
p21
I1
sS'ctrldefs'
p22
(lp23
g1
(cvxcctrl
CtrlDef
p24
g3
Ntp25
Rp26
(dp27
g15
(I0
I7
tp28
sS'modes'
p29
(lp30
I0
aI1
aI2
aI3
aI4
aI5
aI6
aI7
asg19
(I3
I30
tp31
sS'ctype'
p32
I1
sS'valinfo'
p33
(dp34
I0
VClassic
p35
sI1
VHyperSaw
p36
sI2
VWavetable
p37
sI3
VWave PWM
p38
sI4
VGrain Simple
p39
sI5
VGrain Complex
p40
sI6
VFormant Simple
p41
sI7
VFormant Complex
p42
ssg17
VMode
p43
sbag1
(g24
g3
Ntp44
Rp45
(dp46
g15
(I0
I127
tp47
sg29
(lp48
I0
asg19
(I0
I17
tp49
sg32
I2
sg33
(dp50
I0
VWave
p51
sI1
VWave>Saw
p52
sI2
VSaw
p53
sI3
VSaw>Pulse
p54
sI4
VPulse
p55
ssg17
VShape
p56
sbag1
(g24
g3
Ntp57
Rp58
(dp59
g15
(I0
I127
tp60
sg29
(lp61
I1
asg19
(I0
I17
tp62
sg32
I8
sg33
(dp63
I0
V1 0
p64
sI1
V1.6 17
p65
sI2
V2 32
p66
sI3
V3 64
p67
sI4
V4 80
p68
sI5
V5 96
p69
sI6
V6 104
p70
sI7
V7 112
p71
sI8
V8 120
p72
sI9
V9 127
p73
ssg17
VDensity
p74
sbag1
(g24
g3
Ntp75
Rp76
(dp77
g15
(I0
I127
tp78
sg29
(lp79
I2
aI3
aI4
aI5
aI6
aI7
asg19
(I0
I17
tp80
sg32
I0
sg33
(dp81
sg17
VIndex
p82
sbag1
(g24
g3
Ntp83
Rp84
(dp85
g15
(I2
I63
tp86
sg29
(lp87
I0
asg19
(I0
I19
tp88
sg32
I12
sg33
(dp89
I0
VSine
p90
sI1
VTriangle
p91
sI2
VWave 3
p92
ssg17
VWave Sel
p93
sbag1
(g24
g3
Ntp94
Rp95
(dp96
g15
(I0
I99
tp97
sg29
(lp98
I2
aI3
aI4
aI5
aI6
aI7
asg19
(I0
I19
tp99
sg32
I1
sg33
(dp100
I0
VSine
p101
sI1
VHarmncSweep
p102
sI2
VGlass Sweep
p103
sI3
VDraw Bars
p104
sI4
VCluster
p105
sI5
VInsine Out
p106
sI6
VLanding
p107
sI7
VLiquid Metal
p108
sI8
VOpposition
p109
sI9
VOvertunes 1
p110
sI10
VOvertunes 2
p111
sI11
VScale Trix
p112
sI12
VSine Rider
p113
sI13
VSqr Series
p114
sI14
VUpsine Down
p115
sI15
VThumbs Up
p116
sI16
VWaterphone
p117
sI17
VE-Chime
p118
sI18
VTinkabell
p119
sI19
VBellfizz
p120
sI20
VBellentine
p121
sI21
VRobot Wars
p122
sI22
VAlternator
p123
sI23
VFinger Bass
p124
sI24
VFizzybar
p125
sI25
VFlutes
p126
sI26
VHP Love
p127
sI27
VMajestix
p128
sI28
VHotch Potch
p129
sI29
VResynater
p130
sI30
VSmooth Rough
p131
sI31
VSawsalito
p132
sI32
VBells 1
p133
sI33
VBells 2
p134
sI34
VSportReport
p135
sI35
VMetal Guru
p136
sI36
VBat Cave
p137
sI37
VAcetate
p138
sI38
VBuzzbizz
p139
sI39
VBuzzpartout
p140
sI40
VVanish
p141
sI41
VOverbones
p142
sI42
VPulsechecker
p143
sI43
VStratosfear
p144
sI44
VSooty Sweep
p145
sI45
VThroaty
p146
sI46
VDidgitalis
p147
sI47
VEvil
p148
sI48
VChords
p149
sI49
VFM Grit
p150
sI50
VBellsarnie
p151
sI51
VOctavius
p152
sI52
VEat Pulse
p153
sI53
VSinzin
p154
sI54
VSine System
p155
sI55
VClip Sweep
p156
sI56
VRoughage
p157
sI57
VWaving
p158
sI58
VPling Saw
p159
sI59
VE-Peas
p160
sI60
VBump Sweep
p161
sI61
VFilter Sqr
p162
sI62
VFourmant
p163
sI63
VFormantera
p164
sI64
VSundial 1
p165
sI65
VSundial 2
p166
sI66
VSundial 3
p167
sI67
VClipdial 1
p168
sI68
VClipdial 2
p169
sI69
VVoxonix
p170
sI70
VSolenoid
p171
sI71
VKlingKlang
p172
sI72
VViolator
p173
sI73
VPotassium
p174
sI74
VPile Up
p175
sI75
VTincanali
p176
sI76
VSniper
p177
sI77
VSqueezy
p178
sI78
VDecomposer
p179
sI79
VMorfants
p180
sI80
VPingvox
p181
sI81
VAdenoids
p182
sI82
VNasal
p183
sI83
VPartialism
p184
sI84
VTableDance
p185
sI85
VCascade
p186
sI86
VPrismism
p187
sI87
VFriction
p188
sI88
VRobotix
p189
sI89
VWhizzfizz
p190
sI90
VSpangly
p191
sI91
VFluxbin
p192
sI92
VFiboglide
p193
sI93
VFibonice
p194
sI94
VFibonasty
p195
sI95
VPenetrator
p196
sI96
VBlinder
p197
sI97
VElement 5
p198
sI98
VBad Signs
p199
sI99
VDomina7rix
p200
ssg17
VWaveTable
p201
sbag1
(g24
g3
Ntp202
Rp203
(dp204
g15
(I0
I127
tp205
sg29
(lp206
I0
asg19
(I0
I18
tp207
sg32
I7
sg33
(dp208
I0
V50
p209
sI1
V100
p210
ssg17
VPulse Width
p211
sbag1
(g24
g3
Ntp212
Rp213
(dp214
g15
g205
sg29
(lp215
I3
asg19
g207
sg32
I0
sg33
(dp216
I0
g209
sI1
g210
ssg17
VPulse Width
p217
sbag1
(g24
g3
Ntp218
Rp219
(dp220
g15
(I0
I127
tp221
sg29
(lp222
I1
asg19
(I0
I18
tp223
sg32
I0
sg33
(dp224
sg17
VLocal Detune
p225
sbag1
(g24
g3
Ntp226
Rp227
(dp228
g15
(I0
I127
tp229
sg29
(lp230
I4
aI5
aI6
aI7
asg19
(I3
I42
tp231
sg32
I4
sg33
(dp232
sg17
VF-Shift
p233
sbag1
(g24
g3
Ntp234
Rp235
(dp236
g15
g229
sg29
(lp237
I5
aI7
asg19
(I3
I37
tp238
sg32
I0
sg33
(dp239
sg17
VF-Spread
p240
sbag1
(g24
g3
Ntp241
Rp242
(dp243
g15
g229
sg29
(lp244
I2
aI3
aI4
aI5
aI6
aI7
asg19
(I3
I44
tp245
sg32
I0
sg33
(dp246
sg17
VInterpolation
p247
sbag1
(g24
g3
Ntp248
Rp249
(dp250
g15
g229
sg29
(lp251
I3
aI5
aI7
asg19
(I3
I43
tp252
sg32
I0
sg33
(dp253
sg17
VLocal Detune
p254
sbag1
(g24
g3
Ntp255
Rp256
(dp257
g15
(I0
I127
tp258
sg29
(lp259
sg19
(I0
I17
tp260
sg32
I11
sg33
(dp261
sg17
V----
p262
sbag1
(g24
g3
Ntp263
Rp264
(dp265
g15
(I16
I112
tp266
sg29
(lp267
I0
aI1
aI2
aI3
aI4
aI5
aI6
aI7
asg19
(I0
I20
tp268
sg32
I4
sg33
(dp269
sg17
VSemitone
p270
sbag1
(g24
g3
Ntp271
Rp272
(dp273
g15
(I0
I127
tp274
sg29
(lp275
I0
aI1
aI2
aI3
aI4
aI5
aI6
aI7
asg19
(I0
I21
tp276
sg32
I6
sg33
(dp277
I0
VNorm 32
p278
ssg17
VKey Follow
p279
sbasg33
(dp280
sbag1
(g11
g3
Ntp281
Rp282
(dp283
g15
(I0
I0
tp284
sg17
VCommon
p285
sg19
(I0
I17
tp286
sg21
I0
sg22
(lp287
g1
(g24
g3
Ntp288
Rp289
(dp290
g15
(I0
I127
tp291
sg29
(lp292
sg19
(I1
I35
tp293
sg32
I13
sg33
(dp294
I0
VOff 0
p295
ssg17
VPhase Init
p296
sbag1
(g24
g3
Ntp297
Rp298
(dp299
g15
(I0
I5
tp300
sg29
(lp301
sg19
(I0
I94
tp302
sg32
I1
sg33
(dp303
I0
VPoly
p304
sI1
VMono 1
p305
sI2
VMono 2
p306
sI3
VMono 3
p307
sI4
VMono 4
p308
sI5
VHold
p309
ssg17
VKey Mode
p310
sbag1
(g24
g3
Ntp311
Rp312
(dp313
g15
g291
sg29
(lp314
sg19
(I0
I5
tp315
sg32
I0
sg33
(dp316
sg17
VPortamento
p317
sbag1
(g24
g3
Ntp318
Rp319
(dp320
g15
g291
sg29
(lp321
sg19
(I1
I36
tp322
sg32
I0
sg33
(dp323
sg17
VPunch
p324
sbasg33
(dp325
sbag1
(g11
g3
Ntp326
Rp327
(dp328
g15
g16
sg17
VOsc 2
p329
sg19
(I3
I35
tp330
sg21
I1
sg22
(lp331
g1
(g24
g3
Ntp332
Rp333
(dp334
g15
g28
sg29
(lp335
I0
aI1
aI2
aI3
aI4
aI5
aI6
aI7
asg19
(I3
I35
tp336
sg32
I1
sg33
(dp337
I0
g35
sI1
g36
sI2
g37
sI3
g38
sI4
VGrain Simple
p338
sI5
VGrain Complex
p339
sI6
VFormant Simple
p340
sI7
VFormant Complex
p341
ssg17
VMode
p342
sbag1
(g24
g3
Ntp343
Rp344
(dp345
g15
g47
sg29
(lp346
I0
asg19
(I0
I22
tp347
sg32
I2
sg33
(dp348
I0
g51
sI1
g52
sI2
g53
sI3
g54
sI4
g55
ssg17
VShape
p349
sbag1
(g24
g3
Ntp350
Rp351
(dp352
g15
g60
sg29
(lp353
I1
asg19
(I0
I22
tp354
sg32
I8
sg33
(dp355
I0
g64
sI1
g65
sI2
g66
sI3
g67
sI4
g68
sI5
g69
sI6
g70
sI7
g71
sI8
g72
sI9
g73
ssg17
VDensity
p356
sbag1
(g24
g3
Ntp357
Rp358
(dp359
g15
g78
sg29
(lp360
I2
aI3
aI4
aI5
aI6
aI7
asg19
(I0
I22
tp361
sg32
I0
sg33
(dp362
sg17
VIndex
p363
sbag1
(g24
g3
Ntp364
Rp365
(dp366
g15
g86
sg29
(lp367
I0
asg19
(I0
I24
tp368
sg32
I12
sg33
(dp369
I0
g90
sI1
g91
sI2
g92
ssg17
VWave Sel
p370
sbag1
(g24
g3
Ntp371
Rp372
(dp373
g15
g97
sg29
(lp374
I2
aI3
aI4
aI5
aI6
aI7
asg19
(I0
I24
tp375
sg32
I1
sg33
(dp376
I0
g101
sI1
g102
sI2
g103
sI3
g104
sI4
g105
sI5
g106
sI6
g107
sI7
g108
sI8
g109
sI9
g110
sI10
g111
sI11
g112
sI12
g113
sI13
g114
sI14
g115
sI15
g116
sI16
g117
sI17
g118
sI18
g119
sI19
g120
sI20
g121
sI21
g122
sI22
g123
sI23
g124
sI24
g125
sI25
g126
sI26
g127
sI27
g128
sI28
g129
sI29
g130
sI30
g131
sI31
g132
sI32
g133
sI33
g134
sI34
g135
sI35
g136
sI36
g137
sI37
g138
sI38
g139
sI39
g140
sI40
g141
sI41
g142
sI42
g143
sI43
g144
sI44
g145
sI45
g146
sI46
g147
sI47
g148
sI48
g149
sI49
g150
sI50
g151
sI51
g152
sI52
g153
sI53
g154
sI54
g155
sI55
g156
sI56
g157
sI57
g158
sI58
g159
sI59
g160
sI60
g161
sI61
g162
sI62
g163
sI63
g164
sI64
g165
sI65
g166
sI66
g167
sI67
g168
sI68
g169
sI69
g170
sI70
g171
sI71
g172
sI72
g173
sI73
g174
sI74
g175
sI75
g176
sI76
g177
sI77
g178
sI78
g179
sI79
g180
sI80
g181
sI81
g182
sI82
g183
sI83
g184
sI84
g185
sI85
g186
sI86
g187
sI87
g188
sI88
g189
sI89
g190
sI90
g191
sI91
g192
sI92
g193
sI93
g194
sI94
g195
sI95
g196
sI96
g197
sI97
g198
sI98
g199
sI99
g200
ssg17
VWaveTable
p377
sbag1
(g24
g3
Ntp378
Rp379
(dp380
g15
g205
sg29
(lp381
I0
asg19
(I0
I23
tp382
sg32
I7
sg33
(dp383
I0
g209
sI1
g210
ssg17
VPulse Width
p384
sbag1
(g24
g3
Ntp385
Rp386
(dp387
g15
g205
sg29
(lp388
I3
asg19
(I0
I23
tp389
sg32
I0
sg33
(dp390
I0
g209
sI1
g210
ssg17
VPulse Width
p391
sbag1
(g24
g3
Ntp392
Rp393
(dp394
g15
g221
sg29
(lp395
I1
asg19
(I0
I23
tp396
sg32
I0
sg33
(dp397
sg17
VLocal Detune
p398
sbag1
(g24
g3
Ntp399
Rp400
(dp401
g15
g229
sg29
(lp402
I4
aI5
aI6
aI7
asg19
(I3
I62
tp403
sg32
I4
sg33
(dp404
sg17
VF-Shift
p405
sbag1
(g24
g3
Ntp406
Rp407
(dp408
g15
g229
sg29
(lp409
I5
aI7
asg19
(I3
I57
tp410
sg32
I0
sg33
(dp411
sg17
VF-Spread
p412
sbag1
(g24
g3
Ntp413
Rp414
(dp415
g15
g229
sg29
(lp416
I2
aI3
aI4
aI5
aI6
aI7
asg19
(I3
I64
tp417
sg32
I0
sg33
(dp418
sg17
VInterpolation
p419
sbag1
(g24
g3
Ntp420
Rp421
(dp422
g15
g229
sg29
(lp423
I3
aI5
aI7
asg19
(I3
I63
tp424
sg32
I0
sg33
(dp425
sg17
VLocal Detune
p426
sbag1
(g24
g3
Ntp427
Rp428
(dp429
g15
(I0
I127
tp430
sg29
(lp431
sg19
(I0
I17
tp432
sg32
I11
sg33
(dp433
sg17
V--
p434
sbag1
(g24
g3
Ntp435
Rp436
(dp437
g15
g266
sg29
(lp438
I0
aI1
aI2
aI3
aI4
aI5
aI6
aI7
asg19
(I0
I25
tp439
sg32
I4
sg33
(dp440
sg17
VSemitone
p441
sbag1
(g24
g3
Ntp442
Rp443
(dp444
g15
g274
sg29
(lp445
I0
aI1
aI2
aI3
aI4
aI5
aI6
aI7
asg19
(I0
I31
tp446
sg32
I6
sg33
(dp447
I0
g278
ssg17
VKey Follow
p448
sbag1
(g24
g3
Ntp449
Rp450
(dp451
g15
g229
sg29
(lp452
I0
aI1
aI2
aI3
aI4
aI5
aI6
aI7
asg19
(I0
I26
tp453
sg32
I0
sg33
(dp454
sg17
VDetune
p455
sbasg33
(dp456
sbag1
(g11
g3
Ntp457
Rp458
(dp459
g15
(I0
I7
tp460
sg17
VFM / Sync
p461
sg19
(I3
I35
tp462
sg21
I3
sg22
(lp463
g1
(g24
g3
Ntp464
Rp465
(dp466
g15
(I0
I6
tp467
sg29
(lp468
I0
asg19
(I1
I34
tp469
sg32
I1
sg33
(dp470
I0
VPos Triangle
p471
sI1
VTriangle
p472
sI2
VWave
p473
sI3
VNoise
p474
sI4
VIn L
p475
sI5
VIn L+R
p476
sI6
VIn R
p477
ssg17
VFM Mode
p478
sbag1
(g24
g3
Ntp479
Rp480
(dp481
g15
(I0
I1
tp482
sg29
(lp483
I2
aI3
aI4
aI5
aI6
aI7
asg19
g469
sg32
I1
sg33
(dp484
I0
VFreqMod
p485
sI1
VPhaseMod
p486
sI2
g473
sI3
g474
sI4
g475
sI5
g476
sI6
g477
ssg17
VFM Mode
p487
sbag1
(g24
g3
Ntp488
Rp489
(dp490
g15
g229
sg29
(lp491
I0
asg19
(I0
I27
tp492
sg32
I7
sg33
(dp493
I0
V0
p494
sI1
V100
p495
ssg17
VFM Amount
p496
sbag1
(g24
g3
Ntp497
Rp498
(dp499
g15
g229
sg29
(lp500
I2
aI3
aI4
aI5
aI6
aI7
asg19
g492
sg32
I0
sg33
(dp501
I0
g494
sI1
g495
ssg17
VFM Amount
p502
sbag1
(g24
g3
Ntp503
Rp504
(dp505
g15
(I0
I1
tp506
sg29
(lp507
I0
aI1
aI8
asg19
(I0
I28
tp508
sg32
I9
sg33
(dp509
I0
VOff
p510
sI1
VOn
p511
ssg17
VSync
p512
sbag1
(g24
g3
Ntp513
Rp514
(dp515
g15
g229
sg29
(lp516
I1
aI8
asg19
(I0
I27
tp517
sg32
I0
sg33
(dp518
sg17
VSync Freq
p519
sbag1
(g24
g3
Ntp520
Rp521
(dp522
g15
(I0
I127
tp523
sg29
(lp524
sg19
(I0
I17
tp525
sg32
I11
sg33
(dp526
sg17
V--
p527
sbasg33
(dp528
I0
V6E 30 1 1
p529
ssbag1
(g11
g3
Ntp530
Rp531
(dp532
g15
(I0
I7
tp533
sg17
VSub Oscillator
p534
sg19
(I3
I35
tp535
sg21
I3
sg22
(lp536
g1
(g24
g3
Ntp537
Rp538
(dp539
g15
(I0
I127
tp540
sg29
(lp541
I1
aI8
aI9
asg19
(I0
I34
tp542
sg32
I0
sg33
(dp543
sg17
VVolume
p544
sbag1
(g24
g3
Ntp545
Rp546
(dp547
g15
(I0
I1
tp548
sg29
(lp549
I8
asg19
(I0
I35
tp550
sg32
I1
sg33
(dp551
I0
VSquare
p552
sI1
VTriangle
p553
ssg17
VShape
p554
sbag1
(g24
g3
Ntp555
Rp556
(dp557
g15
g523
sg29
(lp558
sg19
g525
sg32
I11
sg33
(dp559
sg17
V--
p560
sbasg33
(dp561
I0
V6E 30 0 1
p562
ssbag1
(g11
g3
Ntp563
Rp564
(dp565
g15
(I2
I67
tp566
sg17
VOsc 3
p567
sg19
(I1
I41
tp568
sg21
I2
sg22
(lp569
g1
(g24
g3
Ntp570
Rp571
(dp572
g15
(I6
I67
tp573
sg29
(lp574
I0
aI1
aI2
asg19
(I1
I41
tp575
sg32
I12
sg33
(dp576
I0
VOff
p577
sI1
VSlave
p578
sI2
VSaw
p579
sI3
VPulse
p580
sI4
VSine
p581
sI5
VTriangle
p582
sI6
VWave 3
p583
ssg17
VMode/Wave
p584
sbag1
(g24
g3
Ntp585
Rp586
(dp587
g15
(I0
I127
tp588
sg29
(lp589
I2
asg19
(I1
I42
tp590
sg32
I0
sg33
(dp591
sg17
VVolume
p592
sbag1
(g24
g3
Ntp593
Rp594
(dp595
g15
(I16
I112
tp596
sg29
(lp597
I2
asg19
(I1
I43
tp598
sg32
I4
sg33
(dp599
sg17
VSemitone
p600
sbag1
(g24
g3
Ntp601
Rp602
(dp603
g15
g588
sg29
(lp604
I2
asg19
(I1
I44
tp605
sg32
I0
sg33
(dp606
sg17
VDetune
p607
sbag1
(g24
g3
Ntp608
Rp609
(dp610
g15
(I0
I127
tp611
sg29
(lp612
sg19
(I0
I17
tp613
sg32
I11
sg33
(dp614
sg17
V--
p615
sbasg33
(dp616
sbag1
(g11
g3
Ntp617
Rp618
(dp619
g15
g284
sg17
VMix
p620
sg19
g286
sg21
I0
sg22
(lp621
g1
(g24
g3
Ntp622
Rp623
(dp624
g15
g523
sg29
(lp625
sg19
(I0
I33
tp626
sg32
I5
sg33
(dp627
sg17
VOsc1/2 Bal
p628
sbag1
(g24
g3
Ntp629
Rp630
(dp631
g15
g523
sg29
(lp632
sg19
(I0
I36
tp633
sg32
I4
sg33
(dp634
sg17
VOsc Vol/Sat
p635
sbasg33
(dp636
sbag1
(g11
g3
Ntp637
Rp638
(dp639
g15
(I0
I3
tp640
sg17
VRing Mod
p641
sg19
(I0
I53
tp642
sg21
I1
sg22
(lp643
g1
(g24
g3
Ntp644
Rp645
(dp646
g15
g523
sg29
(lp647
I0
aI1
aI2
asg19
(I0
I50
tp648
sg32
I13
sg33
(dp649
I0
VOff 0
p650
ssg17
VVolume
p651
sbasg33
(dp652
sbag1
(g11
g3
Ntp653
Rp654
(dp655
g15
g284
sg17
VNoise
p656
sg19
g286
sg21
I0
sg22
(lp657
g1
(g24
g3
Ntp658
Rp659
(dp660
g15
g523
sg29
(lp661
sg19
(I0
I37
tp662
sg32
I13
sg33
(dp663
I0
VOff 0
p664
ssg17
VVolume
p665
sbag1
(g24
g3
Ntp666
Rp667
(dp668
g15
g523
sg29
(lp669
sg19
(I0
I39
tp670
sg32
I4
sg33
(dp671
sg17
VColor
p672
sbasg33
(dp673
sbasg17
VOsc
p674
sS'cols'
p675
I2
sbag1
(g2
g3
Ntp676
Rp677
(dp678
g7
(dp679
I0
I2
sI1
I2
ssg9
(lp680
g1
(g11
g3
Ntp681
Rp682
(dp683
g15
(I0
I0
tp684
sg17
VFilter 1
p685
sg19
(I0
I17
tp686
sg21
I0
sg22
(lp687
g1
(g24
g3
Ntp688
Rp689
(dp690
g15
(I0
I7
tp691
sg29
(lp692
sg19
(I0
I51
tp693
sg32
I1
sg33
(dp694
I0
VLow Pass
p695
sI1
VHigh Pass
p696
sI2
VBand Pass
p697
sI3
VBand Stop
p698
sI4
VAnalog 1 Pole
p699
sI5
VAnalog 2 Pole
p700
sI6
VAnalog 3 Pole
p701
sI7
VAnalog 4 Pole
p702
ssg17
VMode
p703
sbag1
(g24
g3
Ntp704
Rp705
(dp706
g15
g540
sg29
(lp707
sg19
(I0
I40
tp708
sg32
I0
sg33
(dp709
sg17
VCutoff
p710
sbag1
(g24
g3
Ntp711
Rp712
(dp713
g15
g540
sg29
(lp714
sg19
(I0
I42
tp715
sg32
I0
sg33
(dp716
sg17
VResonance
p717
sbag1
(g24
g3
Ntp718
Rp719
(dp720
g15
g540
sg29
(lp721
sg19
(I0
I44
tp722
sg32
I7
sg33
(dp723
sg17
VEnv Amount
p724
sbag1
(g24
g3
Ntp725
Rp726
(dp727
g15
g540
sg29
(lp728
sg19
(I0
I46
tp729
sg32
I4
sg33
(dp730
sg17
VKey Follow
p731
sbag1
(g24
g3
Ntp732
Rp733
(dp734
g15
(I0
I1
tp735
sg29
(lp736
sg19
(I1
I30
tp737
sg32
I1
sg33
(dp738
I0
VNegative
p739
sI1
VPositive
p740
ssg17
VEnv Polarity
p741
sbasg33
(dp742
sbag1
(g11
g3
Ntp743
Rp744
(dp745
g15
(I0
I1
tp746
sg17
VFilter 2
p747
sg19
(I1
I32
tp748
sg21
I1
sg22
(lp749
g1
(g24
g3
Ntp750
Rp751
(dp752
g15
(I0
I3
tp753
sg29
(lp754
I0
aI1
asg19
(I0
I52
tp755
sg32
I1
sg33
(dp756
I0
g695
sI1
g696
sI2
g697
sI3
g698
sI4
g699
sI5
g700
sI6
g701
sI7
g702
ssg17
VMode
p757
sbag1
(g24
g3
Ntp758
Rp759
(dp760
g15
g540
sg29
(lp761
I0
asg19
(I0
I41
tp762
sg32
I0
sg33
(dp763
sg17
VCutoff
p764
sbag1
(g24
g3
Ntp765
Rp766
(dp767
g15
g540
sg29
(lp768
I1
asg19
(I0
I41
tp769
sg32
I4
sg33
(dp770
sg17
VOffset
p771
sbag1
(g24
g3
Ntp772
Rp773
(dp774
g15
g540
sg29
(lp775
I0
aI1
asg19
(I0
I43
tp776
sg32
I0
sg33
(dp777
sg17
VResonance
p778
sbag1
(g24
g3
Ntp779
Rp780
(dp781
g15
g540
sg29
(lp782
I0
aI1
asg19
(I0
I45
tp783
sg32
I7
sg33
(dp784
sg17
VEnv Amount
p785
sbag1
(g24
g3
Ntp786
Rp787
(dp788
g15
g540
sg29
(lp789
I0
aI1
asg19
(I0
I47
tp790
sg32
I4
sg33
(dp791
sg17
VKey Follow
p792
sbag1
(g24
g3
Ntp793
Rp794
(dp795
g15
g735
sg29
(lp796
I0
aI1
asg19
(I1
I31
tp797
sg32
I1
sg33
(dp798
I0
g739
sI1
g740
ssg17
VEnv Polarity
p799
sbasg33
(dp800
sbag1
(g11
g3
Ntp801
Rp802
(dp803
g15
(I0
I3
tp804
sg17
VCommon
p805
sg19
(I0
I53
tp806
sg21
I1
sg22
(lp807
g1
(g24
g3
Ntp808
Rp809
(dp810
g15
(I0
I3
tp811
sg29
(lp812
I0
aI1
aI2
aI3
asg19
(I0
I53
tp813
sg32
I1
sg33
(dp814
I0
VSerial 4
p815
sI1
VSerial 6
p816
sI2
VParallel 4
p817
sI3
VSplit Mode
p818
ssg17
VRouting
p819
sbag1
(g24
g3
Ntp820
Rp821
(dp822
g15
g540
sg29
(lp823
I0
aI1
aI2
aI3
asg19
(I0
I48
tp824
sg32
I4
sg33
(dp825
sg17
VFilter Balance
p826
sbag1
(g24
g3
Ntp827
Rp828
(dp829
g15
(I0
I1
tp830
sg29
(lp831
I0
aI1
aI2
aI3
asg19
(I1
I32
tp832
sg32
I9
sg33
(dp833
sg17
VCutoff Link
p834
sbag1
(g24
g3
Ntp835
Rp836
(dp837
g15
g540
sg29
(lp838
I0
aI1
aI2
aI3
asg19
(I1
I33
tp839
sg32
I15
sg33
(dp840
sg17
VKey Follow Base
p841
sbag1
(g24
g3
Ntp842
Rp843
(dp844
g15
g540
sg29
(lp845
I3
asg19
(I4
I122
tp846
sg32
I0
sg33
(dp847
sg17
VPan Spread
p848
sbasg33
(dp849
sbag1
(g11
g3
Ntp850
Rp851
(dp852
g15
g684
sg17
VSaturation
p853
sg19
g686
sg21
I0
sg22
(lp854
g1
(g24
g3
Ntp855
Rp856
(dp857
g15
(I0
I14
tp858
sg29
(lp859
sg19
(I0
I49
tp860
sg32
I1
sg33
(dp861
I0
VOff
p862
sI1
VLight
p863
sI2
VSoft
p864
sI3
VMiddle
p865
sI4
VHard
p866
sI5
VDigital
p867
sI6
VWave Shaper
p868
sI7
VRectifier
p869
sI8
VBit Reducer
p870
sI9
VRate Reducer
p871
sI10
VRate+Follow
p872
sI11
VLow Pass
p873
sI12
VLow+Follow
p874
sI13
VHigh Pass
p875
sI14
VHigh+Follow
p876
ssg17
VType
p877
sbasg33
(dp878
sbag1
(g11
g3
Ntp879
Rp880
(dp881
g15
g684
sg17
VFilter Envelope
p882
sg19
g686
sg21
I0
sg22
(lp883
g1
(g24
g3
Ntp884
Rp885
(dp886
g15
g540
sg29
(lp887
sg19
(I0
I54
tp888
sg32
I0
sg33
(dp889
sg17
VAttack
p890
sbag1
(g24
g3
Ntp891
Rp892
(dp893
g15
g540
sg29
(lp894
sg19
(I0
I55
tp895
sg32
I0
sg33
(dp896
sg17
VDecay
p897
sbag1
(g24
g3
Ntp898
Rp899
(dp900
g15
g540
sg29
(lp901
sg19
(I0
I56
tp902
sg32
I7
sg33
(dp903
sg17
VSustain
p904
sbag1
(g24
g3
Ntp905
Rp906
(dp907
g15
g540
sg29
(lp908
sg19
(I0
I57
tp909
sg32
I4
sg33
(dp910
sg17
VSustain Slope
p911
sbag1
(g24
g3
Ntp912
Rp913
(dp914
g15
g540
sg29
(lp915
sg19
(I0
I58
tp916
sg32
I0
sg33
(dp917
sg17
VRelease
p918
sbasg33
(dp919
sbag1
(g11
g3
Ntp920
Rp921
(dp922
g15
g684
sg17
VAmp Envelope
p923
sg19
g686
sg21
I0
sg22
(lp924
g1
(g24
g3
Ntp925
Rp926
(dp927
g15
g540
sg29
(lp928
sg19
(I0
I59
tp929
sg32
I0
sg33
(dp930
sg17
VAttack
p931
sbag1
(g24
g3
Ntp932
Rp933
(dp934
g15
g540
sg29
(lp935
sg19
(I0
I60
tp936
sg32
I0
sg33
(dp937
sg17
VDecay
p938
sbag1
(g24
g3
Ntp939
Rp940
(dp941
g15
g540
sg29
(lp942
sg19
(I0
I61
tp943
sg32
I7
sg33
(dp944
sg17
VSustain
p945
sbag1
(g24
g3
Ntp946
Rp947
(dp948
g15
g540
sg29
(lp949
sg19
(I0
I62
tp950
sg32
I4
sg33
(dp951
sg17
VSustain Slope
p952
sbag1
(g24
g3
Ntp953
Rp954
(dp955
g15
g540
sg29
(lp956
sg19
(I0
I63
tp957
sg32
I0
sg33
(dp958
sg17
VRelease
p959
sbasg33
(dp960
sbasg17
VFilter
p961
sg675
I2
sbag1
(g2
g3
Ntp962
Rp963
(dp964
g7
(dp965
I0
I2
sI1
I2
sI2
I2
ssg9
(lp966
g1
(g11
g3
Ntp967
Rp968
(dp969
g15
(I1
I21
tp970
sg17
VLFO 1
p971
sg19
(I1
I18
tp972
sg21
I2
sg22
(lp973
g1
(g24
g3
Ntp974
Rp975
(dp976
g15
(I0
I21
tp977
sg29
(lp978
I0
aI1
asg19
(I1
I18
tp979
sg32
I1
sg33
(dp980
I0
VOff
p981
sI1
V1/64
p982
sI2
V1/32
p983
sI3
V1/16
p984
sI4
V1/8
p985
sI5
V1/4
p986
sI6
V1/2
p987
sI7
V3/64
p988
sI8
V3/32
p989
sI9
V3/16
p990
sI10
V3/8
p991
sI11
V1/24
p992
sI12
V1/12
p993
sI13
V1/6
p994
sI14
V1/3
p995
sI15
V2/3
p996
sI16
V3/4
p997
sI17
V1/1
p998
sI18
V2/1
p999
sI19
V4/1
p1000
sI20
V8/1
p1001
sI21
V16/1
p1002
ssg17
VClock
p1003
sbag1
(g24
g3
Ntp1004
Rp1005
(dp1006
g15
g540
sg29
(lp1007
I0
asg19
(I0
I67
tp1008
sg32
I0
sg33
(dp1009
sg17
VRate
p1010
sbag1
(g24
g3
Ntp1011
Rp1012
(dp1013
g15
g540
sg29
(lp1014
sg19
(I0
I17
tp1015
sg32
I11
sg33
(dp1016
sg17
V--
p1017
sbag1
(g24
g3
Ntp1018
Rp1019
(dp1020
g15
(I6
I67
tp1021
sg29
(lp1022
I0
aI1
asg19
(I0
I68
tp1023
sg32
I12
sg33
(dp1024
I0
VSine
p1025
sI1
VTriangle
p1026
sI2
VSawtooth
p1027
sI3
VSquare
p1028
sI4
VS&H
p1029
sI5
VS&G
p1030
sI6
VWave 3
p1031
ssg17
VShape
p1032
sbag1
(g24
g3
Ntp1033
Rp1034
(dp1035
g15
g540
sg29
(lp1036
I0
aI1
asg19
(I0
I71
tp1037
sg32
I4
sg33
(dp1038
sg17
VContour
p1039
sbag1
(g24
g3
Ntp1040
Rp1041
(dp1042
g15
(I0
I1
tp1043
sg29
(lp1044
I0
aI1
asg19
(I0
I70
tp1045
sg32
I1
sg33
(dp1046
I0
VPoly
p1047
sI1
VMono
p1048
ssg17
VMode
p1049
sbag1
(g24
g3
Ntp1050
Rp1051
(dp1052
g15
g540
sg29
(lp1053
I0
aI1
asg19
(I0
I69
tp1054
sg32
I9
sg33
(dp1055
sg17
VEnvelope Mode
p1056
sbag1
(g24
g3
Ntp1057
Rp1058
(dp1059
g15
g540
sg29
(lp1060
I0
aI1
asg19
(I0
I73
tp1061
sg32
I13
sg33
(dp1062
I0
VOff 0
p1063
ssg17
VTrigger Phase
p1064
sbag1
(g24
g3
Ntp1065
Rp1066
(dp1067
g15
g540
sg29
(lp1068
I0
aI1
asg19
(I0
I72
tp1069
sg32
I14
sg33
(dp1070
I0
VOff 0
p1071
ssg17
VKey Follow
p1072
sbasg33
(dp1073
sbag1
(g11
g3
Ntp1074
Rp1075
(dp1076
g15
g684
sg17
VLFO 1 Dest
p1077
sg19
g686
sg21
I0
sg22
(lp1078
g1
(g24
g3
Ntp1079
Rp1080
(dp1081
g15
g540
sg29
(lp1082
sg19
(I0
I74
tp1083
sg32
I5
sg33
(dp1084
sg17
VOsc1 Pitch
p1085
sbag1
(g24
g3
Ntp1086
Rp1087
(dp1088
g15
g540
sg29
(lp1089
sg19
(I0
I75
tp1090
sg32
I5
sg33
(dp1091
sg17
VOsc2 Pitch
p1092
sbag1
(g24
g3
Ntp1093
Rp1094
(dp1095
g15
g540
sg29
(lp1096
sg19
(I0
I76
tp1097
sg32
I5
sg33
(dp1098
sg17
VPulse Width
p1099
sbag1
(g24
g3
Ntp1100
Rp1101
(dp1102
g15
g540
sg29
(lp1103
sg19
(I0
I77
tp1104
sg32
I5
sg33
(dp1105
sg17
VResonance
p1106
sbag1
(g24
g3
Ntp1107
Rp1108
(dp1109
g15
g540
sg29
(lp1110
sg19
(I0
I78
tp1111
sg32
I5
sg33
(dp1112
sg17
VFilter Gain
p1113
sbag1
(g24
g3
Ntp1114
Rp1115
(dp1116
g15
(I0
I127
tp1117
sg29
(lp1118
sg19
(I1
I79
tp1119
sg32
I1
sg33
(dp1120
I0
VOff
p1121
sI1
VPatch Volume
p1122
sI2
VOsc 1 Interpolation
p1123
sI3
VPanorama
p1124
sI4
VTranspose
p1125
sI5
VPortamento
p1126
sI6
VOsc 1 Shape
p1127
sI7
VOsc 1 Pulse Width
p1128
sI8
VOsc 1 Wave Select
p1129
sI9
VOsc 1 Pitch
p1130
sI10
VSlot 6 Amount 3
p1131
sI11
VOsc 2 Shape
p1132
sI12
VOsc 2 Pulse Width
p1133
sI13
VOsc 2 Wave Select
p1134
sI14
VOsc 2 Pitch
p1135
sI15
VOsc 2 Detune
p1136
sI16
VOsc 2 FM Amount
p1137
sI17
VFiltEnv>Osc 2 Pitch
p1138
sI18
VFiltEnv>FM/Sync
p1139
sI19
VOsc 2 Interpolation
p1140
sI20
VOsc Balance
p1141
sI21
VSub Osc Volume
p1142
sI22
VOsc Volume
p1143
sI23
VNoise Volume
p1144
sI24
VFilter 1 Cutoff
p1145
sI25
VFilter 2 Cutoff
p1146
sI26
VFilter 1 Resonance
p1147
sI27
VFilter 2 Resonance
p1148
sI28
VFilter 1 Env Amount
p1149
sI29
VFilter 2 Env Amount
p1150
sI30
VSlot 5 Amount 2
p1151
sI31
VSlot 5 Amount 3
p1152
sI32
VFilter Balance
p1153
sI33
VFilter Env Attack
p1154
sI34
VFilter Env Decay
p1155
sI35
VFilter Env Sustain
p1156
sI36
VFilter Env Slope
p1157
sI37
VFilter Env Release
p1158
sI38
VAmp Env Attack
p1159
sI39
VAmp Env Decay
p1160
sI40
VAmp Env Sustain
p1161
sI41
VAmp Env Slope
p1162
sI42
VAmp Env Release
p1163
sI43
VLFO 1 Rate
p1164
sI44
VLFO 1 Contour
p1165
sI45
VLFO 1>Osc 1 Pitch
p1166
sI46
VLFO 1>Osc 2 Pitch
p1167
sI47
VLFO 1>Pulse Width
p1168
sI48
VLFO 1>Resonance
p1169
sI49
VLFO 1>Filter Gain
p1170
sI50
VLFO 2 Rate
p1171
sI51
VLFO 2 Contour
p1172
sI52
VLFO 2>Shape
p1173
sI53
VLFO 2>FM Amount
p1174
sI54
VLFO 2>Cutoff 1
p1175
sI55
VLFO 2>Cutoff 2
p1176
sI56
VLFO 2>Panorama
p1177
sI57
VLFO 3 Rate
p1178
sI58
VLFO 3 Assign Amt
p1179
sI59
VUnison Detune
p1180
sI60
VPan Spread
p1181
sI61
VUnison LFO Phase
p1182
sI62
VChorus Mix
p1183
sI63
VChorus Mod Rate
p1184
sI64
VChorus Mod Depth
p1185
sI65
VChorus Delay
p1186
sI66
VChorus Feedback
p1187
sI67
VDelay Send
p1188
sI68
VDelay Time
p1189
sI69
VDelay Feedback
p1190
sI70
VDelay Mod Rate
p1191
sI71
VDelay Mod Depth
p1192
sI72
VReverb Send
p1193
sI73
VOsc 1 WT Index
p1194
sI74
VOsc 2 WT Index
p1195
sI75
VSlot 6 Amount 2
p1196
sI76
VSlot 4 Amount 2
p1197
sI77
VSlot 4 Amount 3
p1198
sI80
VSlot 2 Amount 3
p1199
sI82
VSlot 1 Amount 1
p1200
sI83
VSlot 2 Amount 1
p1201
sI84
VSlot 2 Amount 2
p1202
sI85
VSlot 3 Amount 1
p1203
sI86
VSlot 3 Amount 2
p1204
sI87
VSlot 3 Amount 3
p1205
sI88
VOsc Initial Phase
p1206
sI89
VPunch Intensity
p1207
sI90
VRing Modulator
p1208
sI91
VNoise Color
p1209
sI92
VDelay Coloration
p1210
sI93
VSlot 1 Amount 2
p1211
sI94
VSlot 1 Amount 3
p1212
sI95
VDistortion Intensity
p1213
sI96
VFreqShifter Freq
p1214
sI97
VOsc 3 Volume
p1215
sI98
VOsc 3 Pitch
p1216
sI99
VOsc 3 Detune
p1217
sI100
VLFO 1 Assign Amt
p1218
sI101
VLFO 2 Assign Amt
p1219
sI102
VPhaser Mix
p1220
sI103
VPhaser Mod Rate
p1221
sI104
VPhaser Mod Depth
p1222
sI105
VPhaser Frequency
p1223
sI106
VPhaser Feedback
p1224
sI107
VPhaser Spread
p1225
sI108
VReverb Time
p1226
sI109
VReverb Damping
p1227
sI110
VReverb Color
p1228
sI111
VReverb PreDelay
p1229
sI112
VReverb Feedback
p1230
sI113
VSurround Balance
p1231
sI114
VArp Note Length
p1232
sI115
VArp Swing Factor
p1233
sI116
VArp Pattern
p1234
sI117
VEQ Mid Gain
p1235
sI118
VEQ Mid Frequency
p1236
sI119
VEQ Mid Q-Factor
p1237
sI120
VSlot 4 Amount 1
p1238
sI121
VSlot 5 Amount 1
p1239
sI122
VSlot 6 Amount 1
p1240
sI123
VOsc 1 F-Shift
p1241
sI124
VOsc 2 F-Shift
p1242
sI125
VOsc 1 F-Spread
p1243
sI126
VOsc 2 F-Spread
p1244
sI127
VDistortion Mix
p1245
ssg17
VAssign Target
p1246
sbag1
(g24
g3
Ntp1247
Rp1248
(dp1249
g15
g540
sg29
(lp1250
sg19
(I1
I80
tp1251
sg32
I5
sg33
(dp1252
sg17
VAmount
p1253
sbasg33
(dp1254
sbag1
(g11
g3
Ntp1255
Rp1256
(dp1257
g15
g970
sg17
VLFO 2
p1258
sg19
(I1
I19
tp1259
sg21
I2
sg22
(lp1260
g1
(g24
g3
Ntp1261
Rp1262
(dp1263
g15
g977
sg29
(lp1264
I0
aI1
asg19
(I1
I19
tp1265
sg32
I1
sg33
(dp1266
I0
g981
sI1
g982
sI2
g983
sI3
g984
sI4
g985
sI5
g986
sI6
g987
sI7
g988
sI8
g989
sI9
g990
sI10
g991
sI11
g992
sI12
g993
sI13
g994
sI14
g995
sI15
g996
sI16
g997
sI17
g998
sI18
g999
sI19
g1000
sI20
g1001
sI21
g1002
ssg17
VClock
p1267
sbag1
(g24
g3
Ntp1268
Rp1269
(dp1270
g15
g540
sg29
(lp1271
I0
asg19
(I0
I79
tp1272
sg32
I0
sg33
(dp1273
sg17
VRate
p1274
sbag1
(g24
g3
Ntp1275
Rp1276
(dp1277
g15
g540
sg29
g1014
sg19
g1015
sg32
I11
sg33
(dp1278
sg17
g1017
sbag1
(g24
g3
Ntp1279
Rp1280
(dp1281
g15
g1021
sg29
(lp1282
I0
aI1
asg19
(I0
I80
tp1283
sg32
I12
sg33
(dp1284
I0
g1025
sI1
g1026
sI2
g1027
sI3
g1028
sI4
g1029
sI5
g1030
sI6
g1031
ssg17
VShape
p1285
sbag1
(g24
g3
Ntp1286
Rp1287
(dp1288
g15
g540
sg29
(lp1289
I0
aI1
asg19
(I0
I83
tp1290
sg32
I4
sg33
(dp1291
sg17
VContour
p1292
sbag1
(g24
g3
Ntp1293
Rp1294
(dp1295
g15
g1043
sg29
(lp1296
I0
aI1
asg19
(I0
I82
tp1297
sg32
I1
sg33
(dp1298
I0
g1047
sI1
g1048
ssg17
VMode
p1299
sbag1
(g24
g3
Ntp1300
Rp1301
(dp1302
g15
g540
sg29
(lp1303
I0
aI1
asg19
(I0
I81
tp1304
sg32
I9
sg33
(dp1305
sg17
VEnvelope Mode
p1306
sbag1
(g24
g3
Ntp1307
Rp1308
(dp1309
g15
g540
sg29
(lp1310
I0
aI1
asg19
(I0
I85
tp1311
sg32
I13
sg33
(dp1312
I0
VOff 0
p1313
ssg17
VTrigger Phase
p1314
sbag1
(g24
g3
Ntp1315
Rp1316
(dp1317
g15
g540
sg29
(lp1318
I0
aI1
asg19
(I0
I84
tp1319
sg32
I14
sg33
(dp1320
I0
VOff 0
p1321
ssg17
VKey Follow
p1322
sbasg33
(dp1323
sbag1
(g11
g3
Ntp1324
Rp1325
(dp1326
g15
g684
sg17
VLFO 2 Dest
p1327
sg19
g686
sg21
I0
sg22
(lp1328
g1
(g24
g3
Ntp1329
Rp1330
(dp1331
g15
g540
sg29
(lp1332
sg19
(I0
I88
tp1333
sg32
I5
sg33
(dp1334
sg17
VCutoff 1
p1335
sbag1
(g24
g3
Ntp1336
Rp1337
(dp1338
g15
g540
sg29
(lp1339
sg19
(I0
I89
tp1340
sg32
I5
sg33
(dp1341
sg17
VCutoff 2
p1342
sbag1
(g24
g3
Ntp1343
Rp1344
(dp1345
g15
g540
sg29
(lp1346
sg19
(I0
I86
tp1347
sg32
I5
sg33
(dp1348
sg17
VShape 1+2
p1349
sbag1
(g24
g3
Ntp1350
Rp1351
(dp1352
g15
g540
sg29
(lp1353
sg19
(I0
I87
tp1354
sg32
I5
sg33
(dp1355
sg17
VFM Amount
p1356
sbag1
(g24
g3
Ntp1357
Rp1358
(dp1359
g15
g540
sg29
(lp1360
sg19
(I0
I90
tp1361
sg32
I5
sg33
(dp1362
sg17
VPanorama
p1363
sbag1
(g24
g3
Ntp1364
Rp1365
(dp1366
g15
g1117
sg29
(lp1367
sg19
(I1
I81
tp1368
sg32
I1
sg33
(dp1369
I0
g1121
sI1
g1122
sI2
g1123
sI3
g1124
sI4
g1125
sI5
g1126
sI6
g1127
sI7
g1128
sI8
g1129
sI9
g1130
sI10
g1131
sI11
g1132
sI12
g1133
sI13
g1134
sI14
g1135
sI15
g1136
sI16
g1137
sI17
g1138
sI18
g1139
sI19
g1140
sI20
g1141
sI21
g1142
sI22
g1143
sI23
g1144
sI24
g1145
sI25
g1146
sI26
g1147
sI27
g1148
sI28
g1149
sI29
g1150
sI30
g1151
sI31
g1152
sI32
g1153
sI33
g1154
sI34
g1155
sI35
g1156
sI36
g1157
sI37
g1158
sI38
g1159
sI39
g1160
sI40
g1161
sI41
g1162
sI42
g1163
sI43
g1164
sI44
g1165
sI45
g1166
sI46
g1167
sI47
g1168
sI48
g1169
sI49
g1170
sI50
g1171
sI51
g1172
sI52
g1173
sI53
g1174
sI54
g1175
sI55
g1176
sI56
g1177
sI57
g1178
sI58
g1179
sI59
g1180
sI60
g1181
sI61
g1182
sI62
g1183
sI63
g1184
sI64
g1185
sI65
g1186
sI66
g1187
sI67
g1188
sI68
g1189
sI69
g1190
sI70
g1191
sI71
g1192
sI72
g1193
sI73
g1194
sI74
g1195
sI75
g1196
sI76
g1197
sI77
g1198
sI80
g1199
sI82
g1200
sI83
g1201
sI84
g1202
sI85
g1203
sI86
g1204
sI87
g1205
sI88
g1206
sI89
g1207
sI90
g1208
sI91
g1209
sI92
g1210
sI93
g1211
sI94
g1212
sI95
g1213
sI96
g1214
sI97
g1215
sI98
g1216
sI99
g1217
sI100
g1218
sI101
g1219
sI102
g1220
sI103
g1221
sI104
g1222
sI105
g1223
sI106
g1224
sI107
g1225
sI108
g1226
sI109
g1227
sI110
g1228
sI111
g1229
sI112
g1230
sI113
g1231
sI114
g1232
sI115
g1233
sI116
g1234
sI117
g1235
sI118
g1236
sI119
g1237
sI120
g1238
sI121
g1239
sI122
g1240
sI123
g1241
sI124
g1242
sI125
g1243
sI126
g1244
sI127
g1245
ssg17
VAssign Target
p1370
sbag1
(g24
g3
Ntp1371
Rp1372
(dp1373
g15
g540
sg29
(lp1374
sg19
(I1
I82
tp1375
sg32
I5
sg33
(dp1376
sg17
VAmount
p1377
sbasg33
(dp1378
sbag1
(g11
g3
Ntp1379
Rp1380
(dp1381
g15
g970
sg17
VLFO 3
p1382
sg19
(I1
I21
tp1383
sg21
I2
sg22
(lp1384
g1
(g24
g3
Ntp1385
Rp1386
(dp1387
g15
g977
sg29
(lp1388
I0
aI1
asg19
(I1
I21
tp1389
sg32
I1
sg33
(dp1390
I0
g981
sI1
g982
sI2
g983
sI3
g984
sI4
g985
sI5
g986
sI6
g987
sI7
g988
sI8
g989
sI9
g990
sI10
g991
sI11
g992
sI12
g993
sI13
g994
sI14
g995
sI15
g996
sI16
g997
sI17
g998
sI18
g999
sI19
g1000
sI20
g1001
sI21
g1002
ssg17
VClock
p1391
sbag1
(g24
g3
Ntp1392
Rp1393
(dp1394
g15
g540
sg29
(lp1395
I0
asg19
(I1
I7
tp1396
sg32
I0
sg33
(dp1397
sg17
VRate
p1398
sbag1
(g24
g3
Ntp1399
Rp1400
(dp1401
g15
g540
sg29
g1014
sg19
g1015
sg32
I11
sg33
(dp1402
sg17
g1017
sbag1
(g24
g3
Ntp1403
Rp1404
(dp1405
g15
g1021
sg29
(lp1406
I0
aI1
asg19
(I1
I8
tp1407
sg32
I12
sg33
(dp1408
I0
g1025
sI1
g1026
sI2
g1027
sI3
g1028
sI4
g1029
sI5
g1030
sI6
g1031
ssg17
VShape
p1409
sbag1
(g24
g3
Ntp1410
Rp1411
(dp1412
g15
g1043
sg29
(lp1413
I0
aI1
asg19
(I1
I9
tp1414
sg32
I1
sg33
(dp1415
I0
g1047
sI1
g1048
ssg17
VMode
p1416
sbag1
(g24
g3
Ntp1417
Rp1418
(dp1419
g15
g540
sg29
(lp1420
I0
aI1
asg19
(I1
I10
tp1421
sg32
I0
sg33
(dp1422
sg17
VKey Follow
p1423
sbasg33
(dp1424
sbag1
(g11
g3
Ntp1425
Rp1426
(dp1427
g15
g684
sg17
VLFO 3 Dest
p1428
sg19
g686
sg21
I0
sg22
(lp1429
g1
(g24
g3
Ntp1430
Rp1431
(dp1432
g15
g540
sg29
(lp1433
sg19
(I1
I13
tp1434
sg32
I0
sg33
(dp1435
sg17
VFade In
p1436
sbag1
(g24
g3
Ntp1437
Rp1438
(dp1439
g15
(I0
I6
tp1440
sg29
(lp1441
sg19
(I1
I11
tp1442
sg32
I1
sg33
(dp1443
I0
VOsc 1 Pitch
p1444
sI1
VOsc 1+2 Pitch
p1445
sI2
VOsc 2 Pitch
p1446
sI3
VOsc 1 Pulse Width
p1447
sI4
VOsc 1+2 Pulse Width
p1448
sI5
VOsc 2 Pulse Width
p1449
sI6
VSync Phase
p1450
ssg17
VAssign Target
p1451
sbag1
(g24
g3
Ntp1452
Rp1453
(dp1454
g15
g540
sg29
(lp1455
sg19
(I1
I12
tp1456
sg32
I7
sg33
(dp1457
sg17
VAmount
p1458
sbasg33
(dp1459
sbasg17
V.LFO
p1460
sg675
I3
sbag1
(g2
g3
Ntp1461
Rp1462
(dp1463
g7
(dp1464
I0
I2
sI1
I2
sI2
I2
ssg9
(lp1465
g1
(g11
g3
Ntp1466
Rp1467
(dp1468
g15
(I0
I0
tp1469
sg17
VSlot 1
p1470
sg19
(I0
I17
tp1471
sg21
I0
sg22
(lp1472
g1
(g24
g3
Ntp1473
Rp1474
(dp1475
g15
(I0
I37
tp1476
sg29
(lp1477
sg19
(I1
I64
tp1478
sg32
I1
sg33
(dp1479
I0
VOff
p1480
sI1
VPitch Bend
p1481
sI2
VChan Pressure
p1482
sI3
VMod Wheel
p1483
sI4
VBreath
p1484
sI5
VController 3
p1485
sI6
VFoot Pedal
p1486
sI7
VData Entry
p1487
sI8
VBalance
p1488
sI9
VController 9
p1489
sI10
VExpression
p1490
sI11
VController 12
p1491
sI12
VController 13
p1492
sI13
VController 14
p1493
sI14
VController 15
p1494
sI15
VController 16
p1495
sI16
VHold Pedal
p1496
sI17
VPortamento Sw
p1497
sI18
VSost Pedal
p1498
sI19
VAmp Envelope
p1499
sI20
VFilter Envelope
p1500
sI21
VLFO 1 bipolar
p1501
sI22
VLFO 2 bipolar
p1502
sI23
VLFO 3 bipolar
p1503
sI24
VVelocity On
p1504
sI25
VVelocity Off
p1505
sI26
VKey Follow
p1506
sI27
VRandom
p1507
sI28
VArp Input
p1508
sI29
VLFO 1 unipolar
p1509
sI30
VLFO 2 unipolar
p1510
sI31
VLFO 3 unipolar
p1511
sI32
V1% constant
p1512
sI33
V10% constant
p1513
sI34
VAnaKey1 Fine
p1514
sI35
VAnaKey 2 Fine
p1515
sI36
VAnaKey1 Coarse
p1516
sI37
VAnaKey2 Coarse
p1517
ssg17
VSource
p1518
sbag1
(g24
g3
Ntp1519
Rp1520
(dp1521
g15
g1117
sg29
(lp1522
sg19
(I1
I66
tp1523
sg32
I4
sg33
(dp1524
sg17
VAmount 1
p1525
sbag1
(g24
g3
Ntp1526
Rp1527
(dp1528
g15
g1117
sg29
(lp1529
sg19
(I3
I91
tp1530
sg32
I4
sg33
(dp1531
sg17
VAmount 2
p1532
sbag1
(g24
g3
Ntp1533
Rp1534
(dp1535
g15
g1117
sg29
(lp1536
sg19
(I3
I93
tp1537
sg32
I4
sg33
(dp1538
sg17
VAmount 3
p1539
sbag1
(g24
g3
Ntp1540
Rp1541
(dp1542
g15
g1117
sg29
(lp1543
sg19
(I1
I65
tp1544
sg32
I1
sg33
(dp1545
I0
g1121
sI1
g1122
sI2
g1123
sI3
g1124
sI4
g1125
sI5
g1126
sI6
g1127
sI7
g1128
sI8
g1129
sI9
g1130
sI10
g1131
sI11
g1132
sI12
g1133
sI13
g1134
sI14
g1135
sI15
g1136
sI16
g1137
sI17
g1138
sI18
g1139
sI19
g1140
sI20
g1141
sI21
g1142
sI22
g1143
sI23
g1144
sI24
g1145
sI25
g1146
sI26
g1147
sI27
g1148
sI28
g1149
sI29
g1150
sI30
g1151
sI31
g1152
sI32
g1153
sI33
g1154
sI34
g1155
sI35
g1156
sI36
g1157
sI37
g1158
sI38
g1159
sI39
g1160
sI40
g1161
sI41
g1162
sI42
g1163
sI43
g1164
sI44
g1165
sI45
g1166
sI46
g1167
sI47
g1168
sI48
g1169
sI49
g1170
sI50
g1171
sI51
g1172
sI52
g1173
sI53
g1174
sI54
g1175
sI55
g1176
sI56
g1177
sI57
g1178
sI58
g1179
sI59
g1180
sI60
g1181
sI61
g1182
sI62
g1183
sI63
g1184
sI64
g1185
sI65
g1186
sI66
g1187
sI67
g1188
sI68
g1189
sI69
g1190
sI70
g1191
sI71
g1192
sI72
g1193
sI73
g1194
sI74
g1195
sI75
g1196
sI76
g1197
sI77
g1198
sI80
g1199
sI82
g1200
sI83
g1201
sI84
g1202
sI85
g1203
sI86
g1204
sI87
g1205
sI88
g1206
sI89
g1207
sI90
g1208
sI91
g1209
sI92
g1210
sI93
g1211
sI94
g1212
sI95
g1213
sI96
g1214
sI97
g1215
sI98
g1216
sI99
g1217
sI100
g1218
sI101
g1219
sI102
g1220
sI103
g1221
sI104
g1222
sI105
g1223
sI106
g1224
sI107
g1225
sI108
g1226
sI109
g1227
sI110
g1228
sI111
g1229
sI112
g1230
sI113
g1231
sI114
g1232
sI115
g1233
sI116
g1234
sI117
g1235
sI118
g1236
sI119
g1237
sI120
g1238
sI121
g1239
sI122
g1240
sI123
g1241
sI124
g1242
sI125
g1243
sI126
g1244
sI127
g1245
ssg17
VDest 1
p1546
sbag1
(g24
g3
Ntp1547
Rp1548
(dp1549
g15
g1117
sg29
(lp1550
sg19
(I3
I90
tp1551
sg32
I1
sg33
(dp1552
I0
g1121
sI1
g1122
sI2
g1123
sI3
g1124
sI4
g1125
sI5
g1126
sI6
g1127
sI7
g1128
sI8
g1129
sI9
g1130
sI10
g1131
sI11
g1132
sI12
g1133
sI13
g1134
sI14
g1135
sI15
g1136
sI16
g1137
sI17
g1138
sI18
g1139
sI19
g1140
sI20
g1141
sI21
g1142
sI22
g1143
sI23
g1144
sI24
g1145
sI25
g1146
sI26
g1147
sI27
g1148
sI28
g1149
sI29
g1150
sI30
g1151
sI31
g1152
sI32
g1153
sI33
g1154
sI34
g1155
sI35
g1156
sI36
g1157
sI37
g1158
sI38
g1159
sI39
g1160
sI40
g1161
sI41
g1162
sI42
g1163
sI43
g1164
sI44
g1165
sI45
g1166
sI46
g1167
sI47
g1168
sI48
g1169
sI49
g1170
sI50
g1171
sI51
g1172
sI52
g1173
sI53
g1174
sI54
g1175
sI55
g1176
sI56
g1177
sI57
g1178
sI58
g1179
sI59
g1180
sI60
g1181
sI61
g1182
sI62
g1183
sI63
g1184
sI64
g1185
sI65
g1186
sI66
g1187
sI67
g1188
sI68
g1189
sI69
g1190
sI70
g1191
sI71
g1192
sI72
g1193
sI73
g1194
sI74
g1195
sI75
g1196
sI76
g1197
sI77
g1198
sI80
g1199
sI82
g1200
sI83
g1201
sI84
g1202
sI85
g1203
sI86
g1204
sI87
g1205
sI88
g1206
sI89
g1207
sI90
g1208
sI91
g1209
sI92
g1210
sI93
g1211
sI94
g1212
sI95
g1213
sI96
g1214
sI97
g1215
sI98
g1216
sI99
g1217
sI100
g1218
sI101
g1219
sI102
g1220
sI103
g1221
sI104
g1222
sI105
g1223
sI106
g1224
sI107
g1225
sI108
g1226
sI109
g1227
sI110
g1228
sI111
g1229
sI112
g1230
sI113
g1231
sI114
g1232
sI115
g1233
sI116
g1234
sI117
g1235
sI118
g1236
sI119
g1237
sI120
g1238
sI121
g1239
sI122
g1240
sI123
g1241
sI124
g1242
sI125
g1243
sI126
g1244
sI127
g1245
ssg17
VDest 2
p1553
sbag1
(g24
g3
Ntp1554
Rp1555
(dp1556
g15
g1117
sg29
(lp1557
sg19
(I3
I92
tp1558
sg32
I1
sg33
(dp1559
I0
g1121
sI1
g1122
sI2
g1123
sI3
g1124
sI4
g1125
sI5
g1126
sI6
g1127
sI7
g1128
sI8
g1129
sI9
g1130
sI10
g1131
sI11
g1132
sI12
g1133
sI13
g1134
sI14
g1135
sI15
g1136
sI16
g1137
sI17
g1138
sI18
g1139
sI19
g1140
sI20
g1141
sI21
g1142
sI22
g1143
sI23
g1144
sI24
g1145
sI25
g1146
sI26
g1147
sI27
g1148
sI28
g1149
sI29
g1150
sI30
g1151
sI31
g1152
sI32
g1153
sI33
g1154
sI34
g1155
sI35
g1156
sI36
g1157
sI37
g1158
sI38
g1159
sI39
g1160
sI40
g1161
sI41
g1162
sI42
g1163
sI43
g1164
sI44
g1165
sI45
g1166
sI46
g1167
sI47
g1168
sI48
g1169
sI49
g1170
sI50
g1171
sI51
g1172
sI52
g1173
sI53
g1174
sI54
g1175
sI55
g1176
sI56
g1177
sI57
g1178
sI58
g1179
sI59
g1180
sI60
g1181
sI61
g1182
sI62
g1183
sI63
g1184
sI64
g1185
sI65
g1186
sI66
g1187
sI67
g1188
sI68
g1189
sI69
g1190
sI70
g1191
sI71
g1192
sI72
g1193
sI73
g1194
sI74
g1195
sI75
g1196
sI76
g1197
sI77
g1198
sI80
g1199
sI82
g1200
sI83
g1201
sI84
g1202
sI85
g1203
sI86
g1204
sI87
g1205
sI88
g1206
sI89
g1207
sI90
g1208
sI91
g1209
sI92
g1210
sI93
g1211
sI94
g1212
sI95
g1213
sI96
g1214
sI97
g1215
sI98
g1216
sI99
g1217
sI100
g1218
sI101
g1219
sI102
g1220
sI103
g1221
sI104
g1222
sI105
g1223
sI106
g1224
sI107
g1225
sI108
g1226
sI109
g1227
sI110
g1228
sI111
g1229
sI112
g1230
sI113
g1231
sI114
g1232
sI115
g1233
sI116
g1234
sI117
g1235
sI118
g1236
sI119
g1237
sI120
g1238
sI121
g1239
sI122
g1240
sI123
g1241
sI124
g1242
sI125
g1243
sI126
g1244
sI127
g1245
ssg17
VDest 3
p1560
sbasg33
(dp1561
sbag1
(g11
g3
Ntp1562
Rp1563
(dp1564
g15
g1469
sg17
VSlot 4
p1565
sg19
g1471
sg21
I0
sg22
(lp1566
g1
(g24
g3
Ntp1567
Rp1568
(dp1569
g15
g1476
sg29
(lp1570
sg19
(I1
I103
tp1571
sg32
I1
sg33
(dp1572
I0
g1480
sI1
g1481
sI2
g1482
sI3
g1483
sI4
g1484
sI5
g1485
sI6
g1486
sI7
g1487
sI8
g1488
sI9
g1489
sI10
g1490
sI11
g1491
sI12
g1492
sI13
g1493
sI14
g1494
sI15
g1495
sI16
g1496
sI17
g1497
sI18
g1498
sI19
g1499
sI20
g1500
sI21
g1501
sI22
g1502
sI23
g1503
sI24
g1504
sI25
g1505
sI26
g1506
sI27
g1507
sI28
g1508
sI29
g1509
sI30
g1510
sI31
g1511
sI32
g1512
sI33
g1513
sI34
g1514
sI35
g1515
sI36
g1516
sI37
g1517
ssg17
VSource
p1573
sbag1
(g24
g3
Ntp1574
Rp1575
(dp1576
g15
g1117
sg29
(lp1577
sg19
(I1
I105
tp1578
sg32
I4
sg33
(dp1579
sg17
VAmount 1
p1580
sbag1
(g24
g3
Ntp1581
Rp1582
(dp1583
g15
g1117
sg29
(lp1584
sg19
(I3
I97
tp1585
sg32
I4
sg33
(dp1586
sg17
VAmount 2
p1587
sbag1
(g24
g3
Ntp1588
Rp1589
(dp1590
g15
g1117
sg29
(lp1591
sg19
(I3
I99
tp1592
sg32
I4
sg33
(dp1593
sg17
VAmount 3
p1594
sbag1
(g24
g3
Ntp1595
Rp1596
(dp1597
g15
g1117
sg29
(lp1598
sg19
(I1
I104
tp1599
sg32
I1
sg33
(dp1600
I0
g1121
sI1
g1122
sI2
g1123
sI3
g1124
sI4
g1125
sI5
g1126
sI6
g1127
sI7
g1128
sI8
g1129
sI9
g1130
sI10
g1131
sI11
g1132
sI12
g1133
sI13
g1134
sI14
g1135
sI15
g1136
sI16
g1137
sI17
g1138
sI18
g1139
sI19
g1140
sI20
g1141
sI21
g1142
sI22
g1143
sI23
g1144
sI24
g1145
sI25
g1146
sI26
g1147
sI27
g1148
sI28
g1149
sI29
g1150
sI30
g1151
sI31
g1152
sI32
g1153
sI33
g1154
sI34
g1155
sI35
g1156
sI36
g1157
sI37
g1158
sI38
g1159
sI39
g1160
sI40
g1161
sI41
g1162
sI42
g1163
sI43
g1164
sI44
g1165
sI45
g1166
sI46
g1167
sI47
g1168
sI48
g1169
sI49
g1170
sI50
g1171
sI51
g1172
sI52
g1173
sI53
g1174
sI54
g1175
sI55
g1176
sI56
g1177
sI57
g1178
sI58
g1179
sI59
g1180
sI60
g1181
sI61
g1182
sI62
g1183
sI63
g1184
sI64
g1185
sI65
g1186
sI66
g1187
sI67
g1188
sI68
g1189
sI69
g1190
sI70
g1191
sI71
g1192
sI72
g1193
sI73
g1194
sI74
g1195
sI75
g1196
sI76
g1197
sI77
g1198
sI80
g1199
sI82
g1200
sI83
g1201
sI84
g1202
sI85
g1203
sI86
g1204
sI87
g1205
sI88
g1206
sI89
g1207
sI90
g1208
sI91
g1209
sI92
g1210
sI93
g1211
sI94
g1212
sI95
g1213
sI96
g1214
sI97
g1215
sI98
g1216
sI99
g1217
sI100
g1218
sI101
g1219
sI102
g1220
sI103
g1221
sI104
g1222
sI105
g1223
sI106
g1224
sI107
g1225
sI108
g1226
sI109
g1227
sI110
g1228
sI111
g1229
sI112
g1230
sI113
g1231
sI114
g1232
sI115
g1233
sI116
g1234
sI117
g1235
sI118
g1236
sI119
g1237
sI120
g1238
sI121
g1239
sI122
g1240
sI123
g1241
sI124
g1242
sI125
g1243
sI126
g1244
sI127
g1245
ssg17
VDest 1
p1601
sbag1
(g24
g3
Ntp1602
Rp1603
(dp1604
g15
g1117
sg29
(lp1605
sg19
(I3
I96
tp1606
sg32
I1
sg33
(dp1607
I0
g1121
sI1
g1122
sI2
g1123
sI3
g1124
sI4
g1125
sI5
g1126
sI6
g1127
sI7
g1128
sI8
g1129
sI9
g1130
sI10
g1131
sI11
g1132
sI12
g1133
sI13
g1134
sI14
g1135
sI15
g1136
sI16
g1137
sI17
g1138
sI18
g1139
sI19
g1140
sI20
g1141
sI21
g1142
sI22
g1143
sI23
g1144
sI24
g1145
sI25
g1146
sI26
g1147
sI27
g1148
sI28
g1149
sI29
g1150
sI30
g1151
sI31
g1152
sI32
g1153
sI33
g1154
sI34
g1155
sI35
g1156
sI36
g1157
sI37
g1158
sI38
g1159
sI39
g1160
sI40
g1161
sI41
g1162
sI42
g1163
sI43
g1164
sI44
g1165
sI45
g1166
sI46
g1167
sI47
g1168
sI48
g1169
sI49
g1170
sI50
g1171
sI51
g1172
sI52
g1173
sI53
g1174
sI54
g1175
sI55
g1176
sI56
g1177
sI57
g1178
sI58
g1179
sI59
g1180
sI60
g1181
sI61
g1182
sI62
g1183
sI63
g1184
sI64
g1185
sI65
g1186
sI66
g1187
sI67
g1188
sI68
g1189
sI69
g1190
sI70
g1191
sI71
g1192
sI72
g1193
sI73
g1194
sI74
g1195
sI75
g1196
sI76
g1197
sI77
g1198
sI80
g1199
sI82
g1200
sI83
g1201
sI84
g1202
sI85
g1203
sI86
g1204
sI87
g1205
sI88
g1206
sI89
g1207
sI90
g1208
sI91
g1209
sI92
g1210
sI93
g1211
sI94
g1212
sI95
g1213
sI96
g1214
sI97
g1215
sI98
g1216
sI99
g1217
sI100
g1218
sI101
g1219
sI102
g1220
sI103
g1221
sI104
g1222
sI105
g1223
sI106
g1224
sI107
g1225
sI108
g1226
sI109
g1227
sI110
g1228
sI111
g1229
sI112
g1230
sI113
g1231
sI114
g1232
sI115
g1233
sI116
g1234
sI117
g1235
sI118
g1236
sI119
g1237
sI120
g1238
sI121
g1239
sI122
g1240
sI123
g1241
sI124
g1242
sI125
g1243
sI126
g1244
sI127
g1245
ssg17
VDest 2
p1608
sbag1
(g24
g3
Ntp1609
Rp1610
(dp1611
g15
g1117
sg29
(lp1612
sg19
(I3
I98
tp1613
sg32
I1
sg33
(dp1614
I0
g1121
sI1
g1122
sI2
g1123
sI3
g1124
sI4
g1125
sI5
g1126
sI6
g1127
sI7
g1128
sI8
g1129
sI9
g1130
sI10
g1131
sI11
g1132
sI12
g1133
sI13
g1134
sI14
g1135
sI15
g1136
sI16
g1137
sI17
g1138
sI18
g1139
sI19
g1140
sI20
g1141
sI21
g1142
sI22
g1143
sI23
g1144
sI24
g1145
sI25
g1146
sI26
g1147
sI27
g1148
sI28
g1149
sI29
g1150
sI30
g1151
sI31
g1152
sI32
g1153
sI33
g1154
sI34
g1155
sI35
g1156
sI36
g1157
sI37
g1158
sI38
g1159
sI39
g1160
sI40
g1161
sI41
g1162
sI42
g1163
sI43
g1164
sI44
g1165
sI45
g1166
sI46
g1167
sI47
g1168
sI48
g1169
sI49
g1170
sI50
g1171
sI51
g1172
sI52
g1173
sI53
g1174
sI54
g1175
sI55
g1176
sI56
g1177
sI57
g1178
sI58
g1179
sI59
g1180
sI60
g1181
sI61
g1182
sI62
g1183
sI63
g1184
sI64
g1185
sI65
g1186
sI66
g1187
sI67
g1188
sI68
g1189
sI69
g1190
sI70
g1191
sI71
g1192
sI72
g1193
sI73
g1194
sI74
g1195
sI75
g1196
sI76
g1197
sI77
g1198
sI80
g1199
sI82
g1200
sI83
g1201
sI84
g1202
sI85
g1203
sI86
g1204
sI87
g1205
sI88
g1206
sI89
g1207
sI90
g1208
sI91
g1209
sI92
g1210
sI93
g1211
sI94
g1212
sI95
g1213
sI96
g1214
sI97
g1215
sI98
g1216
sI99
g1217
sI100
g1218
sI101
g1219
sI102
g1220
sI103
g1221
sI104
g1222
sI105
g1223
sI106
g1224
sI107
g1225
sI108
g1226
sI109
g1227
sI110
g1228
sI111
g1229
sI112
g1230
sI113
g1231
sI114
g1232
sI115
g1233
sI116
g1234
sI117
g1235
sI118
g1236
sI119
g1237
sI120
g1238
sI121
g1239
sI122
g1240
sI123
g1241
sI124
g1242
sI125
g1243
sI126
g1244
sI127
g1245
ssg17
VDest 3
p1615
sbasg33
(dp1616
sbag1
(g11
g3
Ntp1617
Rp1618
(dp1619
g15
g1469
sg17
VSlot 2
p1620
sg19
g1471
sg21
I0
sg22
(lp1621
g1
(g24
g3
Ntp1622
Rp1623
(dp1624
g15
g1476
sg29
(lp1625
sg19
(I1
I67
tp1626
sg32
I1
sg33
(dp1627
I0
g1480
sI1
g1481
sI2
g1482
sI3
g1483
sI4
g1484
sI5
g1485
sI6
g1486
sI7
g1487
sI8
g1488
sI9
g1489
sI10
g1490
sI11
g1491
sI12
g1492
sI13
g1493
sI14
g1494
sI15
g1495
sI16
g1496
sI17
g1497
sI18
g1498
sI19
g1499
sI20
g1500
sI21
g1501
sI22
g1502
sI23
g1503
sI24
g1504
sI25
g1505
sI26
g1506
sI27
g1507
sI28
g1508
sI29
g1509
sI30
g1510
sI31
g1511
sI32
g1512
sI33
g1513
sI34
g1514
sI35
g1515
sI36
g1516
sI37
g1517
ssg17
VSource
p1628
sbag1
(g24
g3
Ntp1629
Rp1630
(dp1631
g15
g1117
sg29
(lp1632
sg19
(I1
I69
tp1633
sg32
I4
sg33
(dp1634
sg17
VAmount 1
p1635
sbag1
(g24
g3
Ntp1636
Rp1637
(dp1638
g15
g1117
sg29
(lp1639
sg19
(I1
I71
tp1640
sg32
I4
sg33
(dp1641
sg17
VAmount 2
p1642
sbag1
(g24
g3
Ntp1643
Rp1644
(dp1645
g15
g1117
sg29
(lp1646
sg19
(I3
I95
tp1647
sg32
I4
sg33
(dp1648
sg17
VAmount 3
p1649
sbag1
(g24
g3
Ntp1650
Rp1651
(dp1652
g15
g1117
sg29
(lp1653
sg19
(I1
I68
tp1654
sg32
I1
sg33
(dp1655
I0
g1121
sI1
g1122
sI2
g1123
sI3
g1124
sI4
g1125
sI5
g1126
sI6
g1127
sI7
g1128
sI8
g1129
sI9
g1130
sI10
g1131
sI11
g1132
sI12
g1133
sI13
g1134
sI14
g1135
sI15
g1136
sI16
g1137
sI17
g1138
sI18
g1139
sI19
g1140
sI20
g1141
sI21
g1142
sI22
g1143
sI23
g1144
sI24
g1145
sI25
g1146
sI26
g1147
sI27
g1148
sI28
g1149
sI29
g1150
sI30
g1151
sI31
g1152
sI32
g1153
sI33
g1154
sI34
g1155
sI35
g1156
sI36
g1157
sI37
g1158
sI38
g1159
sI39
g1160
sI40
g1161
sI41
g1162
sI42
g1163
sI43
g1164
sI44
g1165
sI45
g1166
sI46
g1167
sI47
g1168
sI48
g1169
sI49
g1170
sI50
g1171
sI51
g1172
sI52
g1173
sI53
g1174
sI54
g1175
sI55
g1176
sI56
g1177
sI57
g1178
sI58
g1179
sI59
g1180
sI60
g1181
sI61
g1182
sI62
g1183
sI63
g1184
sI64
g1185
sI65
g1186
sI66
g1187
sI67
g1188
sI68
g1189
sI69
g1190
sI70
g1191
sI71
g1192
sI72
g1193
sI73
g1194
sI74
g1195
sI75
g1196
sI76
g1197
sI77
g1198
sI80
g1199
sI82
g1200
sI83
g1201
sI84
g1202
sI85
g1203
sI86
g1204
sI87
g1205
sI88
g1206
sI89
g1207
sI90
g1208
sI91
g1209
sI92
g1210
sI93
g1211
sI94
g1212
sI95
g1213
sI96
g1214
sI97
g1215
sI98
g1216
sI99
g1217
sI100
g1218
sI101
g1219
sI102
g1220
sI103
g1221
sI104
g1222
sI105
g1223
sI106
g1224
sI107
g1225
sI108
g1226
sI109
g1227
sI110
g1228
sI111
g1229
sI112
g1230
sI113
g1231
sI114
g1232
sI115
g1233
sI116
g1234
sI117
g1235
sI118
g1236
sI119
g1237
sI120
g1238
sI121
g1239
sI122
g1240
sI123
g1241
sI124
g1242
sI125
g1243
sI126
g1244
sI127
g1245
ssg17
VDest 1
p1656
sbag1
(g24
g3
Ntp1657
Rp1658
(dp1659
g15
g1117
sg29
(lp1660
sg19
(I1
I70
tp1661
sg32
I1
sg33
(dp1662
I0
g1121
sI1
g1122
sI2
g1123
sI3
g1124
sI4
g1125
sI5
g1126
sI6
g1127
sI7
g1128
sI8
g1129
sI9
g1130
sI10
g1131
sI11
g1132
sI12
g1133
sI13
g1134
sI14
g1135
sI15
g1136
sI16
g1137
sI17
g1138
sI18
g1139
sI19
g1140
sI20
g1141
sI21
g1142
sI22
g1143
sI23
g1144
sI24
g1145
sI25
g1146
sI26
g1147
sI27
g1148
sI28
g1149
sI29
g1150
sI30
g1151
sI31
g1152
sI32
g1153
sI33
g1154
sI34
g1155
sI35
g1156
sI36
g1157
sI37
g1158
sI38
g1159
sI39
g1160
sI40
g1161
sI41
g1162
sI42
g1163
sI43
g1164
sI44
g1165
sI45
g1166
sI46
g1167
sI47
g1168
sI48
g1169
sI49
g1170
sI50
g1171
sI51
g1172
sI52
g1173
sI53
g1174
sI54
g1175
sI55
g1176
sI56
g1177
sI57
g1178
sI58
g1179
sI59
g1180
sI60
g1181
sI61
g1182
sI62
g1183
sI63
g1184
sI64
g1185
sI65
g1186
sI66
g1187
sI67
g1188
sI68
g1189
sI69
g1190
sI70
g1191
sI71
g1192
sI72
g1193
sI73
g1194
sI74
g1195
sI75
g1196
sI76
g1197
sI77
g1198
sI80
g1199
sI82
g1200
sI83
g1201
sI84
g1202
sI85
g1203
sI86
g1204
sI87
g1205
sI88
g1206
sI89
g1207
sI90
g1208
sI91
g1209
sI92
g1210
sI93
g1211
sI94
g1212
sI95
g1213
sI96
g1214
sI97
g1215
sI98
g1216
sI99
g1217
sI100
g1218
sI101
g1219
sI102
g1220
sI103
g1221
sI104
g1222
sI105
g1223
sI106
g1224
sI107
g1225
sI108
g1226
sI109
g1227
sI110
g1228
sI111
g1229
sI112
g1230
sI113
g1231
sI114
g1232
sI115
g1233
sI116
g1234
sI117
g1235
sI118
g1236
sI119
g1237
sI120
g1238
sI121
g1239
sI122
g1240
sI123
g1241
sI124
g1242
sI125
g1243
sI126
g1244
sI127
g1245
ssg17
VDest 2
p1663
sbag1
(g24
g3
Ntp1664
Rp1665
(dp1666
g15
g1117
sg29
(lp1667
sg19
(I3
I94
tp1668
sg32
I1
sg33
(dp1669
I0
g1121
sI1
g1122
sI2
g1123
sI3
g1124
sI4
g1125
sI5
g1126
sI6
g1127
sI7
g1128
sI8
g1129
sI9
g1130
sI10
g1131
sI11
g1132
sI12
g1133
sI13
g1134
sI14
g1135
sI15
g1136
sI16
g1137
sI17
g1138
sI18
g1139
sI19
g1140
sI20
g1141
sI21
g1142
sI22
g1143
sI23
g1144
sI24
g1145
sI25
g1146
sI26
g1147
sI27
g1148
sI28
g1149
sI29
g1150
sI30
g1151
sI31
g1152
sI32
g1153
sI33
g1154
sI34
g1155
sI35
g1156
sI36
g1157
sI37
g1158
sI38
g1159
sI39
g1160
sI40
g1161
sI41
g1162
sI42
g1163
sI43
g1164
sI44
g1165
sI45
g1166
sI46
g1167
sI47
g1168
sI48
g1169
sI49
g1170
sI50
g1171
sI51
g1172
sI52
g1173
sI53
g1174
sI54
g1175
sI55
g1176
sI56
g1177
sI57
g1178
sI58
g1179
sI59
g1180
sI60
g1181
sI61
g1182
sI62
g1183
sI63
g1184
sI64
g1185
sI65
g1186
sI66
g1187
sI67
g1188
sI68
g1189
sI69
g1190
sI70
g1191
sI71
g1192
sI72
g1193
sI73
g1194
sI74
g1195
sI75
g1196
sI76
g1197
sI77
g1198
sI80
g1199
sI82
g1200
sI83
g1201
sI84
g1202
sI85
g1203
sI86
g1204
sI87
g1205
sI88
g1206
sI89
g1207
sI90
g1208
sI91
g1209
sI92
g1210
sI93
g1211
sI94
g1212
sI95
g1213
sI96
g1214
sI97
g1215
sI98
g1216
sI99
g1217
sI100
g1218
sI101
g1219
sI102
g1220
sI103
g1221
sI104
g1222
sI105
g1223
sI106
g1224
sI107
g1225
sI108
g1226
sI109
g1227
sI110
g1228
sI111
g1229
sI112
g1230
sI113
g1231
sI114
g1232
sI115
g1233
sI116
g1234
sI117
g1235
sI118
g1236
sI119
g1237
sI120
g1238
sI121
g1239
sI122
g1240
sI123
g1241
sI124
g1242
sI125
g1243
sI126
g1244
sI127
g1245
ssg17
VDest 3
p1670
sbasg33
(dp1671
sbag1
(g11
g3
Ntp1672
Rp1673
(dp1674
g15
g1469
sg17
VSlot 5
p1675
sg19
g1471
sg21
I0
sg22
(lp1676
g1
(g24
g3
Ntp1677
Rp1678
(dp1679
g15
g1476
sg29
(lp1680
sg19
(I1
I106
tp1681
sg32
I1
sg33
(dp1682
I0
g1480
sI1
g1481
sI2
g1482
sI3
g1483
sI4
g1484
sI5
g1485
sI6
g1486
sI7
g1487
sI8
g1488
sI9
g1489
sI10
g1490
sI11
g1491
sI12
g1492
sI13
g1493
sI14
g1494
sI15
g1495
sI16
g1496
sI17
g1497
sI18
g1498
sI19
g1499
sI20
g1500
sI21
g1501
sI22
g1502
sI23
g1503
sI24
g1504
sI25
g1505
sI26
g1506
sI27
g1507
sI28
g1508
sI29
g1509
sI30
g1510
sI31
g1511
sI32
g1512
sI33
g1513
sI34
g1514
sI35
g1515
sI36
g1516
sI37
g1517
ssg17
VSource
p1683
sbag1
(g24
g3
Ntp1684
Rp1685
(dp1686
g15
g1117
sg29
(lp1687
sg19
(I1
I108
tp1688
sg32
I4
sg33
(dp1689
sg17
VAmount 1
p1690
sbag1
(g24
g3
Ntp1691
Rp1692
(dp1693
g15
g1117
sg29
(lp1694
sg19
(I3
I101
tp1695
sg32
I4
sg33
(dp1696
sg17
VAmount 2
p1697
sbag1
(g24
g3
Ntp1698
Rp1699
(dp1700
g15
g1117
sg29
(lp1701
sg19
(I3
I103
tp1702
sg32
I4
sg33
(dp1703
sg17
VAmount 3
p1704
sbag1
(g24
g3
Ntp1705
Rp1706
(dp1707
g15
g1117
sg29
(lp1708
sg19
(I1
I107
tp1709
sg32
I1
sg33
(dp1710
I0
g1121
sI1
g1122
sI2
g1123
sI3
g1124
sI4
g1125
sI5
g1126
sI6
g1127
sI7
g1128
sI8
g1129
sI9
g1130
sI10
g1131
sI11
g1132
sI12
g1133
sI13
g1134
sI14
g1135
sI15
g1136
sI16
g1137
sI17
g1138
sI18
g1139
sI19
g1140
sI20
g1141
sI21
g1142
sI22
g1143
sI23
g1144
sI24
g1145
sI25
g1146
sI26
g1147
sI27
g1148
sI28
g1149
sI29
g1150
sI30
g1151
sI31
g1152
sI32
g1153
sI33
g1154
sI34
g1155
sI35
g1156
sI36
g1157
sI37
g1158
sI38
g1159
sI39
g1160
sI40
g1161
sI41
g1162
sI42
g1163
sI43
g1164
sI44
g1165
sI45
g1166
sI46
g1167
sI47
g1168
sI48
g1169
sI49
g1170
sI50
g1171
sI51
g1172
sI52
g1173
sI53
g1174
sI54
g1175
sI55
g1176
sI56
g1177
sI57
g1178
sI58
g1179
sI59
g1180
sI60
g1181
sI61
g1182
sI62
g1183
sI63
g1184
sI64
g1185
sI65
g1186
sI66
g1187
sI67
g1188
sI68
g1189
sI69
g1190
sI70
g1191
sI71
g1192
sI72
g1193
sI73
g1194
sI74
g1195
sI75
g1196
sI76
g1197
sI77
g1198
sI80
g1199
sI82
g1200
sI83
g1201
sI84
g1202
sI85
g1203
sI86
g1204
sI87
g1205
sI88
g1206
sI89
g1207
sI90
g1208
sI91
g1209
sI92
g1210
sI93
g1211
sI94
g1212
sI95
g1213
sI96
g1214
sI97
g1215
sI98
g1216
sI99
g1217
sI100
g1218
sI101
g1219
sI102
g1220
sI103
g1221
sI104
g1222
sI105
g1223
sI106
g1224
sI107
g1225
sI108
g1226
sI109
g1227
sI110
g1228
sI111
g1229
sI112
g1230
sI113
g1231
sI114
g1232
sI115
g1233
sI116
g1234
sI117
g1235
sI118
g1236
sI119
g1237
sI120
g1238
sI121
g1239
sI122
g1240
sI123
g1241
sI124
g1242
sI125
g1243
sI126
g1244
sI127
g1245
ssg17
VDest 1
p1711
sbag1
(g24
g3
Ntp1712
Rp1713
(dp1714
g15
g1117
sg29
(lp1715
sg19
(I3
I100
tp1716
sg32
I1
sg33
(dp1717
I0
g1121
sI1
g1122
sI2
g1123
sI3
g1124
sI4
g1125
sI5
g1126
sI6
g1127
sI7
g1128
sI8
g1129
sI9
g1130
sI10
g1131
sI11
g1132
sI12
g1133
sI13
g1134
sI14
g1135
sI15
g1136
sI16
g1137
sI17
g1138
sI18
g1139
sI19
g1140
sI20
g1141
sI21
g1142
sI22
g1143
sI23
g1144
sI24
g1145
sI25
g1146
sI26
g1147
sI27
g1148
sI28
g1149
sI29
g1150
sI30
g1151
sI31
g1152
sI32
g1153
sI33
g1154
sI34
g1155
sI35
g1156
sI36
g1157
sI37
g1158
sI38
g1159
sI39
g1160
sI40
g1161
sI41
g1162
sI42
g1163
sI43
g1164
sI44
g1165
sI45
g1166
sI46
g1167
sI47
g1168
sI48
g1169
sI49
g1170
sI50
g1171
sI51
g1172
sI52
g1173
sI53
g1174
sI54
g1175
sI55
g1176
sI56
g1177
sI57
g1178
sI58
g1179
sI59
g1180
sI60
g1181
sI61
g1182
sI62
g1183
sI63
g1184
sI64
g1185
sI65
g1186
sI66
g1187
sI67
g1188
sI68
g1189
sI69
g1190
sI70
g1191
sI71
g1192
sI72
g1193
sI73
g1194
sI74
g1195
sI75
g1196
sI76
g1197
sI77
g1198
sI80
g1199
sI82
g1200
sI83
g1201
sI84
g1202
sI85
g1203
sI86
g1204
sI87
g1205
sI88
g1206
sI89
g1207
sI90
g1208
sI91
g1209
sI92
g1210
sI93
g1211
sI94
g1212
sI95
g1213
sI96
g1214
sI97
g1215
sI98
g1216
sI99
g1217
sI100
g1218
sI101
g1219
sI102
g1220
sI103
g1221
sI104
g1222
sI105
g1223
sI106
g1224
sI107
g1225
sI108
g1226
sI109
g1227
sI110
g1228
sI111
g1229
sI112
g1230
sI113
g1231
sI114
g1232
sI115
g1233
sI116
g1234
sI117
g1235
sI118
g1236
sI119
g1237
sI120
g1238
sI121
g1239
sI122
g1240
sI123
g1241
sI124
g1242
sI125
g1243
sI126
g1244
sI127
g1245
ssg17
VDest 2
p1718
sbag1
(g24
g3
Ntp1719
Rp1720
(dp1721
g15
g1117
sg29
(lp1722
sg19
(I3
I102
tp1723
sg32
I1
sg33
(dp1724
I0
g1121
sI1
g1122
sI2
g1123
sI3
g1124
sI4
g1125
sI5
g1126
sI6
g1127
sI7
g1128
sI8
g1129
sI9
g1130
sI10
g1131
sI11
g1132
sI12
g1133
sI13
g1134
sI14
g1135
sI15
g1136
sI16
g1137
sI17
g1138
sI18
g1139
sI19
g1140
sI20
g1141
sI21
g1142
sI22
g1143
sI23
g1144
sI24
g1145
sI25
g1146
sI26
g1147
sI27
g1148
sI28
g1149
sI29
g1150
sI30
g1151
sI31
g1152
sI32
g1153
sI33
g1154
sI34
g1155
sI35
g1156
sI36
g1157
sI37
g1158
sI38
g1159
sI39
g1160
sI40
g1161
sI41
g1162
sI42
g1163
sI43
g1164
sI44
g1165
sI45
g1166
sI46
g1167
sI47
g1168
sI48
g1169
sI49
g1170
sI50
g1171
sI51
g1172
sI52
g1173
sI53
g1174
sI54
g1175
sI55
g1176
sI56
g1177
sI57
g1178
sI58
g1179
sI59
g1180
sI60
g1181
sI61
g1182
sI62
g1183
sI63
g1184
sI64
g1185
sI65
g1186
sI66
g1187
sI67
g1188
sI68
g1189
sI69
g1190
sI70
g1191
sI71
g1192
sI72
g1193
sI73
g1194
sI74
g1195
sI75
g1196
sI76
g1197
sI77
g1198
sI80
g1199
sI82
g1200
sI83
g1201
sI84
g1202
sI85
g1203
sI86
g1204
sI87
g1205
sI88
g1206
sI89
g1207
sI90
g1208
sI91
g1209
sI92
g1210
sI93
g1211
sI94
g1212
sI95
g1213
sI96
g1214
sI97
g1215
sI98
g1216
sI99
g1217
sI100
g1218
sI101
g1219
sI102
g1220
sI103
g1221
sI104
g1222
sI105
g1223
sI106
g1224
sI107
g1225
sI108
g1226
sI109
g1227
sI110
g1228
sI111
g1229
sI112
g1230
sI113
g1231
sI114
g1232
sI115
g1233
sI116
g1234
sI117
g1235
sI118
g1236
sI119
g1237
sI120
g1238
sI121
g1239
sI122
g1240
sI123
g1241
sI124
g1242
sI125
g1243
sI126
g1244
sI127
g1245
ssg17
VDest 3
p1725
sbasg33
(dp1726
sbag1
(g11
g3
Ntp1727
Rp1728
(dp1729
g15
g1469
sg17
VSlot 3
p1730
sg19
g1471
sg21
I0
sg22
(lp1731
g1
(g24
g3
Ntp1732
Rp1733
(dp1734
g15
g1476
sg29
(lp1735
sg19
(I1
I72
tp1736
sg32
I1
sg33
(dp1737
I0
g1480
sI1
g1481
sI2
g1482
sI3
g1483
sI4
g1484
sI5
g1485
sI6
g1486
sI7
g1487
sI8
g1488
sI9
g1489
sI10
g1490
sI11
g1491
sI12
g1492
sI13
g1493
sI14
g1494
sI15
g1495
sI16
g1496
sI17
g1497
sI18
g1498
sI19
g1499
sI20
g1500
sI21
g1501
sI22
g1502
sI23
g1503
sI24
g1504
sI25
g1505
sI26
g1506
sI27
g1507
sI28
g1508
sI29
g1509
sI30
g1510
sI31
g1511
sI32
g1512
sI33
g1513
sI34
g1514
sI35
g1515
sI36
g1516
sI37
g1517
ssg17
VSource
p1738
sbag1
(g24
g3
Ntp1739
Rp1740
(dp1741
g15
g1117
sg29
(lp1742
sg19
(I1
I74
tp1743
sg32
I4
sg33
(dp1744
sg17
VAmount 1
p1745
sbag1
(g24
g3
Ntp1746
Rp1747
(dp1748
g15
g1117
sg29
(lp1749
sg19
(I1
I76
tp1750
sg32
I4
sg33
(dp1751
sg17
VAmount 2
p1752
sbag1
(g24
g3
Ntp1753
Rp1754
(dp1755
g15
g1117
sg29
(lp1756
sg19
(I1
I78
tp1757
sg32
I4
sg33
(dp1758
sg17
VAmount 3
p1759
sbag1
(g24
g3
Ntp1760
Rp1761
(dp1762
g15
g1117
sg29
(lp1763
sg19
(I1
I73
tp1764
sg32
I1
sg33
(dp1765
I0
g1121
sI1
g1122
sI2
g1123
sI3
g1124
sI4
g1125
sI5
g1126
sI6
g1127
sI7
g1128
sI8
g1129
sI9
g1130
sI10
g1131
sI11
g1132
sI12
g1133
sI13
g1134
sI14
g1135
sI15
g1136
sI16
g1137
sI17
g1138
sI18
g1139
sI19
g1140
sI20
g1141
sI21
g1142
sI22
g1143
sI23
g1144
sI24
g1145
sI25
g1146
sI26
g1147
sI27
g1148
sI28
g1149
sI29
g1150
sI30
g1151
sI31
g1152
sI32
g1153
sI33
g1154
sI34
g1155
sI35
g1156
sI36
g1157
sI37
g1158
sI38
g1159
sI39
g1160
sI40
g1161
sI41
g1162
sI42
g1163
sI43
g1164
sI44
g1165
sI45
g1166
sI46
g1167
sI47
g1168
sI48
g1169
sI49
g1170
sI50
g1171
sI51
g1172
sI52
g1173
sI53
g1174
sI54
g1175
sI55
g1176
sI56
g1177
sI57
g1178
sI58
g1179
sI59
g1180
sI60
g1181
sI61
g1182
sI62
g1183
sI63
g1184
sI64
g1185
sI65
g1186
sI66
g1187
sI67
g1188
sI68
g1189
sI69
g1190
sI70
g1191
sI71
g1192
sI72
g1193
sI73
g1194
sI74
g1195
sI75
g1196
sI76
g1197
sI77
g1198
sI80
g1199
sI82
g1200
sI83
g1201
sI84
g1202
sI85
g1203
sI86
g1204
sI87
g1205
sI88
g1206
sI89
g1207
sI90
g1208
sI91
g1209
sI92
g1210
sI93
g1211
sI94
g1212
sI95
g1213
sI96
g1214
sI97
g1215
sI98
g1216
sI99
g1217
sI100
g1218
sI101
g1219
sI102
g1220
sI103
g1221
sI104
g1222
sI105
g1223
sI106
g1224
sI107
g1225
sI108
g1226
sI109
g1227
sI110
g1228
sI111
g1229
sI112
g1230
sI113
g1231
sI114
g1232
sI115
g1233
sI116
g1234
sI117
g1235
sI118
g1236
sI119
g1237
sI120
g1238
sI121
g1239
sI122
g1240
sI123
g1241
sI124
g1242
sI125
g1243
sI126
g1244
sI127
g1245
ssg17
VDest 1
p1766
sbag1
(g24
g3
Ntp1767
Rp1768
(dp1769
g15
g1117
sg29
(lp1770
sg19
(I1
I75
tp1771
sg32
I1
sg33
(dp1772
I0
g1121
sI1
g1122
sI2
g1123
sI3
g1124
sI4
g1125
sI5
g1126
sI6
g1127
sI7
g1128
sI8
g1129
sI9
g1130
sI10
g1131
sI11
g1132
sI12
g1133
sI13
g1134
sI14
g1135
sI15
g1136
sI16
g1137
sI17
g1138
sI18
g1139
sI19
g1140
sI20
g1141
sI21
g1142
sI22
g1143
sI23
g1144
sI24
g1145
sI25
g1146
sI26
g1147
sI27
g1148
sI28
g1149
sI29
g1150
sI30
g1151
sI31
g1152
sI32
g1153
sI33
g1154
sI34
g1155
sI35
g1156
sI36
g1157
sI37
g1158
sI38
g1159
sI39
g1160
sI40
g1161
sI41
g1162
sI42
g1163
sI43
g1164
sI44
g1165
sI45
g1166
sI46
g1167
sI47
g1168
sI48
g1169
sI49
g1170
sI50
g1171
sI51
g1172
sI52
g1173
sI53
g1174
sI54
g1175
sI55
g1176
sI56
g1177
sI57
g1178
sI58
g1179
sI59
g1180
sI60
g1181
sI61
g1182
sI62
g1183
sI63
g1184
sI64
g1185
sI65
g1186
sI66
g1187
sI67
g1188
sI68
g1189
sI69
g1190
sI70
g1191
sI71
g1192
sI72
g1193
sI73
g1194
sI74
g1195
sI75
g1196
sI76
g1197
sI77
g1198
sI80
g1199
sI82
g1200
sI83
g1201
sI84
g1202
sI85
g1203
sI86
g1204
sI87
g1205
sI88
g1206
sI89
g1207
sI90
g1208
sI91
g1209
sI92
g1210
sI93
g1211
sI94
g1212
sI95
g1213
sI96
g1214
sI97
g1215
sI98
g1216
sI99
g1217
sI100
g1218
sI101
g1219
sI102
g1220
sI103
g1221
sI104
g1222
sI105
g1223
sI106
g1224
sI107
g1225
sI108
g1226
sI109
g1227
sI110
g1228
sI111
g1229
sI112
g1230
sI113
g1231
sI114
g1232
sI115
g1233
sI116
g1234
sI117
g1235
sI118
g1236
sI119
g1237
sI120
g1238
sI121
g1239
sI122
g1240
sI123
g1241
sI124
g1242
sI125
g1243
sI126
g1244
sI127
g1245
ssg17
VDest 2
p1773
sbag1
(g24
g3
Ntp1774
Rp1775
(dp1776
g15
g1117
sg29
(lp1777
sg19
(I1
I77
tp1778
sg32
I1
sg33
(dp1779
I0
g1121
sI1
g1122
sI2
g1123
sI3
g1124
sI4
g1125
sI5
g1126
sI6
g1127
sI7
g1128
sI8
g1129
sI9
g1130
sI10
g1131
sI11
g1132
sI12
g1133
sI13
g1134
sI14
g1135
sI15
g1136
sI16
g1137
sI17
g1138
sI18
g1139
sI19
g1140
sI20
g1141
sI21
g1142
sI22
g1143
sI23
g1144
sI24
g1145
sI25
g1146
sI26
g1147
sI27
g1148
sI28
g1149
sI29
g1150
sI30
g1151
sI31
g1152
sI32
g1153
sI33
g1154
sI34
g1155
sI35
g1156
sI36
g1157
sI37
g1158
sI38
g1159
sI39
g1160
sI40
g1161
sI41
g1162
sI42
g1163
sI43
g1164
sI44
g1165
sI45
g1166
sI46
g1167
sI47
g1168
sI48
g1169
sI49
g1170
sI50
g1171
sI51
g1172
sI52
g1173
sI53
g1174
sI54
g1175
sI55
g1176
sI56
g1177
sI57
g1178
sI58
g1179
sI59
g1180
sI60
g1181
sI61
g1182
sI62
g1183
sI63
g1184
sI64
g1185
sI65
g1186
sI66
g1187
sI67
g1188
sI68
g1189
sI69
g1190
sI70
g1191
sI71
g1192
sI72
g1193
sI73
g1194
sI74
g1195
sI75
g1196
sI76
g1197
sI77
g1198
sI80
g1199
sI82
g1200
sI83
g1201
sI84
g1202
sI85
g1203
sI86
g1204
sI87
g1205
sI88
g1206
sI89
g1207
sI90
g1208
sI91
g1209
sI92
g1210
sI93
g1211
sI94
g1212
sI95
g1213
sI96
g1214
sI97
g1215
sI98
g1216
sI99
g1217
sI100
g1218
sI101
g1219
sI102
g1220
sI103
g1221
sI104
g1222
sI105
g1223
sI106
g1224
sI107
g1225
sI108
g1226
sI109
g1227
sI110
g1228
sI111
g1229
sI112
g1230
sI113
g1231
sI114
g1232
sI115
g1233
sI116
g1234
sI117
g1235
sI118
g1236
sI119
g1237
sI120
g1238
sI121
g1239
sI122
g1240
sI123
g1241
sI124
g1242
sI125
g1243
sI126
g1244
sI127
g1245
ssg17
VDest 3
p1780
sbasg33
(dp1781
sbag1
(g11
g3
Ntp1782
Rp1783
(dp1784
g15
g1469
sg17
VSlot 6
p1785
sg19
g1471
sg21
I0
sg22
(lp1786
g1
(g24
g3
Ntp1787
Rp1788
(dp1789
g15
g1476
sg29
(lp1790
sg19
(I1
I109
tp1791
sg32
I1
sg33
(dp1792
I0
g1480
sI1
g1481
sI2
g1482
sI3
g1483
sI4
g1484
sI5
g1485
sI6
g1486
sI7
g1487
sI8
g1488
sI9
g1489
sI10
g1490
sI11
g1491
sI12
g1492
sI13
g1493
sI14
g1494
sI15
g1495
sI16
g1496
sI17
g1497
sI18
g1498
sI19
g1499
sI20
g1500
sI21
g1501
sI22
g1502
sI23
g1503
sI24
g1504
sI25
g1505
sI26
g1506
sI27
g1507
sI28
g1508
sI29
g1509
sI30
g1510
sI31
g1511
sI32
g1512
sI33
g1513
sI34
g1514
sI35
g1515
sI36
g1516
sI37
g1517
ssg17
VSource
p1793
sbag1
(g24
g3
Ntp1794
Rp1795
(dp1796
g15
g1117
sg29
(lp1797
sg19
(I1
I111
tp1798
sg32
I4
sg33
(dp1799
sg17
VAmount 1
p1800
sbag1
(g24
g3
Ntp1801
Rp1802
(dp1803
g15
g1117
sg29
(lp1804
sg19
(I3
I105
tp1805
sg32
I4
sg33
(dp1806
sg17
VAmount 2
p1807
sbag1
(g24
g3
Ntp1808
Rp1809
(dp1810
g15
g1117
sg29
(lp1811
sg19
(I3
I107
tp1812
sg32
I4
sg33
(dp1813
sg17
VAmount 3
p1814
sbag1
(g24
g3
Ntp1815
Rp1816
(dp1817
g15
g1117
sg29
(lp1818
sg19
(I1
I110
tp1819
sg32
I1
sg33
(dp1820
I0
g1121
sI1
g1122
sI2
g1123
sI3
g1124
sI4
g1125
sI5
g1126
sI6
g1127
sI7
g1128
sI8
g1129
sI9
g1130
sI10
g1131
sI11
g1132
sI12
g1133
sI13
g1134
sI14
g1135
sI15
g1136
sI16
g1137
sI17
g1138
sI18
g1139
sI19
g1140
sI20
g1141
sI21
g1142
sI22
g1143
sI23
g1144
sI24
g1145
sI25
g1146
sI26
g1147
sI27
g1148
sI28
g1149
sI29
g1150
sI30
g1151
sI31
g1152
sI32
g1153
sI33
g1154
sI34
g1155
sI35
g1156
sI36
g1157
sI37
g1158
sI38
g1159
sI39
g1160
sI40
g1161
sI41
g1162
sI42
g1163
sI43
g1164
sI44
g1165
sI45
g1166
sI46
g1167
sI47
g1168
sI48
g1169
sI49
g1170
sI50
g1171
sI51
g1172
sI52
g1173
sI53
g1174
sI54
g1175
sI55
g1176
sI56
g1177
sI57
g1178
sI58
g1179
sI59
g1180
sI60
g1181
sI61
g1182
sI62
g1183
sI63
g1184
sI64
g1185
sI65
g1186
sI66
g1187
sI67
g1188
sI68
g1189
sI69
g1190
sI70
g1191
sI71
g1192
sI72
g1193
sI73
g1194
sI74
g1195
sI75
g1196
sI76
g1197
sI77
g1198
sI80
g1199
sI82
g1200
sI83
g1201
sI84
g1202
sI85
g1203
sI86
g1204
sI87
g1205
sI88
g1206
sI89
g1207
sI90
g1208
sI91
g1209
sI92
g1210
sI93
g1211
sI94
g1212
sI95
g1213
sI96
g1214
sI97
g1215
sI98
g1216
sI99
g1217
sI100
g1218
sI101
g1219
sI102
g1220
sI103
g1221
sI104
g1222
sI105
g1223
sI106
g1224
sI107
g1225
sI108
g1226
sI109
g1227
sI110
g1228
sI111
g1229
sI112
g1230
sI113
g1231
sI114
g1232
sI115
g1233
sI116
g1234
sI117
g1235
sI118
g1236
sI119
g1237
sI120
g1238
sI121
g1239
sI122
g1240
sI123
g1241
sI124
g1242
sI125
g1243
sI126
g1244
sI127
g1245
ssg17
VDest 1
p1821
sbag1
(g24
g3
Ntp1822
Rp1823
(dp1824
g15
g1117
sg29
(lp1825
sg19
(I3
I104
tp1826
sg32
I1
sg33
(dp1827
I0
g1121
sI1
g1122
sI2
g1123
sI3
g1124
sI4
g1125
sI5
g1126
sI6
g1127
sI7
g1128
sI8
g1129
sI9
g1130
sI10
g1131
sI11
g1132
sI12
g1133
sI13
g1134
sI14
g1135
sI15
g1136
sI16
g1137
sI17
g1138
sI18
g1139
sI19
g1140
sI20
g1141
sI21
g1142
sI22
g1143
sI23
g1144
sI24
g1145
sI25
g1146
sI26
g1147
sI27
g1148
sI28
g1149
sI29
g1150
sI30
g1151
sI31
g1152
sI32
g1153
sI33
g1154
sI34
g1155
sI35
g1156
sI36
g1157
sI37
g1158
sI38
g1159
sI39
g1160
sI40
g1161
sI41
g1162
sI42
g1163
sI43
g1164
sI44
g1165
sI45
g1166
sI46
g1167
sI47
g1168
sI48
g1169
sI49
g1170
sI50
g1171
sI51
g1172
sI52
g1173
sI53
g1174
sI54
g1175
sI55
g1176
sI56
g1177
sI57
g1178
sI58
g1179
sI59
g1180
sI60
g1181
sI61
g1182
sI62
g1183
sI63
g1184
sI64
g1185
sI65
g1186
sI66
g1187
sI67
g1188
sI68
g1189
sI69
g1190
sI70
g1191
sI71
g1192
sI72
g1193
sI73
g1194
sI74
g1195
sI75
g1196
sI76
g1197
sI77
g1198
sI80
g1199
sI82
g1200
sI83
g1201
sI84
g1202
sI85
g1203
sI86
g1204
sI87
g1205
sI88
g1206
sI89
g1207
sI90
g1208
sI91
g1209
sI92
g1210
sI93
g1211
sI94
g1212
sI95
g1213
sI96
g1214
sI97
g1215
sI98
g1216
sI99
g1217
sI100
g1218
sI101
g1219
sI102
g1220
sI103
g1221
sI104
g1222
sI105
g1223
sI106
g1224
sI107
g1225
sI108
g1226
sI109
g1227
sI110
g1228
sI111
g1229
sI112
g1230
sI113
g1231
sI114
g1232
sI115
g1233
sI116
g1234
sI117
g1235
sI118
g1236
sI119
g1237
sI120
g1238
sI121
g1239
sI122
g1240
sI123
g1241
sI124
g1242
sI125
g1243
sI126
g1244
sI127
g1245
ssg17
VDest 2
p1828
sbag1
(g24
g3
Ntp1829
Rp1830
(dp1831
g15
g1117
sg29
(lp1832
sg19
(I3
I106
tp1833
sg32
I1
sg33
(dp1834
I0
g1121
sI1
g1122
sI2
g1123
sI3
g1124
sI4
g1125
sI5
g1126
sI6
g1127
sI7
g1128
sI8
g1129
sI9
g1130
sI10
g1131
sI11
g1132
sI12
g1133
sI13
g1134
sI14
g1135
sI15
g1136
sI16
g1137
sI17
g1138
sI18
g1139
sI19
g1140
sI20
g1141
sI21
g1142
sI22
g1143
sI23
g1144
sI24
g1145
sI25
g1146
sI26
g1147
sI27
g1148
sI28
g1149
sI29
g1150
sI30
g1151
sI31
g1152
sI32
g1153
sI33
g1154
sI34
g1155
sI35
g1156
sI36
g1157
sI37
g1158
sI38
g1159
sI39
g1160
sI40
g1161
sI41
g1162
sI42
g1163
sI43
g1164
sI44
g1165
sI45
g1166
sI46
g1167
sI47
g1168
sI48
g1169
sI49
g1170
sI50
g1171
sI51
g1172
sI52
g1173
sI53
g1174
sI54
g1175
sI55
g1176
sI56
g1177
sI57
g1178
sI58
g1179
sI59
g1180
sI60
g1181
sI61
g1182
sI62
g1183
sI63
g1184
sI64
g1185
sI65
g1186
sI66
g1187
sI67
g1188
sI68
g1189
sI69
g1190
sI70
g1191
sI71
g1192
sI72
g1193
sI73
g1194
sI74
g1195
sI75
g1196
sI76
g1197
sI77
g1198
sI80
g1199
sI82
g1200
sI83
g1201
sI84
g1202
sI85
g1203
sI86
g1204
sI87
g1205
sI88
g1206
sI89
g1207
sI90
g1208
sI91
g1209
sI92
g1210
sI93
g1211
sI94
g1212
sI95
g1213
sI96
g1214
sI97
g1215
sI98
g1216
sI99
g1217
sI100
g1218
sI101
g1219
sI102
g1220
sI103
g1221
sI104
g1222
sI105
g1223
sI106
g1224
sI107
g1225
sI108
g1226
sI109
g1227
sI110
g1228
sI111
g1229
sI112
g1230
sI113
g1231
sI114
g1232
sI115
g1233
sI116
g1234
sI117
g1235
sI118
g1236
sI119
g1237
sI120
g1238
sI121
g1239
sI122
g1240
sI123
g1241
sI124
g1242
sI125
g1243
sI126
g1244
sI127
g1245
ssg17
VDest 3
p1835
sbasg33
(dp1836
sbasg17
V.Matrix
p1837
sg675
I3
sba.