(lp0
ccopy_reg
_reconstructor
p1
(cvxcctrl
PageDef
p2
c__builtin__
object
p3
Ntp4
Rp5
(dp6
S'collength'
p7
(dp8
I0
I1
sI1
I1
ssS'blocks'
p9
(lp10
g1
(cvxcctrl
BlockDef
p11
g3
Ntp12
Rp13
(dp14
S'valrange'
p15
(I0
I7
tp16
sS'name'
p17
VOsc 1
p18
sS'cid'
p19
(I3
I30
tp20
sS'modetype'
p21
I1
sS'ctrldefs'
p22
(lp23
g1
(cvxcctrl
CtrlDef
p24
g3
Ntp25
Rp26
(dp27
g15
(I0
I7
tp28
sS'modes'
p29
(lp30
I0
aI1
aI2
aI3
aI4
aI5
aI6
aI7
asg19
(I3
I30
tp31
sS'ctype'
p32
I1
sS'valinfo'
p33
(dp34
I0
VClassic
p35
sI1
VHyperSaw
p36
sI2
VWavetable
p37
sI3
VWave PWM
p38
sI4
VGrain Simple
p39
sI5
VGrain Complex
p40
sI6
VFormant Simple
p41
sI7
VFormant Complex
p42
ssg17
VMode
p43
sbag1
(g24
g3
Ntp44
Rp45
(dp46
g15
(I0
I127
tp47
sg29
(lp48
I0
asg19
(I0
I17
tp49
sg32
I2
sg33
(dp50
I0
VWave
p51
sI1
VWave>Saw
p52
sI2
VSaw
p53
sI3
VSaw>Pulse
p54
sI4
VPulse
p55
ssg17
VShape
p56
sbag1
(g24
g3
Ntp57
Rp58
(dp59
g15
(I0
I127
tp60
sg29
(lp61
I1
asg19
(I0
I17
tp62
sg32
I8
sg33
(dp63
I0
V1 0
p64
sI1
V1.6 17
p65
sI2
V2 32
p66
sI3
V3 64
p67
sI4
V4 80
p68
sI5
V5 96
p69
sI6
V6 104
p70
sI7
V7 112
p71
sI8
V8 120
p72
sI9
V9 127
p73
ssg17
VDensity
p74
sbag1
(g24
g3
Ntp75
Rp76
(dp77
g15
(I0
I127
tp78
sg29
(lp79
I2
aI3
aI4
aI5
aI6
aI7
asg19
(I0
I17
tp80
sg32
I0
sg33
(dp81
sg17
VIndex
p82
sbag1
(g24
g3
Ntp83
Rp84
(dp85
g15
(I2
I63
tp86
sg29
(lp87
I0
asg19
(I0
I19
tp88
sg32
I12
sg33
(dp89
I0
VSine
p90
sI1
VTriangle
p91
sI2
VWave 3
p92
ssg17
VWave Sel
p93
sbag1
(g24
g3
Ntp94
Rp95
(dp96
g15
(I0
I99
tp97
sg29
(lp98
I2
aI3
aI4
aI5
aI6
aI7
asg19
(I0
I19
tp99
sg32
I1
sg33
(dp100
I0
VSine
p101
sI1
VHarmncSweep
p102
sI2
VGlass Sweep
p103
sI3
VDraw Bars
p104
sI4
VCluster
p105
sI5
VInsine Out
p106
sI6
VLanding
p107
sI7
VLiquid Metal
p108
sI8
VOpposition
p109
sI9
VOvertunes 1
p110
sI10
VOvertunes 2
p111
sI11
VScale Trix
p112
sI12
VSine Rider
p113
sI13
VSqr Series
p114
sI14
VUpsine Down
p115
sI15
VThumbs Up
p116
sI16
VWaterphone
p117
sI17
VE-Chime
p118
sI18
VTinkabell
p119
sI19
VBellfizz
p120
sI20
VBellentine
p121
sI21
VRobot Wars
p122
sI22
VAlternator
p123
sI23
VFinger Bass
p124
sI24
VFizzybar
p125
sI25
VFlutes
p126
sI26
VHP Love
p127
sI27
VMajestix
p128
sI28
VHotch Potch
p129
sI29
VResynater
p130
sI30
VSmooth Rough
p131
sI31
VSawsalito
p132
sI32
VBells 1
p133
sI33
VBells 2
p134
sI34
VSportReport
p135
sI35
VMetal Guru
p136
sI36
VBat Cave
p137
sI37
VAcetate
p138
sI38
VBuzzbizz
p139
sI39
VBuzzpartout
p140
sI40
VVanish
p141
sI41
VOverbones
p142
sI42
VPulsechecker
p143
sI43
VStratosfear
p144
sI44
VSooty Sweep
p145
sI45
VThroaty
p146
sI46
VDidgitalis
p147
sI47
VEvil
p148
sI48
VChords
p149
sI49
VFM Grit
p150
sI50
VBellsarnie
p151
sI51
VOctavius
p152
sI52
VEat Pulse
p153
sI53
VSinzin
p154
sI54
VSine System
p155
sI55
VClip Sweep
p156
sI56
VRoughage
p157
sI57
VWaving
p158
sI58
VPling Saw
p159
sI59
VE-Peas
p160
sI60
VBump Sweep
p161
sI61
VFilter Sqr
p162
sI62
VFourmant
p163
sI63
VFormantera
p164
sI64
VSundial 1
p165
sI65
VSundial 2
p166
sI66
VSundial 3
p167
sI67
VClipdial 1
p168
sI68
VClipdial 2
p169
sI69
VVoxonix
p170
sI70
VSolenoid
p171
sI71
VKlingKlang
p172
sI72
VViolator
p173
sI73
VPotassium
p174
sI74
VPile Up
p175
sI75
VTincanali
p176
sI76
VSniper
p177
sI77
VSqueezy
p178
sI78
VDecomposer
p179
sI79
VMorfants
p180
sI80
VPingvox
p181
sI81
VAdenoids
p182
sI82
VNasal
p183
sI83
VPartialism
p184
sI84
VTableDance
p185
sI85
VCascade
p186
sI86
VPrismism
p187
sI87
VFriction
p188
sI88
VRobotix
p189
sI89
VWhizzfizz
p190
sI90
VSpangly
p191
sI91
VFluxbin
p192
sI92
VFiboglide
p193
sI93
VFibonice
p194
sI94
VFibonasty
p195
sI95
VPenetrator
p196
sI96
VBlinder
p197
sI97
VElement 5
p198
sI98
VBad Signs
p199
sI99
VDomina7rix
p200
ssg17
VWaveTable
p201
sbag1
(g24
g3
Ntp202
Rp203
(dp204
g15
(I0
I127
tp205
sg29
(lp206
I0
asg19
(I0
I18
tp207
sg32
I7
sg33
(dp208
I0
V50
p209
sI1
V100
p210
ssg17
VPulse Width
p211
sbag1
(g24
g3
Ntp212
Rp213
(dp214
g15
g205
sg29
(lp215
I3
asg19
g207
sg32
I0
sg33
(dp216
I0
g209
sI1
g210
ssg17
VPulse Width
p217
sbag1
(g24
g3
Ntp218
Rp219
(dp220
g15
(I0
I127
tp221
sg29
(lp222
I1
asg19
(I0
I18
tp223
sg32
I0
sg33
(dp224
sg17
VLocal Detune
p225
sbag1
(g24
g3
Ntp226
Rp227
(dp228
g15
(I0
I127
tp229
sg29
(lp230
I4
aI5
aI6
aI7
asg19
(I3
I42
tp231
sg32
I4
sg33
(dp232
sg17
VF-Shift
p233
sbag1
(g24
g3
Ntp234
Rp235
(dp236
g15
g229
sg29
(lp237
I5
aI7
asg19
(I3
I37
tp238
sg32
I0
sg33
(dp239
sg17
VF-Spread
p240
sbag1
(g24
g3
Ntp241
Rp242
(dp243
g15
g229
sg29
(lp244
I2
aI3
aI4
aI5
aI6
aI7
asg19
(I3
I44
tp245
sg32
I0
sg33
(dp246
sg17
VInterpolation
p247
sbag1
(g24
g3
Ntp248
Rp249
(dp250
g15
g229
sg29
(lp251
I3
aI5
aI7
asg19
(I3
I43
tp252
sg32
I0
sg33
(dp253
sg17
VLocal Detune
p254
sbag1
(g24
g3
Ntp255
Rp256
(dp257
g15
(I0
I127
tp258
sg29
(lp259
sg19
(I0
I17
tp260
sg32
I11
sg33
(dp261
sg17
V----
p262
sbag1
(g24
g3
Ntp263
Rp264
(dp265
g15
(I16
I112
tp266
sg29
(lp267
I0
aI1
aI2
aI3
aI4
aI5
aI6
aI7
asg19
(I0
I20
tp268
sg32
I4
sg33
(dp269
sg17
VSemitone
p270
sbag1
(g24
g3
Ntp271
Rp272
(dp273
g15
(I0
I127
tp274
sg29
(lp275
I0
aI1
aI2
aI3
aI4
aI5
aI6
aI7
asg19
(I0
I21
tp276
sg32
I6
sg33
(dp277
I0
VNorm 32
p278
ssg17
VKey Follow
p279
sbasg33
(dp280
sbag1
(g11
g3
Ntp281
Rp282
(dp283
g15
g16
sg17
VOsc 2
p284
sg19
(I3
I35
tp285
sg21
I1
sg22
(lp286
g1
(g24
g3
Ntp287
Rp288
(dp289
g15
g28
sg29
(lp290
I0
aI1
aI2
aI3
aI4
aI5
aI6
aI7
asg19
(I3
I35
tp291
sg32
I1
sg33
(dp292
I0
g35
sI1
g36
sI2
g37
sI3
g38
sI4
VGrain Simple
p293
sI5
VGrain Complex
p294
sI6
VFormant Simple
p295
sI7
VFormant Complex
p296
ssg17
VMode
p297
sbag1
(g24
g3
Ntp298
Rp299
(dp300
g15
g47
sg29
(lp301
I0
asg19
(I0
I22
tp302
sg32
I2
sg33
(dp303
I0
g51
sI1
g52
sI2
g53
sI3
g54
sI4
g55
ssg17
VShape
p304
sbag1
(g24
g3
Ntp305
Rp306
(dp307
g15
g60
sg29
(lp308
I1
asg19
(I0
I22
tp309
sg32
I8
sg33
(dp310
I0
g64
sI1
g65
sI2
g66
sI3
g67
sI4
g68
sI5
g69
sI6
g70
sI7
g71
sI8
g72
sI9
g73
ssg17
VDensity
p311
sbag1
(g24
g3
Ntp312
Rp313
(dp314
g15
g78
sg29
(lp315
I2
aI3
aI4
aI5
aI6
aI7
asg19
(I0
I22
tp316
sg32
I0
sg33
(dp317
sg17
VIndex
p318
sbag1
(g24
g3
Ntp319
Rp320
(dp321
g15
g86
sg29
(lp322
I0
asg19
(I0
I24
tp323
sg32
I12
sg33
(dp324
I0
g90
sI1
g91
sI2
g92
ssg17
VWave Sel
p325
sbag1
(g24
g3
Ntp326
Rp327
(dp328
g15
g97
sg29
(lp329
I2
aI3
aI4
aI5
aI6
aI7
asg19
(I0
I24
tp330
sg32
I1
sg33
(dp331
I0
g101
sI1
g102
sI2
g103
sI3
g104
sI4
g105
sI5
g106
sI6
g107
sI7
g108
sI8
g109
sI9
g110
sI10
g111
sI11
g112
sI12
g113
sI13
g114
sI14
g115
sI15
g116
sI16
g117
sI17
g118
sI18
g119
sI19
g120
sI20
g121
sI21
g122
sI22
g123
sI23
g124
sI24
g125
sI25
g126
sI26
g127
sI27
g128
sI28
g129
sI29
g130
sI30
g131
sI31
g132
sI32
g133
sI33
g134
sI34
g135
sI35
g136
sI36
g137
sI37
g138
sI38
g139
sI39
g140
sI40
g141
sI41
g142
sI42
g143
sI43
g144
sI44
g145
sI45
g146
sI46
g147
sI47
g148
sI48
g149
sI49
g150
sI50
g151
sI51
g152
sI52
g153
sI53
g154
sI54
g155
sI55
g156
sI56
g157
sI57
g158
sI58
g159
sI59
g160
sI60
g161
sI61
g162
sI62
g163
sI63
g164
sI64
g165
sI65
g166
sI66
g167
sI67
g168
sI68
g169
sI69
g170
sI70
g171
sI71
g172
sI72
g173
sI73
g174
sI74
g175
sI75
g176
sI76
g177
sI77
g178
sI78
g179
sI79
g180
sI80
g181
sI81
g182
sI82
g183
sI83
g184
sI84
g185
sI85
g186
sI86
g187
sI87
g188
sI88
g189
sI89
g190
sI90
g191
sI91
g192
sI92
g193
sI93
g194
sI94
g195
sI95
g196
sI96
g197
sI97
g198
sI98
g199
sI99
g200
ssg17
VWaveTable
p332
sbag1
(g24
g3
Ntp333
Rp334
(dp335
g15
g205
sg29
(lp336
I0
asg19
(I0
I23
tp337
sg32
I7
sg33
(dp338
I0
g209
sI1
g210
ssg17
VPulse Width
p339
sbag1
(g24
g3
Ntp340
Rp341
(dp342
g15
g205
sg29
(lp343
I3
asg19
(I0
I23
tp344
sg32
I0
sg33
(dp345
I0
g209
sI1
g210
ssg17
VPulse Width
p346
sbag1
(g24
g3
Ntp347
Rp348
(dp349
g15
g221
sg29
(lp350
I1
asg19
(I0
I23
tp351
sg32
I0
sg33
(dp352
sg17
VLocal Detune
p353
sbag1
(g24
g3
Ntp354
Rp355
(dp356
g15
g229
sg29
(lp357
I4
aI5
aI6
aI7
asg19
(I3
I62
tp358
sg32
I4
sg33
(dp359
sg17
VF-Shift
p360
sbag1
(g24
g3
Ntp361
Rp362
(dp363
g15
g229
sg29
(lp364
I5
aI7
asg19
(I3
I57
tp365
sg32
I0
sg33
(dp366
sg17
VF-Spread
p367
sbag1
(g24
g3
Ntp368
Rp369
(dp370
g15
g229
sg29
(lp371
I2
aI3
aI4
aI5
aI6
aI7
asg19
(I3
I64
tp372
sg32
I0
sg33
(dp373
sg17
VInterpolation
p374
sbag1
(g24
g3
Ntp375
Rp376
(dp377
g15
g229
sg29
(lp378
I3
aI5
aI7
asg19
(I3
I63
tp379
sg32
I0
sg33
(dp380
sg17
VLocal Detune
p381
sbag1
(g24
g3
Ntp382
Rp383
(dp384
g15
(I0
I127
tp385
sg29
(lp386
sg19
(I0
I17
tp387
sg32
I11
sg33
(dp388
sg17
V--
p389
sbag1
(g24
g3
Ntp390
Rp391
(dp392
g15
g266
sg29
(lp393
I0
aI1
aI2
aI3
aI4
aI5
aI6
aI7
asg19
(I0
I25
tp394
sg32
I4
sg33
(dp395
sg17
VSemitone
p396
sbag1
(g24
g3
Ntp397
Rp398
(dp399
g15
g274
sg29
(lp400
I0
aI1
aI2
aI3
aI4
aI5
aI6
aI7
asg19
(I0
I31
tp401
sg32
I6
sg33
(dp402
I0
g278
ssg17
VKey Follow
p403
sbag1
(g24
g3
Ntp404
Rp405
(dp406
g15
g229
sg29
(lp407
I0
aI1
aI2
aI3
aI4
aI5
aI6
aI7
asg19
(I0
I26
tp408
sg32
I0
sg33
(dp409
sg17
VDetune
p410
sbasg33
(dp411
sbag1
(g11
g3
Ntp412
Rp413
(dp414
g15
(I2
I67
tp415
sg17
VOsc 3
p416
sg19
(I1
I41
tp417
sg21
I2
sg22
(lp418
g1
(g24
g3
Ntp419
Rp420
(dp421
g15
(I6
I67
tp422
sg29
(lp423
I0
aI1
aI2
asg19
(I1
I41
tp424
sg32
I12
sg33
(dp425
I0
VOff
p426
sI1
VSlave
p427
sI2
VSaw
p428
sI3
VPulse
p429
sI4
VSine
p430
sI5
VTriangle
p431
sI6
VWave 3
p432
ssg17
VMode/Wave
p433
sbag1
(g24
g3
Ntp434
Rp435
(dp436
g15
(I16
I112
tp437
sg29
(lp438
I2
asg19
(I1
I43
tp439
sg32
I4
sg33
(dp440
sg17
VSemitone
p441
sbag1
(g24
g3
Ntp442
Rp443
(dp444
g15
(I0
I127
tp445
sg29
(lp446
I2
asg19
(I1
I42
tp447
sg32
I0
sg33
(dp448
sg17
VVolume
p449
sbag1
(g24
g3
Ntp450
Rp451
(dp452
g15
g445
sg29
(lp453
I2
asg19
(I1
I44
tp454
sg32
I0
sg33
(dp455
sg17
VDetune
p456
sbag1
(g24
g3
Ntp457
Rp458
(dp459
g15
(I0
I127
tp460
sg29
(lp461
sg19
(I0
I17
tp462
sg32
I11
sg33
(dp463
sg17
V--
p464
sbasg33
(dp465
sbag1
(g11
g3
Ntp466
Rp467
(dp468
g15
(I0
I7
tp469
sg17
VFM/Sync
p470
sg19
(I3
I35
tp471
sg21
I3
sg22
(lp472
g1
(g24
g3
Ntp473
Rp474
(dp475
g15
(I0
I6
tp476
sg29
(lp477
I0
asg19
(I1
I34
tp478
sg32
I1
sg33
(dp479
I0
VPos Triangle
p480
sI1
VTriangle
p481
sI2
VWave
p482
sI3
VNoise
p483
sI4
VIn L
p484
sI5
VIn L+R
p485
sI6
VIn R
p486
ssg17
VFM Mode
p487
sbag1
(g24
g3
Ntp488
Rp489
(dp490
g15
(I0
I1
tp491
sg29
(lp492
I2
aI3
aI4
aI5
aI6
aI7
asg19
g478
sg32
I1
sg33
(dp493
I0
VFreqMod
p494
sI1
VPhaseMod
p495
sI2
g482
sI3
g483
sI4
g484
sI5
g485
sI6
g486
ssg17
VFM Mode
p496
sbag1
(g24
g3
Ntp497
Rp498
(dp499
g15
g229
sg29
(lp500
I0
asg19
(I0
I27
tp501
sg32
I7
sg33
(dp502
I0
V0
p503
sI1
V100
p504
ssg17
VFM Amount
p505
sbag1
(g24
g3
Ntp506
Rp507
(dp508
g15
g229
sg29
(lp509
I2
aI3
aI4
aI5
aI6
aI7
asg19
g501
sg32
I0
sg33
(dp510
I0
g503
sI1
g504
ssg17
VFM Amount
p511
sbag1
(g24
g3
Ntp512
Rp513
(dp514
g15
(I0
I1
tp515
sg29
(lp516
I0
aI1
aI8
asg19
(I0
I28
tp517
sg32
I9
sg33
(dp518
I0
VOff
p519
sI1
VOn
p520
ssg17
VSync
p521
sbag1
(g24
g3
Ntp522
Rp523
(dp524
g15
g229
sg29
(lp525
I1
aI8
asg19
(I0
I27
tp526
sg32
I0
sg33
(dp527
sg17
VSync Freq
p528
sbasg33
(dp529
I0
V6E 30 1 1
p530
ssbag1
(g11
g3
Ntp531
Rp532
(dp533
g15
(I0
I7
tp534
sg17
VSub Oscillator
p535
sg19
(I3
I35
tp536
sg21
I3
sg22
(lp537
g1
(g24
g3
Ntp538
Rp539
(dp540
g15
(I0
I127
tp541
sg29
(lp542
I1
aI8
aI9
asg19
(I0
I34
tp543
sg32
I0
sg33
(dp544
sg17
VVolume
p545
sbag1
(g24
g3
Ntp546
Rp547
(dp548
g15
(I0
I1
tp549
sg29
(lp550
I8
asg19
(I0
I35
tp551
sg32
I1
sg33
(dp552
I0
VSquare
p553
sI1
VTriangle
p554
ssg17
VShape
p555
sbasg33
(dp556
I0
V6E 30 0 1
p557
ssbasg17
VOsc
p558
sS'cols'
p559
I2
sbag1
(g2
g3
Ntp560
Rp561
(dp562
g7
(dp563
I0
I2
sI1
I2
ssg9
(lp564
g1
(g11
g3
Ntp565
Rp566
(dp567
g15
(I0
I0
tp568
sg17
VFilter 1
p569
sg19
(I0
I17
tp570
sg21
I0
sg22
(lp571
g1
(g24
g3
Ntp572
Rp573
(dp574
g15
(I0
I7
tp575
sg29
(lp576
sg19
(I0
I51
tp577
sg32
I1
sg33
(dp578
I0
VLow Pass
p579
sI1
VHigh Pass
p580
sI2
VBand Pass
p581
sI3
VBand Stop
p582
sI4
VAnalog 1 Pole
p583
sI5
VAnalog 2 Pole
p584
sI6
VAnalog 3 Pole
p585
sI7
VAnalog 4 Pole
p586
ssg17
VMode
p587
sbag1
(g24
g3
Ntp588
Rp589
(dp590
g15
g541
sg29
(lp591
sg19
(I0
I40
tp592
sg32
I0
sg33
(dp593
sg17
VCutoff
p594
sbag1
(g24
g3
Ntp595
Rp596
(dp597
g15
g541
sg29
(lp598
sg19
(I0
I42
tp599
sg32
I0
sg33
(dp600
sg17
VResonance
p601
sbag1
(g24
g3
Ntp602
Rp603
(dp604
g15
g541
sg29
(lp605
sg19
(I0
I44
tp606
sg32
I7
sg33
(dp607
sg17
VEnv Amount
p608
sbag1
(g24
g3
Ntp609
Rp610
(dp611
g15
g541
sg29
(lp612
sg19
(I0
I46
tp613
sg32
I4
sg33
(dp614
sg17
VKey Follow
p615
sbag1
(g24
g3
Ntp616
Rp617
(dp618
g15
(I0
I1
tp619
sg29
(lp620
sg19
(I1
I30
tp621
sg32
I1
sg33
(dp622
I0
VNegative
p623
sI1
VPositive
p624
ssg17
VEnv Polarity
p625
sbasg33
(dp626
sbag1
(g11
g3
Ntp627
Rp628
(dp629
g15
(I0
I1
tp630
sg17
VFilter 2
p631
sg19
(I1
I32
tp632
sg21
I1
sg22
(lp633
g1
(g24
g3
Ntp634
Rp635
(dp636
g15
(I0
I3
tp637
sg29
(lp638
I0
aI1
asg19
(I0
I52
tp639
sg32
I1
sg33
(dp640
I0
g579
sI1
g580
sI2
g581
sI3
g582
sI4
g583
sI5
g584
sI6
g585
sI7
g586
ssg17
VMode
p641
sbag1
(g24
g3
Ntp642
Rp643
(dp644
g15
g541
sg29
(lp645
I0
asg19
(I0
I41
tp646
sg32
I0
sg33
(dp647
sg17
VCutoff
p648
sbag1
(g24
g3
Ntp649
Rp650
(dp651
g15
g541
sg29
(lp652
I1
asg19
(I0
I41
tp653
sg32
I4
sg33
(dp654
sg17
VOffset
p655
sbag1
(g24
g3
Ntp656
Rp657
(dp658
g15
g541
sg29
(lp659
I0
aI1
asg19
(I0
I43
tp660
sg32
I0
sg33
(dp661
sg17
VResonance
p662
sbag1
(g24
g3
Ntp663
Rp664
(dp665
g15
g541
sg29
(lp666
I0
aI1
asg19
(I0
I45
tp667
sg32
I7
sg33
(dp668
sg17
VEnv Amount
p669
sbag1
(g24
g3
Ntp670
Rp671
(dp672
g15
g541
sg29
(lp673
I0
aI1
asg19
(I0
I47
tp674
sg32
I4
sg33
(dp675
sg17
VKey Follow
p676
sbag1
(g24
g3
Ntp677
Rp678
(dp679
g15
g619
sg29
(lp680
I0
aI1
asg19
(I1
I31
tp681
sg32
I1
sg33
(dp682
I0
g623
sI1
g624
ssg17
VEnv Polarity
p683
sbasg33
(dp684
sbag1
(g11
g3
Ntp685
Rp686
(dp687
g15
(I0
I3
tp688
sg17
VCommon
p689
sg19
(I0
I53
tp690
sg21
I1
sg22
(lp691
g1
(g24
g3
Ntp692
Rp693
(dp694
g15
(I0
I3
tp695
sg29
(lp696
I0
aI1
aI2
aI3
asg19
(I0
I53
tp697
sg32
I1
sg33
(dp698
I0
VSerial 4
p699
sI1
VSerial 6
p700
sI2
VParallel 4
p701
sI3
VSplit Mode
p702
ssg17
VRouting
p703
sbag1
(g24
g3
Ntp704
Rp705
(dp706
g15
g541
sg29
(lp707
I0
aI1
aI2
aI3
asg19
(I0
I48
tp708
sg32
I4
sg33
(dp709
sg17
VFilter Balance
p710
sbag1
(g24
g3
Ntp711
Rp712
(dp713
g15
(I0
I1
tp714
sg29
(lp715
I0
aI1
aI2
aI3
asg19
(I1
I32
tp716
sg32
I9
sg33
(dp717
sg17
VCutoff Link
p718
sbag1
(g24
g3
Ntp719
Rp720
(dp721
g15
g541
sg29
(lp722
I0
aI1
aI2
aI3
asg19
(I1
I33
tp723
sg32
I15
sg33
(dp724
sg17
VKey Follow Base
p725
sbag1
(g24
g3
Ntp726
Rp727
(dp728
g15
g541
sg29
(lp729
I3
asg19
(I4
I122
tp730
sg32
I0
sg33
(dp731
sg17
VPan Spread
p732
sbasg33
(dp733
sbag1
(g11
g3
Ntp734
Rp735
(dp736
g15
g568
sg17
VSaturation
p737
sg19
g570
sg21
I0
sg22
(lp738
g1
(g24
g3
Ntp739
Rp740
(dp741
g15
(I0
I14
tp742
sg29
(lp743
sg19
(I0
I49
tp744
sg32
I1
sg33
(dp745
I0
VOff
p746
sI1
VLight
p747
sI2
VSoft
p748
sI3
VMiddle
p749
sI4
VHard
p750
sI5
VDigital
p751
sI6
VWave Shaper
p752
sI7
VRectifier
p753
sI8
VBit Reducer
p754
sI9
VRate Reducer
p755
sI10
VRate+Follow
p756
sI11
VLow Pass
p757
sI12
VLow+Follow
p758
sI13
VHigh Pass
p759
sI14
VHigh+Follow
p760
ssg17
VType
p761
sbasg33
(dp762
sbag1
(g11
g3
Ntp763
Rp764
(dp765
g15
g568
sg17
VFilter Envelope
p766
sg19
g570
sg21
I0
sg22
(lp767
g1
(g24
g3
Ntp768
Rp769
(dp770
g15
g541
sg29
(lp771
sg19
(I0
I54
tp772
sg32
I0
sg33
(dp773
sg17
VAttack
p774
sbag1
(g24
g3
Ntp775
Rp776
(dp777
g15
g541
sg29
(lp778
sg19
(I0
I55
tp779
sg32
I0
sg33
(dp780
sg17
VDecay
p781
sbag1
(g24
g3
Ntp782
Rp783
(dp784
g15
g541
sg29
(lp785
sg19
(I0
I56
tp786
sg32
I7
sg33
(dp787
sg17
VSustain
p788
sbag1
(g24
g3
Ntp789
Rp790
(dp791
g15
g541
sg29
(lp792
sg19
(I0
I57
tp793
sg32
I4
sg33
(dp794
sg17
VSustain Slope
p795
sbag1
(g24
g3
Ntp796
Rp797
(dp798
g15
g541
sg29
(lp799
sg19
(I0
I58
tp800
sg32
I0
sg33
(dp801
sg17
VRelease
p802
sbasg33
(dp803
sbag1
(g11
g3
Ntp804
Rp805
(dp806
g15
g568
sg17
VAmp Envelope
p807
sg19
g570
sg21
I0
sg22
(lp808
g1
(g24
g3
Ntp809
Rp810
(dp811
g15
g541
sg29
(lp812
sg19
(I0
I59
tp813
sg32
I0
sg33
(dp814
sg17
VAttack
p815
sbag1
(g24
g3
Ntp816
Rp817
(dp818
g15
g541
sg29
(lp819
sg19
(I0
I60
tp820
sg32
I0
sg33
(dp821
sg17
VDecay
p822
sbag1
(g24
g3
Ntp823
Rp824
(dp825
g15
g541
sg29
(lp826
sg19
(I0
I61
tp827
sg32
I7
sg33
(dp828
sg17
VSustain
p829
sbag1
(g24
g3
Ntp830
Rp831
(dp832
g15
g541
sg29
(lp833
sg19
(I0
I62
tp834
sg32
I4
sg33
(dp835
sg17
VSustain Slope
p836
sbag1
(g24
g3
Ntp837
Rp838
(dp839
g15
g541
sg29
(lp840
sg19
(I0
I63
tp841
sg32
I0
sg33
(dp842
sg17
VRelease
p843
sbasg33
(dp844
sbasg17
VFilter
p845
sg559
I2
sbag1
(g2
g3
Ntp846
Rp847
(dp848
g7
(dp849
I0
I2
sI1
I2
sI2
I2
ssg9
(lp850
g1
(g11
g3
Ntp851
Rp852
(dp853
g15
(I1
I21
tp854
sg17
VLFO 1
p855
sg19
(I1
I18
tp856
sg21
I2
sg22
(lp857
g1
(g24
g3
Ntp858
Rp859
(dp860
g15
(I0
I21
tp861
sg29
(lp862
I0
aI1
asg19
(I1
I18
tp863
sg32
I1
sg33
(dp864
I0
VOff
p865
sI1
V1/64
p866
sI2
V1/32
p867
sI3
V1/16
p868
sI4
V1/8
p869
sI5
V1/4
p870
sI6
V1/2
p871
sI7
V3/64
p872
sI8
V3/32
p873
sI9
V3/16
p874
sI10
V3/8
p875
sI11
V1/24
p876
sI12
V1/12
p877
sI13
V1/6
p878
sI14
V1/3
p879
sI15
V2/3
p880
sI16
V3/4
p881
sI17
V1/1
p882
sI18
V2/1
p883
sI19
V4/1
p884
sI20
V8/1
p885
sI21
V16/1
p886
ssg17
VClock
p887
sbag1
(g24
g3
Ntp888
Rp889
(dp890
g15
g541
sg29
(lp891
I0
asg19
(I0
I67
tp892
sg32
I0
sg33
(dp893
sg17
VRate
p894
sbag1
(g24
g3
Ntp895
Rp896
(dp897
g15
g541
sg29
(lp898
sg19
(I0
I17
tp899
sg32
I11
sg33
(dp900
sg17
V--
p901
sbag1
(g24
g3
Ntp902
Rp903
(dp904
g15
(I6
I67
tp905
sg29
(lp906
I0
aI1
asg19
(I0
I68
tp907
sg32
I12
sg33
(dp908
I0
VSine
p909
sI1
VTriangle
p910
sI2
VSawtooth
p911
sI3
VSquare
p912
sI4
VS&H
p913
sI5
VS&G
p914
sI6
VWave 3
p915
ssg17
VShape
p916
sbag1
(g24
g3
Ntp917
Rp918
(dp919
g15
g541
sg29
(lp920
I0
aI1
asg19
(I0
I71
tp921
sg32
I4
sg33
(dp922
sg17
VContour
p923
sbag1
(g24
g3
Ntp924
Rp925
(dp926
g15
(I0
I1
tp927
sg29
(lp928
I0
aI1
asg19
(I0
I70
tp929
sg32
I1
sg33
(dp930
I0
VPoly
p931
sI1
VMono
p932
ssg17
VMode
p933
sbag1
(g24
g3
Ntp934
Rp935
(dp936
g15
g541
sg29
(lp937
I0
aI1
asg19
(I0
I69
tp938
sg32
I9
sg33
(dp939
sg17
VEnvelope Mode
p940
sbag1
(g24
g3
Ntp941
Rp942
(dp943
g15
g541
sg29
(lp944
I0
aI1
asg19
(I0
I73
tp945
sg32
I13
sg33
(dp946
I0
VOff 0
p947
ssg17
VTrigger Phase
p948
sbag1
(g24
g3
Ntp949
Rp950
(dp951
g15
g541
sg29
(lp952
I0
aI1
asg19
(I0
I72
tp953
sg32
I14
sg33
(dp954
I0
VOff 0
p955
ssg17
VKey Follow
p956
sbasg33
(dp957
sbag1
(g11
g3
Ntp958
Rp959
(dp960
g15
g568
sg17
VLFO 1 Dest
p961
sg19
g570
sg21
I0
sg22
(lp962
g1
(g24
g3
Ntp963
Rp964
(dp965
g15
g541
sg29
(lp966
sg19
(I0
I74
tp967
sg32
I5
sg33
(dp968
sg17
VOsc1 Pitch
p969
sbag1
(g24
g3
Ntp970
Rp971
(dp972
g15
g541
sg29
(lp973
sg19
(I0
I75
tp974
sg32
I5
sg33
(dp975
sg17
VOsc2 Pitch
p976
sbag1
(g24
g3
Ntp977
Rp978
(dp979
g15
g541
sg29
(lp980
sg19
(I0
I76
tp981
sg32
I5
sg33
(dp982
sg17
VPulse Width
p983
sbag1
(g24
g3
Ntp984
Rp985
(dp986
g15
g541
sg29
(lp987
sg19
(I0
I77
tp988
sg32
I5
sg33
(dp989
sg17
VResonance
p990
sbag1
(g24
g3
Ntp991
Rp992
(dp993
g15
g541
sg29
(lp994
sg19
(I0
I78
tp995
sg32
I5
sg33
(dp996
sg17
VFilter Gain
p997
sbag1
(g24
g3
Ntp998
Rp999
(dp1000
g15
(I0
I127
tp1001
sg29
(lp1002
sg19
(I1
I79
tp1003
sg32
I1
sg33
(dp1004
I0
VOff
p1005
sI1
VPatch Volume
p1006
sI2
VOsc 1 Interpolation
p1007
sI3
VPanorama
p1008
sI4
VTranspose
p1009
sI5
VPortamento
p1010
sI6
VOsc 1 Shape
p1011
sI7
VOsc 1 Pulse Width
p1012
sI8
VOsc 1 Wave Select
p1013
sI9
VOsc 1 Pitch
p1014
sI10
VSlot 6 Amount 3
p1015
sI11
VOsc 2 Shape
p1016
sI12
VOsc 2 Pulse Width
p1017
sI13
VOsc 2 Wave Select
p1018
sI14
VOsc 2 Pitch
p1019
sI15
VOsc 2 Detune
p1020
sI16
VOsc 2 FM Amount
p1021
sI17
VFiltEnv>Osc 2 Pitch
p1022
sI18
VFiltEnv>FM/Sync
p1023
sI19
VOsc 2 Interpolation
p1024
sI20
VOsc Balance
p1025
sI21
VSub Osc Volume
p1026
sI22
VOsc Volume
p1027
sI23
VNoise Volume
p1028
sI24
VFilter 1 Cutoff
p1029
sI25
VFilter 2 Cutoff
p1030
sI26
VFilter 1 Resonance
p1031
sI27
VFilter 2 Resonance
p1032
sI28
VFilter 1 Env Amount
p1033
sI29
VFilter 2 Env Amount
p1034
sI30
VSlot 5 Amount 2
p1035
sI31
VSlot 5 Amount 3
p1036
sI32
VFilter Balance
p1037
sI33
VFilter Env Attack
p1038
sI34
VFilter Env Decay
p1039
sI35
VFilter Env Sustain
p1040
sI36
VFilter Env Slope
p1041
sI37
VFilter Env Release
p1042
sI38
VAmp Env Attack
p1043
sI39
VAmp Env Decay
p1044
sI40
VAmp Env Sustain
p1045
sI41
VAmp Env Slope
p1046
sI42
VAmp Env Release
p1047
sI43
VLFO 1 Rate
p1048
sI44
VLFO 1 Contour
p1049
sI45
VLFO 1>Osc 1 Pitch
p1050
sI46
VLFO 1>Osc 2 Pitch
p1051
sI47
VLFO 1>Pulse Width
p1052
sI48
VLFO 1>Resonance
p1053
sI49
VLFO 1>Filter Gain
p1054
sI50
VLFO 2 Rate
p1055
sI51
VLFO 2 Contour
p1056
sI52
VLFO 2>Shape
p1057
sI53
VLFO 2>FM Amount
p1058
sI54
VLFO 2>Cutoff 1
p1059
sI55
VLFO 2>Cutoff 2
p1060
sI56
VLFO 2>Panorama
p1061
sI57
VLFO 3 Rate
p1062
sI58
VLFO 3 Assign Amt
p1063
sI59
VUnison Detune
p1064
sI60
VPan Spread
p1065
sI61
VUnison LFO Phase
p1066
sI62
VChorus Mix
p1067
sI63
VChorus Mod Rate
p1068
sI64
VChorus Mod Depth
p1069
sI65
VChorus Delay
p1070
sI66
VChorus Feedback
p1071
sI67
VDelay Send
p1072
sI68
VDelay Time
p1073
sI69
VDelay Feedback
p1074
sI70
VDelay Mod Rate
p1075
sI71
VDelay Mod Depth
p1076
sI72
VReverb Send
p1077
sI73
VOsc 1 WT Index
p1078
sI74
VOsc 2 WT Index
p1079
sI75
VSlot 6 Amount 2
p1080
sI76
VSlot 4 Amount 2
p1081
sI77
VSlot 4 Amount 3
p1082
sI80
VSlot 2 Amount 3
p1083
sI82
VSlot 1 Amount 1
p1084
sI83
VSlot 2 Amount 1
p1085
sI84
VSlot 2 Amount 2
p1086
sI85
VSlot 3 Amount 1
p1087
sI86
VSlot 3 Amount 2
p1088
sI87
VSlot 3 Amount 3
p1089
sI88
VOsc Initial Phase
p1090
sI89
VPunch Intensity
p1091
sI90
VRing Modulator
p1092
sI91
VNoise Color
p1093
sI92
VDelay Coloration
p1094
sI93
VSlot 1 Amount 2
p1095
sI94
VSlot 1 Amount 3
p1096
sI95
VDistortion Intensity
p1097
sI96
VFreqShifter Freq
p1098
sI97
VOsc 3 Volume
p1099
sI98
VOsc 3 Pitch
p1100
sI99
VOsc 3 Detune
p1101
sI100
VLFO 1 Assign Amt
p1102
sI101
VLFO 2 Assign Amt
p1103
sI102
VPhaser Mix
p1104
sI103
VPhaser Mod Rate
p1105
sI104
VPhaser Mod Depth
p1106
sI105
VPhaser Frequency
p1107
sI106
VPhaser Feedback
p1108
sI107
VPhaser Spread
p1109
sI108
VReverb Time
p1110
sI109
VReverb Damping
p1111
sI110
VReverb Color
p1112
sI111
VReverb PreDelay
p1113
sI112
VReverb Feedback
p1114
sI113
VSurround Balance
p1115
sI114
VArp Note Length
p1116
sI115
VArp Swing Factor
p1117
sI116
VArp Pattern
p1118
sI117
VEQ Mid Gain
p1119
sI118
VEQ Mid Frequency
p1120
sI119
VEQ Mid Q-Factor
p1121
sI120
VSlot 4 Amount 1
p1122
sI121
VSlot 5 Amount 1
p1123
sI122
VSlot 6 Amount 1
p1124
sI123
VOsc 1 F-Shift
p1125
sI124
VOsc 2 F-Shift
p1126
sI125
VOsc 1 F-Spread
p1127
sI126
VOsc 2 F-Spread
p1128
sI127
VDistortion Mix
p1129
ssg17
VAssign Target
p1130
sbag1
(g24
g3
Ntp1131
Rp1132
(dp1133
g15
g541
sg29
(lp1134
sg19
(I1
I80
tp1135
sg32
I5
sg33
(dp1136
sg17
VAmount
p1137
sbasg33
(dp1138
sbag1
(g11
g3
Ntp1139
Rp1140
(dp1141
g15
g854
sg17
VLFO 2
p1142
sg19
(I1
I19
tp1143
sg21
I2
sg22
(lp1144
g1
(g24
g3
Ntp1145
Rp1146
(dp1147
g15
g861
sg29
(lp1148
I0
aI1
asg19
(I1
I19
tp1149
sg32
I1
sg33
(dp1150
I0
g865
sI1
g866
sI2
g867
sI3
g868
sI4
g869
sI5
g870
sI6
g871
sI7
g872
sI8
g873
sI9
g874
sI10
g875
sI11
g876
sI12
g877
sI13
g878
sI14
g879
sI15
g880
sI16
g881
sI17
g882
sI18
g883
sI19
g884
sI20
g885
sI21
g886
ssg17
VClock
p1151
sbag1
(g24
g3
Ntp1152
Rp1153
(dp1154
g15
g541
sg29
(lp1155
I0
asg19
(I0
I79
tp1156
sg32
I0
sg33
(dp1157
sg17
VRate
p1158
sbag1
(g24
g3
Ntp1159
Rp1160
(dp1161
g15
g541
sg29
g898
sg19
g899
sg32
I11
sg33
(dp1162
sg17
g901
sbag1
(g24
g3
Ntp1163
Rp1164
(dp1165
g15
g905
sg29
(lp1166
I0
aI1
asg19
(I0
I80
tp1167
sg32
I12
sg33
(dp1168
I0
g909
sI1
g910
sI2
g911
sI3
g912
sI4
g913
sI5
g914
sI6
g915
ssg17
VShape
p1169
sbag1
(g24
g3
Ntp1170
Rp1171
(dp1172
g15
g541
sg29
(lp1173
I0
aI1
asg19
(I0
I83
tp1174
sg32
I4
sg33
(dp1175
sg17
VContour
p1176
sbag1
(g24
g3
Ntp1177
Rp1178
(dp1179
g15
g927
sg29
(lp1180
I0
aI1
asg19
(I0
I82
tp1181
sg32
I1
sg33
(dp1182
I0
g931
sI1
g932
ssg17
VMode
p1183
sbag1
(g24
g3
Ntp1184
Rp1185
(dp1186
g15
g541
sg29
(lp1187
I0
aI1
asg19
(I0
I81
tp1188
sg32
I9
sg33
(dp1189
sg17
VEnvelope Mode
p1190
sbag1
(g24
g3
Ntp1191
Rp1192
(dp1193
g15
g541
sg29
(lp1194
I0
aI1
asg19
(I0
I85
tp1195
sg32
I13
sg33
(dp1196
I0
VOff 0
p1197
ssg17
VTrigger Phase
p1198
sbag1
(g24
g3
Ntp1199
Rp1200
(dp1201
g15
g541
sg29
(lp1202
I0
aI1
asg19
(I0
I84
tp1203
sg32
I14
sg33
(dp1204
I0
VOff 0
p1205
ssg17
VKey Follow
p1206
sbasg33
(dp1207
sbag1
(g11
g3
Ntp1208
Rp1209
(dp1210
g15
g568
sg17
VLFO 2 Dest
p1211
sg19
g570
sg21
I0
sg22
(lp1212
g1
(g24
g3
Ntp1213
Rp1214
(dp1215
g15
g541
sg29
(lp1216
sg19
(I0
I88
tp1217
sg32
I5
sg33
(dp1218
sg17
VCutoff 1
p1219
sbag1
(g24
g3
Ntp1220
Rp1221
(dp1222
g15
g541
sg29
(lp1223
sg19
(I0
I89
tp1224
sg32
I5
sg33
(dp1225
sg17
VCutoff 2
p1226
sbag1
(g24
g3
Ntp1227
Rp1228
(dp1229
g15
g541
sg29
(lp1230
sg19
(I0
I86
tp1231
sg32
I5
sg33
(dp1232
sg17
VShape 1+2
p1233
sbag1
(g24
g3
Ntp1234
Rp1235
(dp1236
g15
g541
sg29
(lp1237
sg19
(I0
I87
tp1238
sg32
I5
sg33
(dp1239
sg17
VFM Amount
p1240
sbag1
(g24
g3
Ntp1241
Rp1242
(dp1243
g15
g541
sg29
(lp1244
sg19
(I0
I90
tp1245
sg32
I5
sg33
(dp1246
sg17
VPanorama
p1247
sbag1
(g24
g3
Ntp1248
Rp1249
(dp1250
g15
g1001
sg29
(lp1251
sg19
(I1
I81
tp1252
sg32
I1
sg33
(dp1253
I0
g1005
sI1
g1006
sI2
g1007
sI3
g1008
sI4
g1009
sI5
g1010
sI6
g1011
sI7
g1012
sI8
g1013
sI9
g1014
sI10
g1015
sI11
g1016
sI12
g1017
sI13
g1018
sI14
g1019
sI15
g1020
sI16
g1021
sI17
g1022
sI18
g1023
sI19
g1024
sI20
g1025
sI21
g1026
sI22
g1027
sI23
g1028
sI24
g1029
sI25
g1030
sI26
g1031
sI27
g1032
sI28
g1033
sI29
g1034
sI30
g1035
sI31
g1036
sI32
g1037
sI33
g1038
sI34
g1039
sI35
g1040
sI36
g1041
sI37
g1042
sI38
g1043
sI39
g1044
sI40
g1045
sI41
g1046
sI42
g1047
sI43
g1048
sI44
g1049
sI45
g1050
sI46
g1051
sI47
g1052
sI48
g1053
sI49
g1054
sI50
g1055
sI51
g1056
sI52
g1057
sI53
g1058
sI54
g1059
sI55
g1060
sI56
g1061
sI57
g1062
sI58
g1063
sI59
g1064
sI60
g1065
sI61
g1066
sI62
g1067
sI63
g1068
sI64
g1069
sI65
g1070
sI66
g1071
sI67
g1072
sI68
g1073
sI69
g1074
sI70
g1075
sI71
g1076
sI72
g1077
sI73
g1078
sI74
g1079
sI75
g1080
sI76
g1081
sI77
g1082
sI80
g1083
sI82
g1084
sI83
g1085
sI84
g1086
sI85
g1087
sI86
g1088
sI87
g1089
sI88
g1090
sI89
g1091
sI90
g1092
sI91
g1093
sI92
g1094
sI93
g1095
sI94
g1096
sI95
g1097
sI96
g1098
sI97
g1099
sI98
g1100
sI99
g1101
sI100
g1102
sI101
g1103
sI102
g1104
sI103
g1105
sI104
g1106
sI105
g1107
sI106
g1108
sI107
g1109
sI108
g1110
sI109
g1111
sI110
g1112
sI111
g1113
sI112
g1114
sI113
g1115
sI114
g1116
sI115
g1117
sI116
g1118
sI117
g1119
sI118
g1120
sI119
g1121
sI120
g1122
sI121
g1123
sI122
g1124
sI123
g1125
sI124
g1126
sI125
g1127
sI126
g1128
sI127
g1129
ssg17
VAssign Target
p1254
sbag1
(g24
g3
Ntp1255
Rp1256
(dp1257
g15
g541
sg29
(lp1258
sg19
(I1
I82
tp1259
sg32
I5
sg33
(dp1260
sg17
VAmount
p1261
sbasg33
(dp1262
sbag1
(g11
g3
Ntp1263
Rp1264
(dp1265
g15
g854
sg17
VLFO 3
p1266
sg19
(I1
I21
tp1267
sg21
I2
sg22
(lp1268
g1
(g24
g3
Ntp1269
Rp1270
(dp1271
g15
g861
sg29
(lp1272
I0
aI1
asg19
(I1
I21
tp1273
sg32
I1
sg33
(dp1274
I0
g865
sI1
g866
sI2
g867
sI3
g868
sI4
g869
sI5
g870
sI6
g871
sI7
g872
sI8
g873
sI9
g874
sI10
g875
sI11
g876
sI12
g877
sI13
g878
sI14
g879
sI15
g880
sI16
g881
sI17
g882
sI18
g883
sI19
g884
sI20
g885
sI21
g886
ssg17
VClock
p1275
sbag1
(g24
g3
Ntp1276
Rp1277
(dp1278
g15
g541
sg29
(lp1279
I0
asg19
(I1
I7
tp1280
sg32
I0
sg33
(dp1281
sg17
VRate
p1282
sbag1
(g24
g3
Ntp1283
Rp1284
(dp1285
g15
g541
sg29
g898
sg19
g899
sg32
I11
sg33
(dp1286
sg17
g901
sbag1
(g24
g3
Ntp1287
Rp1288
(dp1289
g15
g905
sg29
(lp1290
I0
aI1
asg19
(I1
I8
tp1291
sg32
I12
sg33
(dp1292
I0
g909
sI1
g910
sI2
g911
sI3
g912
sI4
g913
sI5
g914
sI6
g915
ssg17
VShape
p1293
sbag1
(g24
g3
Ntp1294
Rp1295
(dp1296
g15
g927
sg29
(lp1297
I0
aI1
asg19
(I1
I9
tp1298
sg32
I1
sg33
(dp1299
I0
g931
sI1
g932
ssg17
VMode
p1300
sbag1
(g24
g3
Ntp1301
Rp1302
(dp1303
g15
g541
sg29
(lp1304
I0
aI1
asg19
(I1
I10
tp1305
sg32
I0
sg33
(dp1306
sg17
VKey Follow
p1307
sbasg33
(dp1308
sbag1
(g11
g3
Ntp1309
Rp1310
(dp1311
g15
g568
sg17
VLFO 3 Dest
p1312
sg19
g570
sg21
I0
sg22
(lp1313
g1
(g24
g3
Ntp1314
Rp1315
(dp1316
g15
g541
sg29
(lp1317
sg19
(I1
I13
tp1318
sg32
I0
sg33
(dp1319
sg17
VFade In
p1320
sbag1
(g24
g3
Ntp1321
Rp1322
(dp1323
g15
(I0
I6
tp1324
sg29
(lp1325
sg19
(I1
I11
tp1326
sg32
I1
sg33
(dp1327
I0
VOsc 1 Pitch
p1328
sI1
VOsc 1+2 Pitch
p1329
sI2
VOsc 2 Pitch
p1330
sI3
VOsc 1 Pulse Width
p1331
sI4
VOsc 1+2 Pulse Width
p1332
sI5
VOsc 2 Pulse Width
p1333
sI6
VSync Phase
p1334
ssg17
VAssign Target
p1335
sbag1
(g24
g3
Ntp1336
Rp1337
(dp1338
g15
g541
sg29
(lp1339
sg19
(I1
I12
tp1340
sg32
I7
sg33
(dp1341
sg17
VAmount
p1342
sbasg33
(dp1343
sbasg17
V.LFO
p1344
sg559
I3
sbag1
(g2
g3
Ntp1345
Rp1346
(dp1347
g7
(dp1348
I0
I2
sI1
I2
sI2
I2
ssg9
(lp1349
g1
(g11
g3
Ntp1350
Rp1351
(dp1352
g15
(I0
I0
tp1353
sg17
VSlot 1
p1354
sg19
(I0
I17
tp1355
sg21
I0
sg22
(lp1356
g1
(g24
g3
Ntp1357
Rp1358
(dp1359
g15
(I0
I37
tp1360
sg29
(lp1361
sg19
(I1
I64
tp1362
sg32
I1
sg33
(dp1363
I0
VOff
p1364
sI1
VPitch Bend
p1365
sI2
VChan Pressure
p1366
sI3
VMod Wheel
p1367
sI4
VBreath
p1368
sI5
VController 3
p1369
sI6
VFoot Pedal
p1370
sI7
VData Entry
p1371
sI8
VBalance
p1372
sI9
VController 9
p1373
sI10
VExpression
p1374
sI11
VController 12
p1375
sI12
VController 13
p1376
sI13
VController 14
p1377
sI14
VController 15
p1378
sI15
VController 16
p1379
sI16
VHold Pedal
p1380
sI17
VPortamento Sw
p1381
sI18
VSost Pedal
p1382
sI19
VAmp Envelope
p1383
sI20
VFilter Envelope
p1384
sI21
VLFO 1 bipolar
p1385
sI22
VLFO 2 bipolar
p1386
sI23
VLFO 3 bipolar
p1387
sI24
VVelocity On
p1388
sI25
VVelocity Off
p1389
sI26
VKey Follow
p1390
sI27
VRandom
p1391
sI28
VArp Input
p1392
sI29
VLFO 1 unipolar
p1393
sI30
VLFO 2 unipolar
p1394
sI31
VLFO 3 unipolar
p1395
sI32
V1% constant
p1396
sI33
V10% constant
p1397
sI34
VAnaKey1 Fine
p1398
sI35
VAnaKey 2 Fine
p1399
sI36
VAnaKey1 Coarse
p1400
sI37
VAnaKey2 Coarse
p1401
ssg17
VSource
p1402
sbag1
(g24
g3
Ntp1403
Rp1404
(dp1405
g15
g1001
sg29
(lp1406
sg19
(I1
I66
tp1407
sg32
I4
sg33
(dp1408
sg17
VAmount 1
p1409
sbag1
(g24
g3
Ntp1410
Rp1411
(dp1412
g15
g1001
sg29
(lp1413
sg19
(I3
I91
tp1414
sg32
I4
sg33
(dp1415
sg17
VAmount 2
p1416
sbag1
(g24
g3
Ntp1417
Rp1418
(dp1419
g15
g1001
sg29
(lp1420
sg19
(I3
I93
tp1421
sg32
I4
sg33
(dp1422
sg17
VAmount 3
p1423
sbag1
(g24
g3
Ntp1424
Rp1425
(dp1426
g15
g1001
sg29
(lp1427
sg19
(I1
I65
tp1428
sg32
I1
sg33
(dp1429
I0
g1005
sI1
g1006
sI2
g1007
sI3
g1008
sI4
g1009
sI5
g1010
sI6
g1011
sI7
g1012
sI8
g1013
sI9
g1014
sI10
g1015
sI11
g1016
sI12
g1017
sI13
g1018
sI14
g1019
sI15
g1020
sI16
g1021
sI17
g1022
sI18
g1023
sI19
g1024
sI20
g1025
sI21
g1026
sI22
g1027
sI23
g1028
sI24
g1029
sI25
g1030
sI26
g1031
sI27
g1032
sI28
g1033
sI29
g1034
sI30
g1035
sI31
g1036
sI32
g1037
sI33
g1038
sI34
g1039
sI35
g1040
sI36
g1041
sI37
g1042
sI38
g1043
sI39
g1044
sI40
g1045
sI41
g1046
sI42
g1047
sI43
g1048
sI44
g1049
sI45
g1050
sI46
g1051
sI47
g1052
sI48
g1053
sI49
g1054
sI50
g1055
sI51
g1056
sI52
g1057
sI53
g1058
sI54
g1059
sI55
g1060
sI56
g1061
sI57
g1062
sI58
g1063
sI59
g1064
sI60
g1065
sI61
g1066
sI62
g1067
sI63
g1068
sI64
g1069
sI65
g1070
sI66
g1071
sI67
g1072
sI68
g1073
sI69
g1074
sI70
g1075
sI71
g1076
sI72
g1077
sI73
g1078
sI74
g1079
sI75
g1080
sI76
g1081
sI77
g1082
sI80
g1083
sI82
g1084
sI83
g1085
sI84
g1086
sI85
g1087
sI86
g1088
sI87
g1089
sI88
g1090
sI89
g1091
sI90
g1092
sI91
g1093
sI92
g1094
sI93
g1095
sI94
g1096
sI95
g1097
sI96
g1098
sI97
g1099
sI98
g1100
sI99
g1101
sI100
g1102
sI101
g1103
sI102
g1104
sI103
g1105
sI104
g1106
sI105
g1107
sI106
g1108
sI107
g1109
sI108
g1110
sI109
g1111
sI110
g1112
sI111
g1113
sI112
g1114
sI113
g1115
sI114
g1116
sI115
g1117
sI116
g1118
sI117
g1119
sI118
g1120
sI119
g1121
sI120
g1122
sI121
g1123
sI122
g1124
sI123
g1125
sI124
g1126
sI125
g1127
sI126
g1128
sI127
g1129
ssg17
VDest 1
p1430
sbag1
(g24
g3
Ntp1431
Rp1432
(dp1433
g15
g1001
sg29
(lp1434
sg19
(I3
I90
tp1435
sg32
I1
sg33
(dp1436
I0
g1005
sI1
g1006
sI2
g1007
sI3
g1008
sI4
g1009
sI5
g1010
sI6
g1011
sI7
g1012
sI8
g1013
sI9
g1014
sI10
g1015
sI11
g1016
sI12
g1017
sI13
g1018
sI14
g1019
sI15
g1020
sI16
g1021
sI17
g1022
sI18
g1023
sI19
g1024
sI20
g1025
sI21
g1026
sI22
g1027
sI23
g1028
sI24
g1029
sI25
g1030
sI26
g1031
sI27
g1032
sI28
g1033
sI29
g1034
sI30
g1035
sI31
g1036
sI32
g1037
sI33
g1038
sI34
g1039
sI35
g1040
sI36
g1041
sI37
g1042
sI38
g1043
sI39
g1044
sI40
g1045
sI41
g1046
sI42
g1047
sI43
g1048
sI44
g1049
sI45
g1050
sI46
g1051
sI47
g1052
sI48
g1053
sI49
g1054
sI50
g1055
sI51
g1056
sI52
g1057
sI53
g1058
sI54
g1059
sI55
g1060
sI56
g1061
sI57
g1062
sI58
g1063
sI59
g1064
sI60
g1065
sI61
g1066
sI62
g1067
sI63
g1068
sI64
g1069
sI65
g1070
sI66
g1071
sI67
g1072
sI68
g1073
sI69
g1074
sI70
g1075
sI71
g1076
sI72
g1077
sI73
g1078
sI74
g1079
sI75
g1080
sI76
g1081
sI77
g1082
sI80
g1083
sI82
g1084
sI83
g1085
sI84
g1086
sI85
g1087
sI86
g1088
sI87
g1089
sI88
g1090
sI89
g1091
sI90
g1092
sI91
g1093
sI92
g1094
sI93
g1095
sI94
g1096
sI95
g1097
sI96
g1098
sI97
g1099
sI98
g1100
sI99
g1101
sI100
g1102
sI101
g1103
sI102
g1104
sI103
g1105
sI104
g1106
sI105
g1107
sI106
g1108
sI107
g1109
sI108
g1110
sI109
g1111
sI110
g1112
sI111
g1113
sI112
g1114
sI113
g1115
sI114
g1116
sI115
g1117
sI116
g1118
sI117
g1119
sI118
g1120
sI119
g1121
sI120
g1122
sI121
g1123
sI122
g1124
sI123
g1125
sI124
g1126
sI125
g1127
sI126
g1128
sI127
g1129
ssg17
VDest 2
p1437
sbag1
(g24
g3
Ntp1438
Rp1439
(dp1440
g15
g1001
sg29
(lp1441
sg19
(I3
I92
tp1442
sg32
I1
sg33
(dp1443
I0
g1005
sI1
g1006
sI2
g1007
sI3
g1008
sI4
g1009
sI5
g1010
sI6
g1011
sI7
g1012
sI8
g1013
sI9
g1014
sI10
g1015
sI11
g1016
sI12
g1017
sI13
g1018
sI14
g1019
sI15
g1020
sI16
g1021
sI17
g1022
sI18
g1023
sI19
g1024
sI20
g1025
sI21
g1026
sI22
g1027
sI23
g1028
sI24
g1029
sI25
g1030
sI26
g1031
sI27
g1032
sI28
g1033
sI29
g1034
sI30
g1035
sI31
g1036
sI32
g1037
sI33
g1038
sI34
g1039
sI35
g1040
sI36
g1041
sI37
g1042
sI38
g1043
sI39
g1044
sI40
g1045
sI41
g1046
sI42
g1047
sI43
g1048
sI44
g1049
sI45
g1050
sI46
g1051
sI47
g1052
sI48
g1053
sI49
g1054
sI50
g1055
sI51
g1056
sI52
g1057
sI53
g1058
sI54
g1059
sI55
g1060
sI56
g1061
sI57
g1062
sI58
g1063
sI59
g1064
sI60
g1065
sI61
g1066
sI62
g1067
sI63
g1068
sI64
g1069
sI65
g1070
sI66
g1071
sI67
g1072
sI68
g1073
sI69
g1074
sI70
g1075
sI71
g1076
sI72
g1077
sI73
g1078
sI74
g1079
sI75
g1080
sI76
g1081
sI77
g1082
sI80
g1083
sI82
g1084
sI83
g1085
sI84
g1086
sI85
g1087
sI86
g1088
sI87
g1089
sI88
g1090
sI89
g1091
sI90
g1092
sI91
g1093
sI92
g1094
sI93
g1095
sI94
g1096
sI95
g1097
sI96
g1098
sI97
g1099
sI98
g1100
sI99
g1101
sI100
g1102
sI101
g1103
sI102
g1104
sI103
g1105
sI104
g1106
sI105
g1107
sI106
g1108
sI107
g1109
sI108
g1110
sI109
g1111
sI110
g1112
sI111
g1113
sI112
g1114
sI113
g1115
sI114
g1116
sI115
g1117
sI116
g1118
sI117
g1119
sI118
g1120
sI119
g1121
sI120
g1122
sI121
g1123
sI122
g1124
sI123
g1125
sI124
g1126
sI125
g1127
sI126
g1128
sI127
g1129
ssg17
VDest 3
p1444
sbasg33
(dp1445
sbag1
(g11
g3
Ntp1446
Rp1447
(dp1448
g15
g1353
sg17
VSlot 4
p1449
sg19
g1355
sg21
I0
sg22
(lp1450
g1
(g24
g3
Ntp1451
Rp1452
(dp1453
g15
g1360
sg29
(lp1454
sg19
(I1
I103
tp1455
sg32
I1
sg33
(dp1456
I0
g1364
sI1
g1365
sI2
g1366
sI3
g1367
sI4
g1368
sI5
g1369
sI6
g1370
sI7
g1371
sI8
g1372
sI9
g1373
sI10
g1374
sI11
g1375
sI12
g1376
sI13
g1377
sI14
g1378
sI15
g1379
sI16
g1380
sI17
g1381
sI18
g1382
sI19
g1383
sI20
g1384
sI21
g1385
sI22
g1386
sI23
g1387
sI24
g1388
sI25
g1389
sI26
g1390
sI27
g1391
sI28
g1392
sI29
g1393
sI30
g1394
sI31
g1395
sI32
g1396
sI33
g1397
sI34
g1398
sI35
g1399
sI36
g1400
sI37
g1401
ssg17
VSource
p1457
sbag1
(g24
g3
Ntp1458
Rp1459
(dp1460
g15
g1001
sg29
(lp1461
sg19
(I1
I105
tp1462
sg32
I4
sg33
(dp1463
sg17
VAmount 1
p1464
sbag1
(g24
g3
Ntp1465
Rp1466
(dp1467
g15
g1001
sg29
(lp1468
sg19
(I3
I97
tp1469
sg32
I4
sg33
(dp1470
sg17
VAmount 2
p1471
sbag1
(g24
g3
Ntp1472
Rp1473
(dp1474
g15
g1001
sg29
(lp1475
sg19
(I3
I99
tp1476
sg32
I4
sg33
(dp1477
sg17
VAmount 3
p1478
sbag1
(g24
g3
Ntp1479
Rp1480
(dp1481
g15
g1001
sg29
(lp1482
sg19
(I1
I104
tp1483
sg32
I1
sg33
(dp1484
I0
g1005
sI1
g1006
sI2
g1007
sI3
g1008
sI4
g1009
sI5
g1010
sI6
g1011
sI7
g1012
sI8
g1013
sI9
g1014
sI10
g1015
sI11
g1016
sI12
g1017
sI13
g1018
sI14
g1019
sI15
g1020
sI16
g1021
sI17
g1022
sI18
g1023
sI19
g1024
sI20
g1025
sI21
g1026
sI22
g1027
sI23
g1028
sI24
g1029
sI25
g1030
sI26
g1031
sI27
g1032
sI28
g1033
sI29
g1034
sI30
g1035
sI31
g1036
sI32
g1037
sI33
g1038
sI34
g1039
sI35
g1040
sI36
g1041
sI37
g1042
sI38
g1043
sI39
g1044
sI40
g1045
sI41
g1046
sI42
g1047
sI43
g1048
sI44
g1049
sI45
g1050
sI46
g1051
sI47
g1052
sI48
g1053
sI49
g1054
sI50
g1055
sI51
g1056
sI52
g1057
sI53
g1058
sI54
g1059
sI55
g1060
sI56
g1061
sI57
g1062
sI58
g1063
sI59
g1064
sI60
g1065
sI61
g1066
sI62
g1067
sI63
g1068
sI64
g1069
sI65
g1070
sI66
g1071
sI67
g1072
sI68
g1073
sI69
g1074
sI70
g1075
sI71
g1076
sI72
g1077
sI73
g1078
sI74
g1079
sI75
g1080
sI76
g1081
sI77
g1082
sI80
g1083
sI82
g1084
sI83
g1085
sI84
g1086
sI85
g1087
sI86
g1088
sI87
g1089
sI88
g1090
sI89
g1091
sI90
g1092
sI91
g1093
sI92
g1094
sI93
g1095
sI94
g1096
sI95
g1097
sI96
g1098
sI97
g1099
sI98
g1100
sI99
g1101
sI100
g1102
sI101
g1103
sI102
g1104
sI103
g1105
sI104
g1106
sI105
g1107
sI106
g1108
sI107
g1109
sI108
g1110
sI109
g1111
sI110
g1112
sI111
g1113
sI112
g1114
sI113
g1115
sI114
g1116
sI115
g1117
sI116
g1118
sI117
g1119
sI118
g1120
sI119
g1121
sI120
g1122
sI121
g1123
sI122
g1124
sI123
g1125
sI124
g1126
sI125
g1127
sI126
g1128
sI127
g1129
ssg17
VDest 1
p1485
sbag1
(g24
g3
Ntp1486
Rp1487
(dp1488
g15
g1001
sg29
(lp1489
sg19
(I3
I96
tp1490
sg32
I1
sg33
(dp1491
I0
g1005
sI1
g1006
sI2
g1007
sI3
g1008
sI4
g1009
sI5
g1010
sI6
g1011
sI7
g1012
sI8
g1013
sI9
g1014
sI10
g1015
sI11
g1016
sI12
g1017
sI13
g1018
sI14
g1019
sI15
g1020
sI16
g1021
sI17
g1022
sI18
g1023
sI19
g1024
sI20
g1025
sI21
g1026
sI22
g1027
sI23
g1028
sI24
g1029
sI25
g1030
sI26
g1031
sI27
g1032
sI28
g1033
sI29
g1034
sI30
g1035
sI31
g1036
sI32
g1037
sI33
g1038
sI34
g1039
sI35
g1040
sI36
g1041
sI37
g1042
sI38
g1043
sI39
g1044
sI40
g1045
sI41
g1046
sI42
g1047
sI43
g1048
sI44
g1049
sI45
g1050
sI46
g1051
sI47
g1052
sI48
g1053
sI49
g1054
sI50
g1055
sI51
g1056
sI52
g1057
sI53
g1058
sI54
g1059
sI55
g1060
sI56
g1061
sI57
g1062
sI58
g1063
sI59
g1064
sI60
g1065
sI61
g1066
sI62
g1067
sI63
g1068
sI64
g1069
sI65
g1070
sI66
g1071
sI67
g1072
sI68
g1073
sI69
g1074
sI70
g1075
sI71
g1076
sI72
g1077
sI73
g1078
sI74
g1079
sI75
g1080
sI76
g1081
sI77
g1082
sI80
g1083
sI82
g1084
sI83
g1085
sI84
g1086
sI85
g1087
sI86
g1088
sI87
g1089
sI88
g1090
sI89
g1091
sI90
g1092
sI91
g1093
sI92
g1094
sI93
g1095
sI94
g1096
sI95
g1097
sI96
g1098
sI97
g1099
sI98
g1100
sI99
g1101
sI100
g1102
sI101
g1103
sI102
g1104
sI103
g1105
sI104
g1106
sI105
g1107
sI106
g1108
sI107
g1109
sI108
g1110
sI109
g1111
sI110
g1112
sI111
g1113
sI112
g1114
sI113
g1115
sI114
g1116
sI115
g1117
sI116
g1118
sI117
g1119
sI118
g1120
sI119
g1121
sI120
g1122
sI121
g1123
sI122
g1124
sI123
g1125
sI124
g1126
sI125
g1127
sI126
g1128
sI127
g1129
ssg17
VDest 2
p1492
sbag1
(g24
g3
Ntp1493
Rp1494
(dp1495
g15
g1001
sg29
(lp1496
sg19
(I3
I98
tp1497
sg32
I1
sg33
(dp1498
I0
g1005
sI1
g1006
sI2
g1007
sI3
g1008
sI4
g1009
sI5
g1010
sI6
g1011
sI7
g1012
sI8
g1013
sI9
g1014
sI10
g1015
sI11
g1016
sI12
g1017
sI13
g1018
sI14
g1019
sI15
g1020
sI16
g1021
sI17
g1022
sI18
g1023
sI19
g1024
sI20
g1025
sI21
g1026
sI22
g1027
sI23
g1028
sI24
g1029
sI25
g1030
sI26
g1031
sI27
g1032
sI28
g1033
sI29
g1034
sI30
g1035
sI31
g1036
sI32
g1037
sI33
g1038
sI34
g1039
sI35
g1040
sI36
g1041
sI37
g1042
sI38
g1043
sI39
g1044
sI40
g1045
sI41
g1046
sI42
g1047
sI43
g1048
sI44
g1049
sI45
g1050
sI46
g1051
sI47
g1052
sI48
g1053
sI49
g1054
sI50
g1055
sI51
g1056
sI52
g1057
sI53
g1058
sI54
g1059
sI55
g1060
sI56
g1061
sI57
g1062
sI58
g1063
sI59
g1064
sI60
g1065
sI61
g1066
sI62
g1067
sI63
g1068
sI64
g1069
sI65
g1070
sI66
g1071
sI67
g1072
sI68
g1073
sI69
g1074
sI70
g1075
sI71
g1076
sI72
g1077
sI73
g1078
sI74
g1079
sI75
g1080
sI76
g1081
sI77
g1082
sI80
g1083
sI82
g1084
sI83
g1085
sI84
g1086
sI85
g1087
sI86
g1088
sI87
g1089
sI88
g1090
sI89
g1091
sI90
g1092
sI91
g1093
sI92
g1094
sI93
g1095
sI94
g1096
sI95
g1097
sI96
g1098
sI97
g1099
sI98
g1100
sI99
g1101
sI100
g1102
sI101
g1103
sI102
g1104
sI103
g1105
sI104
g1106
sI105
g1107
sI106
g1108
sI107
g1109
sI108
g1110
sI109
g1111
sI110
g1112
sI111
g1113
sI112
g1114
sI113
g1115
sI114
g1116
sI115
g1117
sI116
g1118
sI117
g1119
sI118
g1120
sI119
g1121
sI120
g1122
sI121
g1123
sI122
g1124
sI123
g1125
sI124
g1126
sI125
g1127
sI126
g1128
sI127
g1129
ssg17
VDest 3
p1499
sbasg33
(dp1500
sbag1
(g11
g3
Ntp1501
Rp1502
(dp1503
g15
g1353
sg17
VSlot 2
p1504
sg19
g1355
sg21
I0
sg22
(lp1505
g1
(g24
g3
Ntp1506
Rp1507
(dp1508
g15
g1360
sg29
(lp1509
sg19
(I1
I67
tp1510
sg32
I1
sg33
(dp1511
I0
g1364
sI1
g1365
sI2
g1366
sI3
g1367
sI4
g1368
sI5
g1369
sI6
g1370
sI7
g1371
sI8
g1372
sI9
g1373
sI10
g1374
sI11
g1375
sI12
g1376
sI13
g1377
sI14
g1378
sI15
g1379
sI16
g1380
sI17
g1381
sI18
g1382
sI19
g1383
sI20
g1384
sI21
g1385
sI22
g1386
sI23
g1387
sI24
g1388
sI25
g1389
sI26
g1390
sI27
g1391
sI28
g1392
sI29
g1393
sI30
g1394
sI31
g1395
sI32
g1396
sI33
g1397
sI34
g1398
sI35
g1399
sI36
g1400
sI37
g1401
ssg17
VSource
p1512
sbag1
(g24
g3
Ntp1513
Rp1514
(dp1515
g15
g1001
sg29
(lp1516
sg19
(I1
I69
tp1517
sg32
I4
sg33
(dp1518
sg17
VAmount 1
p1519
sbag1
(g24
g3
Ntp1520
Rp1521
(dp1522
g15
g1001
sg29
(lp1523
sg19
(I1
I71
tp1524
sg32
I4
sg33
(dp1525
sg17
VAmount 2
p1526
sbag1
(g24
g3
Ntp1527
Rp1528
(dp1529
g15
g1001
sg29
(lp1530
sg19
(I3
I95
tp1531
sg32
I4
sg33
(dp1532
sg17
VAmount 3
p1533
sbag1
(g24
g3
Ntp1534
Rp1535
(dp1536
g15
g1001
sg29
(lp1537
sg19
(I1
I68
tp1538
sg32
I1
sg33
(dp1539
I0
g1005
sI1
g1006
sI2
g1007
sI3
g1008
sI4
g1009
sI5
g1010
sI6
g1011
sI7
g1012
sI8
g1013
sI9
g1014
sI10
g1015
sI11
g1016
sI12
g1017
sI13
g1018
sI14
g1019
sI15
g1020
sI16
g1021
sI17
g1022
sI18
g1023
sI19
g1024
sI20
g1025
sI21
g1026
sI22
g1027
sI23
g1028
sI24
g1029
sI25
g1030
sI26
g1031
sI27
g1032
sI28
g1033
sI29
g1034
sI30
g1035
sI31
g1036
sI32
g1037
sI33
g1038
sI34
g1039
sI35
g1040
sI36
g1041
sI37
g1042
sI38
g1043
sI39
g1044
sI40
g1045
sI41
g1046
sI42
g1047
sI43
g1048
sI44
g1049
sI45
g1050
sI46
g1051
sI47
g1052
sI48
g1053
sI49
g1054
sI50
g1055
sI51
g1056
sI52
g1057
sI53
g1058
sI54
g1059
sI55
g1060
sI56
g1061
sI57
g1062
sI58
g1063
sI59
g1064
sI60
g1065
sI61
g1066
sI62
g1067
sI63
g1068
sI64
g1069
sI65
g1070
sI66
g1071
sI67
g1072
sI68
g1073
sI69
g1074
sI70
g1075
sI71
g1076
sI72
g1077
sI73
g1078
sI74
g1079
sI75
g1080
sI76
g1081
sI77
g1082
sI80
g1083
sI82
g1084
sI83
g1085
sI84
g1086
sI85
g1087
sI86
g1088
sI87
g1089
sI88
g1090
sI89
g1091
sI90
g1092
sI91
g1093
sI92
g1094
sI93
g1095
sI94
g1096
sI95
g1097
sI96
g1098
sI97
g1099
sI98
g1100
sI99
g1101
sI100
g1102
sI101
g1103
sI102
g1104
sI103
g1105
sI104
g1106
sI105
g1107
sI106
g1108
sI107
g1109
sI108
g1110
sI109
g1111
sI110
g1112
sI111
g1113
sI112
g1114
sI113
g1115
sI114
g1116
sI115
g1117
sI116
g1118
sI117
g1119
sI118
g1120
sI119
g1121
sI120
g1122
sI121
g1123
sI122
g1124
sI123
g1125
sI124
g1126
sI125
g1127
sI126
g1128
sI127
g1129
ssg17
VDest 1
p1540
sbag1
(g24
g3
Ntp1541
Rp1542
(dp1543
g15
g1001
sg29
(lp1544
sg19
(I1
I70
tp1545
sg32
I1
sg33
(dp1546
I0
g1005
sI1
g1006
sI2
g1007
sI3
g1008
sI4
g1009
sI5
g1010
sI6
g1011
sI7
g1012
sI8
g1013
sI9
g1014
sI10
g1015
sI11
g1016
sI12
g1017
sI13
g1018
sI14
g1019
sI15
g1020
sI16
g1021
sI17
g1022
sI18
g1023
sI19
g1024
sI20
g1025
sI21
g1026
sI22
g1027
sI23
g1028
sI24
g1029
sI25
g1030
sI26
g1031
sI27
g1032
sI28
g1033
sI29
g1034
sI30
g1035
sI31
g1036
sI32
g1037
sI33
g1038
sI34
g1039
sI35
g1040
sI36
g1041
sI37
g1042
sI38
g1043
sI39
g1044
sI40
g1045
sI41
g1046
sI42
g1047
sI43
g1048
sI44
g1049
sI45
g1050
sI46
g1051
sI47
g1052
sI48
g1053
sI49
g1054
sI50
g1055
sI51
g1056
sI52
g1057
sI53
g1058
sI54
g1059
sI55
g1060
sI56
g1061
sI57
g1062
sI58
g1063
sI59
g1064
sI60
g1065
sI61
g1066
sI62
g1067
sI63
g1068
sI64
g1069
sI65
g1070
sI66
g1071
sI67
g1072
sI68
g1073
sI69
g1074
sI70
g1075
sI71
g1076
sI72
g1077
sI73
g1078
sI74
g1079
sI75
g1080
sI76
g1081
sI77
g1082
sI80
g1083
sI82
g1084
sI83
g1085
sI84
g1086
sI85
g1087
sI86
g1088
sI87
g1089
sI88
g1090
sI89
g1091
sI90
g1092
sI91
g1093
sI92
g1094
sI93
g1095
sI94
g1096
sI95
g1097
sI96
g1098
sI97
g1099
sI98
g1100
sI99
g1101
sI100
g1102
sI101
g1103
sI102
g1104
sI103
g1105
sI104
g1106
sI105
g1107
sI106
g1108
sI107
g1109
sI108
g1110
sI109
g1111
sI110
g1112
sI111
g1113
sI112
g1114
sI113
g1115
sI114
g1116
sI115
g1117
sI116
g1118
sI117
g1119
sI118
g1120
sI119
g1121
sI120
g1122
sI121
g1123
sI122
g1124
sI123
g1125
sI124
g1126
sI125
g1127
sI126
g1128
sI127
g1129
ssg17
VDest 2
p1547
sbag1
(g24
g3
Ntp1548
Rp1549
(dp1550
g15
g1001
sg29
(lp1551
sg19
(I3
I94
tp1552
sg32
I1
sg33
(dp1553
I0
g1005
sI1
g1006
sI2
g1007
sI3
g1008
sI4
g1009
sI5
g1010
sI6
g1011
sI7
g1012
sI8
g1013
sI9
g1014
sI10
g1015
sI11
g1016
sI12
g1017
sI13
g1018
sI14
g1019
sI15
g1020
sI16
g1021
sI17
g1022
sI18
g1023
sI19
g1024
sI20
g1025
sI21
g1026
sI22
g1027
sI23
g1028
sI24
g1029
sI25
g1030
sI26
g1031
sI27
g1032
sI28
g1033
sI29
g1034
sI30
g1035
sI31
g1036
sI32
g1037
sI33
g1038
sI34
g1039
sI35
g1040
sI36
g1041
sI37
g1042
sI38
g1043
sI39
g1044
sI40
g1045
sI41
g1046
sI42
g1047
sI43
g1048
sI44
g1049
sI45
g1050
sI46
g1051
sI47
g1052
sI48
g1053
sI49
g1054
sI50
g1055
sI51
g1056
sI52
g1057
sI53
g1058
sI54
g1059
sI55
g1060
sI56
g1061
sI57
g1062
sI58
g1063
sI59
g1064
sI60
g1065
sI61
g1066
sI62
g1067
sI63
g1068
sI64
g1069
sI65
g1070
sI66
g1071
sI67
g1072
sI68
g1073
sI69
g1074
sI70
g1075
sI71
g1076
sI72
g1077
sI73
g1078
sI74
g1079
sI75
g1080
sI76
g1081
sI77
g1082
sI80
g1083
sI82
g1084
sI83
g1085
sI84
g1086
sI85
g1087
sI86
g1088
sI87
g1089
sI88
g1090
sI89
g1091
sI90
g1092
sI91
g1093
sI92
g1094
sI93
g1095
sI94
g1096
sI95
g1097
sI96
g1098
sI97
g1099
sI98
g1100
sI99
g1101
sI100
g1102
sI101
g1103
sI102
g1104
sI103
g1105
sI104
g1106
sI105
g1107
sI106
g1108
sI107
g1109
sI108
g1110
sI109
g1111
sI110
g1112
sI111
g1113
sI112
g1114
sI113
g1115
sI114
g1116
sI115
g1117
sI116
g1118
sI117
g1119
sI118
g1120
sI119
g1121
sI120
g1122
sI121
g1123
sI122
g1124
sI123
g1125
sI124
g1126
sI125
g1127
sI126
g1128
sI127
g1129
ssg17
VDest 3
p1554
sbasg33
(dp1555
sbag1
(g11
g3
Ntp1556
Rp1557
(dp1558
g15
g1353
sg17
VSlot 5
p1559
sg19
g1355
sg21
I0
sg22
(lp1560
g1
(g24
g3
Ntp1561
Rp1562
(dp1563
g15
g1360
sg29
(lp1564
sg19
(I1
I106
tp1565
sg32
I1
sg33
(dp1566
I0
g1364
sI1
g1365
sI2
g1366
sI3
g1367
sI4
g1368
sI5
g1369
sI6
g1370
sI7
g1371
sI8
g1372
sI9
g1373
sI10
g1374
sI11
g1375
sI12
g1376
sI13
g1377
sI14
g1378
sI15
g1379
sI16
g1380
sI17
g1381
sI18
g1382
sI19
g1383
sI20
g1384
sI21
g1385
sI22
g1386
sI23
g1387
sI24
g1388
sI25
g1389
sI26
g1390
sI27
g1391
sI28
g1392
sI29
g1393
sI30
g1394
sI31
g1395
sI32
g1396
sI33
g1397
sI34
g1398
sI35
g1399
sI36
g1400
sI37
g1401
ssg17
VSource
p1567
sbag1
(g24
g3
Ntp1568
Rp1569
(dp1570
g15
g1001
sg29
(lp1571
sg19
(I1
I108
tp1572
sg32
I4
sg33
(dp1573
sg17
VAmount 1
p1574
sbag1
(g24
g3
Ntp1575
Rp1576
(dp1577
g15
g1001
sg29
(lp1578
sg19
(I3
I101
tp1579
sg32
I4
sg33
(dp1580
sg17
VAmount 2
p1581
sbag1
(g24
g3
Ntp1582
Rp1583
(dp1584
g15
g1001
sg29
(lp1585
sg19
(I3
I103
tp1586
sg32
I4
sg33
(dp1587
sg17
VAmount 3
p1588
sbag1
(g24
g3
Ntp1589
Rp1590
(dp1591
g15
g1001
sg29
(lp1592
sg19
(I1
I107
tp1593
sg32
I1
sg33
(dp1594
I0
g1005
sI1
g1006
sI2
g1007
sI3
g1008
sI4
g1009
sI5
g1010
sI6
g1011
sI7
g1012
sI8
g1013
sI9
g1014
sI10
g1015
sI11
g1016
sI12
g1017
sI13
g1018
sI14
g1019
sI15
g1020
sI16
g1021
sI17
g1022
sI18
g1023
sI19
g1024
sI20
g1025
sI21
g1026
sI22
g1027
sI23
g1028
sI24
g1029
sI25
g1030
sI26
g1031
sI27
g1032
sI28
g1033
sI29
g1034
sI30
g1035
sI31
g1036
sI32
g1037
sI33
g1038
sI34
g1039
sI35
g1040
sI36
g1041
sI37
g1042
sI38
g1043
sI39
g1044
sI40
g1045
sI41
g1046
sI42
g1047
sI43
g1048
sI44
g1049
sI45
g1050
sI46
g1051
sI47
g1052
sI48
g1053
sI49
g1054
sI50
g1055
sI51
g1056
sI52
g1057
sI53
g1058
sI54
g1059
sI55
g1060
sI56
g1061
sI57
g1062
sI58
g1063
sI59
g1064
sI60
g1065
sI61
g1066
sI62
g1067
sI63
g1068
sI64
g1069
sI65
g1070
sI66
g1071
sI67
g1072
sI68
g1073
sI69
g1074
sI70
g1075
sI71
g1076
sI72
g1077
sI73
g1078
sI74
g1079
sI75
g1080
sI76
g1081
sI77
g1082
sI80
g1083
sI82
g1084
sI83
g1085
sI84
g1086
sI85
g1087
sI86
g1088
sI87
g1089
sI88
g1090
sI89
g1091
sI90
g1092
sI91
g1093
sI92
g1094
sI93
g1095
sI94
g1096
sI95
g1097
sI96
g1098
sI97
g1099
sI98
g1100
sI99
g1101
sI100
g1102
sI101
g1103
sI102
g1104
sI103
g1105
sI104
g1106
sI105
g1107
sI106
g1108
sI107
g1109
sI108
g1110
sI109
g1111
sI110
g1112
sI111
g1113
sI112
g1114
sI113
g1115
sI114
g1116
sI115
g1117
sI116
g1118
sI117
g1119
sI118
g1120
sI119
g1121
sI120
g1122
sI121
g1123
sI122
g1124
sI123
g1125
sI124
g1126
sI125
g1127
sI126
g1128
sI127
g1129
ssg17
VDest 1
p1595
sbag1
(g24
g3
Ntp1596
Rp1597
(dp1598
g15
g1001
sg29
(lp1599
sg19
(I3
I100
tp1600
sg32
I1
sg33
(dp1601
I0
g1005
sI1
g1006
sI2
g1007
sI3
g1008
sI4
g1009
sI5
g1010
sI6
g1011
sI7
g1012
sI8
g1013
sI9
g1014
sI10
g1015
sI11
g1016
sI12
g1017
sI13
g1018
sI14
g1019
sI15
g1020
sI16
g1021
sI17
g1022
sI18
g1023
sI19
g1024
sI20
g1025
sI21
g1026
sI22
g1027
sI23
g1028
sI24
g1029
sI25
g1030
sI26
g1031
sI27
g1032
sI28
g1033
sI29
g1034
sI30
g1035
sI31
g1036
sI32
g1037
sI33
g1038
sI34
g1039
sI35
g1040
sI36
g1041
sI37
g1042
sI38
g1043
sI39
g1044
sI40
g1045
sI41
g1046
sI42
g1047
sI43
g1048
sI44
g1049
sI45
g1050
sI46
g1051
sI47
g1052
sI48
g1053
sI49
g1054
sI50
g1055
sI51
g1056
sI52
g1057
sI53
g1058
sI54
g1059
sI55
g1060
sI56
g1061
sI57
g1062
sI58
g1063
sI59
g1064
sI60
g1065
sI61
g1066
sI62
g1067
sI63
g1068
sI64
g1069
sI65
g1070
sI66
g1071
sI67
g1072
sI68
g1073
sI69
g1074
sI70
g1075
sI71
g1076
sI72
g1077
sI73
g1078
sI74
g1079
sI75
g1080
sI76
g1081
sI77
g1082
sI80
g1083
sI82
g1084
sI83
g1085
sI84
g1086
sI85
g1087
sI86
g1088
sI87
g1089
sI88
g1090
sI89
g1091
sI90
g1092
sI91
g1093
sI92
g1094
sI93
g1095
sI94
g1096
sI95
g1097
sI96
g1098
sI97
g1099
sI98
g1100
sI99
g1101
sI100
g1102
sI101
g1103
sI102
g1104
sI103
g1105
sI104
g1106
sI105
g1107
sI106
g1108
sI107
g1109
sI108
g1110
sI109
g1111
sI110
g1112
sI111
g1113
sI112
g1114
sI113
g1115
sI114
g1116
sI115
g1117
sI116
g1118
sI117
g1119
sI118
g1120
sI119
g1121
sI120
g1122
sI121
g1123
sI122
g1124
sI123
g1125
sI124
g1126
sI125
g1127
sI126
g1128
sI127
g1129
ssg17
VDest 2
p1602
sbag1
(g24
g3
Ntp1603
Rp1604
(dp1605
g15
g1001
sg29
(lp1606
sg19
(I3
I102
tp1607
sg32
I1
sg33
(dp1608
I0
g1005
sI1
g1006
sI2
g1007
sI3
g1008
sI4
g1009
sI5
g1010
sI6
g1011
sI7
g1012
sI8
g1013
sI9
g1014
sI10
g1015
sI11
g1016
sI12
g1017
sI13
g1018
sI14
g1019
sI15
g1020
sI16
g1021
sI17
g1022
sI18
g1023
sI19
g1024
sI20
g1025
sI21
g1026
sI22
g1027
sI23
g1028
sI24
g1029
sI25
g1030
sI26
g1031
sI27
g1032
sI28
g1033
sI29
g1034
sI30
g1035
sI31
g1036
sI32
g1037
sI33
g1038
sI34
g1039
sI35
g1040
sI36
g1041
sI37
g1042
sI38
g1043
sI39
g1044
sI40
g1045
sI41
g1046
sI42
g1047
sI43
g1048
sI44
g1049
sI45
g1050
sI46
g1051
sI47
g1052
sI48
g1053
sI49
g1054
sI50
g1055
sI51
g1056
sI52
g1057
sI53
g1058
sI54
g1059
sI55
g1060
sI56
g1061
sI57
g1062
sI58
g1063
sI59
g1064
sI60
g1065
sI61
g1066
sI62
g1067
sI63
g1068
sI64
g1069
sI65
g1070
sI66
g1071
sI67
g1072
sI68
g1073
sI69
g1074
sI70
g1075
sI71
g1076
sI72
g1077
sI73
g1078
sI74
g1079
sI75
g1080
sI76
g1081
sI77
g1082
sI80
g1083
sI82
g1084
sI83
g1085
sI84
g1086
sI85
g1087
sI86
g1088
sI87
g1089
sI88
g1090
sI89
g1091
sI90
g1092
sI91
g1093
sI92
g1094
sI93
g1095
sI94
g1096
sI95
g1097
sI96
g1098
sI97
g1099
sI98
g1100
sI99
g1101
sI100
g1102
sI101
g1103
sI102
g1104
sI103
g1105
sI104
g1106
sI105
g1107
sI106
g1108
sI107
g1109
sI108
g1110
sI109
g1111
sI110
g1112
sI111
g1113
sI112
g1114
sI113
g1115
sI114
g1116
sI115
g1117
sI116
g1118
sI117
g1119
sI118
g1120
sI119
g1121
sI120
g1122
sI121
g1123
sI122
g1124
sI123
g1125
sI124
g1126
sI125
g1127
sI126
g1128
sI127
g1129
ssg17
VDest 3
p1609
sbasg33
(dp1610
sbag1
(g11
g3
Ntp1611
Rp1612
(dp1613
g15
g1353
sg17
VSlot 3
p1614
sg19
g1355
sg21
I0
sg22
(lp1615
g1
(g24
g3
Ntp1616
Rp1617
(dp1618
g15
g1360
sg29
(lp1619
sg19
(I1
I72
tp1620
sg32
I1
sg33
(dp1621
I0
g1364
sI1
g1365
sI2
g1366
sI3
g1367
sI4
g1368
sI5
g1369
sI6
g1370
sI7
g1371
sI8
g1372
sI9
g1373
sI10
g1374
sI11
g1375
sI12
g1376
sI13
g1377
sI14
g1378
sI15
g1379
sI16
g1380
sI17
g1381
sI18
g1382
sI19
g1383
sI20
g1384
sI21
g1385
sI22
g1386
sI23
g1387
sI24
g1388
sI25
g1389
sI26
g1390
sI27
g1391
sI28
g1392
sI29
g1393
sI30
g1394
sI31
g1395
sI32
g1396
sI33
g1397
sI34
g1398
sI35
g1399
sI36
g1400
sI37
g1401
ssg17
VSource
p1622
sbag1
(g24
g3
Ntp1623
Rp1624
(dp1625
g15
g1001
sg29
(lp1626
sg19
(I1
I74
tp1627
sg32
I4
sg33
(dp1628
sg17
VAmount 1
p1629
sbag1
(g24
g3
Ntp1630
Rp1631
(dp1632
g15
g1001
sg29
(lp1633
sg19
(I1
I76
tp1634
sg32
I4
sg33
(dp1635
sg17
VAmount 2
p1636
sbag1
(g24
g3
Ntp1637
Rp1638
(dp1639
g15
g1001
sg29
(lp1640
sg19
(I1
I78
tp1641
sg32
I4
sg33
(dp1642
sg17
VAmount 3
p1643
sbag1
(g24
g3
Ntp1644
Rp1645
(dp1646
g15
g1001
sg29
(lp1647
sg19
(I1
I73
tp1648
sg32
I1
sg33
(dp1649
I0
g1005
sI1
g1006
sI2
g1007
sI3
g1008
sI4
g1009
sI5
g1010
sI6
g1011
sI7
g1012
sI8
g1013
sI9
g1014
sI10
g1015
sI11
g1016
sI12
g1017
sI13
g1018
sI14
g1019
sI15
g1020
sI16
g1021
sI17
g1022
sI18
g1023
sI19
g1024
sI20
g1025
sI21
g1026
sI22
g1027
sI23
g1028
sI24
g1029
sI25
g1030
sI26
g1031
sI27
g1032
sI28
g1033
sI29
g1034
sI30
g1035
sI31
g1036
sI32
g1037
sI33
g1038
sI34
g1039
sI35
g1040
sI36
g1041
sI37
g1042
sI38
g1043
sI39
g1044
sI40
g1045
sI41
g1046
sI42
g1047
sI43
g1048
sI44
g1049
sI45
g1050
sI46
g1051
sI47
g1052
sI48
g1053
sI49
g1054
sI50
g1055
sI51
g1056
sI52
g1057
sI53
g1058
sI54
g1059
sI55
g1060
sI56
g1061
sI57
g1062
sI58
g1063
sI59
g1064
sI60
g1065
sI61
g1066
sI62
g1067
sI63
g1068
sI64
g1069
sI65
g1070
sI66
g1071
sI67
g1072
sI68
g1073
sI69
g1074
sI70
g1075
sI71
g1076
sI72
g1077
sI73
g1078
sI74
g1079
sI75
g1080
sI76
g1081
sI77
g1082
sI80
g1083
sI82
g1084
sI83
g1085
sI84
g1086
sI85
g1087
sI86
g1088
sI87
g1089
sI88
g1090
sI89
g1091
sI90
g1092
sI91
g1093
sI92
g1094
sI93
g1095
sI94
g1096
sI95
g1097
sI96
g1098
sI97
g1099
sI98
g1100
sI99
g1101
sI100
g1102
sI101
g1103
sI102
g1104
sI103
g1105
sI104
g1106
sI105
g1107
sI106
g1108
sI107
g1109
sI108
g1110
sI109
g1111
sI110
g1112
sI111
g1113
sI112
g1114
sI113
g1115
sI114
g1116
sI115
g1117
sI116
g1118
sI117
g1119
sI118
g1120
sI119
g1121
sI120
g1122
sI121
g1123
sI122
g1124
sI123
g1125
sI124
g1126
sI125
g1127
sI126
g1128
sI127
g1129
ssg17
VDest 1
p1650
sbag1
(g24
g3
Ntp1651
Rp1652
(dp1653
g15
g1001
sg29
(lp1654
sg19
(I1
I75
tp1655
sg32
I1
sg33
(dp1656
I0
g1005
sI1
g1006
sI2
g1007
sI3
g1008
sI4
g1009
sI5
g1010
sI6
g1011
sI7
g1012
sI8
g1013
sI9
g1014
sI10
g1015
sI11
g1016
sI12
g1017
sI13
g1018
sI14
g1019
sI15
g1020
sI16
g1021
sI17
g1022
sI18
g1023
sI19
g1024
sI20
g1025
sI21
g1026
sI22
g1027
sI23
g1028
sI24
g1029
sI25
g1030
sI26
g1031
sI27
g1032
sI28
g1033
sI29
g1034
sI30
g1035
sI31
g1036
sI32
g1037
sI33
g1038
sI34
g1039
sI35
g1040
sI36
g1041
sI37
g1042
sI38
g1043
sI39
g1044
sI40
g1045
sI41
g1046
sI42
g1047
sI43
g1048
sI44
g1049
sI45
g1050
sI46
g1051
sI47
g1052
sI48
g1053
sI49
g1054
sI50
g1055
sI51
g1056
sI52
g1057
sI53
g1058
sI54
g1059
sI55
g1060
sI56
g1061
sI57
g1062
sI58
g1063
sI59
g1064
sI60
g1065
sI61
g1066
sI62
g1067
sI63
g1068
sI64
g1069
sI65
g1070
sI66
g1071
sI67
g1072
sI68
g1073
sI69
g1074
sI70
g1075
sI71
g1076
sI72
g1077
sI73
g1078
sI74
g1079
sI75
g1080
sI76
g1081
sI77
g1082
sI80
g1083
sI82
g1084
sI83
g1085
sI84
g1086
sI85
g1087
sI86
g1088
sI87
g1089
sI88
g1090
sI89
g1091
sI90
g1092
sI91
g1093
sI92
g1094
sI93
g1095
sI94
g1096
sI95
g1097
sI96
g1098
sI97
g1099
sI98
g1100
sI99
g1101
sI100
g1102
sI101
g1103
sI102
g1104
sI103
g1105
sI104
g1106
sI105
g1107
sI106
g1108
sI107
g1109
sI108
g1110
sI109
g1111
sI110
g1112
sI111
g1113
sI112
g1114
sI113
g1115
sI114
g1116
sI115
g1117
sI116
g1118
sI117
g1119
sI118
g1120
sI119
g1121
sI120
g1122
sI121
g1123
sI122
g1124
sI123
g1125
sI124
g1126
sI125
g1127
sI126
g1128
sI127
g1129
ssg17
VDest 2
p1657
sbag1
(g24
g3
Ntp1658
Rp1659
(dp1660
g15
g1001
sg29
(lp1661
sg19
(I1
I77
tp1662
sg32
I1
sg33
(dp1663
I0
g1005
sI1
g1006
sI2
g1007
sI3
g1008
sI4
g1009
sI5
g1010
sI6
g1011
sI7
g1012
sI8
g1013
sI9
g1014
sI10
g1015
sI11
g1016
sI12
g1017
sI13
g1018
sI14
g1019
sI15
g1020
sI16
g1021
sI17
g1022
sI18
g1023
sI19
g1024
sI20
g1025
sI21
g1026
sI22
g1027
sI23
g1028
sI24
g1029
sI25
g1030
sI26
g1031
sI27
g1032
sI28
g1033
sI29
g1034
sI30
g1035
sI31
g1036
sI32
g1037
sI33
g1038
sI34
g1039
sI35
g1040
sI36
g1041
sI37
g1042
sI38
g1043
sI39
g1044
sI40
g1045
sI41
g1046
sI42
g1047
sI43
g1048
sI44
g1049
sI45
g1050
sI46
g1051
sI47
g1052
sI48
g1053
sI49
g1054
sI50
g1055
sI51
g1056
sI52
g1057
sI53
g1058
sI54
g1059
sI55
g1060
sI56
g1061
sI57
g1062
sI58
g1063
sI59
g1064
sI60
g1065
sI61
g1066
sI62
g1067
sI63
g1068
sI64
g1069
sI65
g1070
sI66
g1071
sI67
g1072
sI68
g1073
sI69
g1074
sI70
g1075
sI71
g1076
sI72
g1077
sI73
g1078
sI74
g1079
sI75
g1080
sI76
g1081
sI77
g1082
sI80
g1083
sI82
g1084
sI83
g1085
sI84
g1086
sI85
g1087
sI86
g1088
sI87
g1089
sI88
g1090
sI89
g1091
sI90
g1092
sI91
g1093
sI92
g1094
sI93
g1095
sI94
g1096
sI95
g1097
sI96
g1098
sI97
g1099
sI98
g1100
sI99
g1101
sI100
g1102
sI101
g1103
sI102
g1104
sI103
g1105
sI104
g1106
sI105
g1107
sI106
g1108
sI107
g1109
sI108
g1110
sI109
g1111
sI110
g1112
sI111
g1113
sI112
g1114
sI113
g1115
sI114
g1116
sI115
g1117
sI116
g1118
sI117
g1119
sI118
g1120
sI119
g1121
sI120
g1122
sI121
g1123
sI122
g1124
sI123
g1125
sI124
g1126
sI125
g1127
sI126
g1128
sI127
g1129
ssg17
VDest 3
p1664
sbasg33
(dp1665
sbag1
(g11
g3
Ntp1666
Rp1667
(dp1668
g15
g1353
sg17
VSlot 6
p1669
sg19
g1355
sg21
I0
sg22
(lp1670
g1
(g24
g3
Ntp1671
Rp1672
(dp1673
g15
g1360
sg29
(lp1674
sg19
(I1
I109
tp1675
sg32
I1
sg33
(dp1676
I0
g1364
sI1
g1365
sI2
g1366
sI3
g1367
sI4
g1368
sI5
g1369
sI6
g1370
sI7
g1371
sI8
g1372
sI9
g1373
sI10
g1374
sI11
g1375
sI12
g1376
sI13
g1377
sI14
g1378
sI15
g1379
sI16
g1380
sI17
g1381
sI18
g1382
sI19
g1383
sI20
g1384
sI21
g1385
sI22
g1386
sI23
g1387
sI24
g1388
sI25
g1389
sI26
g1390
sI27
g1391
sI28
g1392
sI29
g1393
sI30
g1394
sI31
g1395
sI32
g1396
sI33
g1397
sI34
g1398
sI35
g1399
sI36
g1400
sI37
g1401
ssg17
VSource
p1677
sbag1
(g24
g3
Ntp1678
Rp1679
(dp1680
g15
g1001
sg29
(lp1681
sg19
(I1
I111
tp1682
sg32
I4
sg33
(dp1683
sg17
VAmount 1
p1684
sbag1
(g24
g3
Ntp1685
Rp1686
(dp1687
g15
g1001
sg29
(lp1688
sg19
(I3
I105
tp1689
sg32
I4
sg33
(dp1690
sg17
VAmount 2
p1691
sbag1
(g24
g3
Ntp1692
Rp1693
(dp1694
g15
g1001
sg29
(lp1695
sg19
(I3
I107
tp1696
sg32
I4
sg33
(dp1697
sg17
VAmount 3
p1698
sbag1
(g24
g3
Ntp1699
Rp1700
(dp1701
g15
g1001
sg29
(lp1702
sg19
(I1
I110
tp1703
sg32
I1
sg33
(dp1704
I0
g1005
sI1
g1006
sI2
g1007
sI3
g1008
sI4
g1009
sI5
g1010
sI6
g1011
sI7
g1012
sI8
g1013
sI9
g1014
sI10
g1015
sI11
g1016
sI12
g1017
sI13
g1018
sI14
g1019
sI15
g1020
sI16
g1021
sI17
g1022
sI18
g1023
sI19
g1024
sI20
g1025
sI21
g1026
sI22
g1027
sI23
g1028
sI24
g1029
sI25
g1030
sI26
g1031
sI27
g1032
sI28
g1033
sI29
g1034
sI30
g1035
sI31
g1036
sI32
g1037
sI33
g1038
sI34
g1039
sI35
g1040
sI36
g1041
sI37
g1042
sI38
g1043
sI39
g1044
sI40
g1045
sI41
g1046
sI42
g1047
sI43
g1048
sI44
g1049
sI45
g1050
sI46
g1051
sI47
g1052
sI48
g1053
sI49
g1054
sI50
g1055
sI51
g1056
sI52
g1057
sI53
g1058
sI54
g1059
sI55
g1060
sI56
g1061
sI57
g1062
sI58
g1063
sI59
g1064
sI60
g1065
sI61
g1066
sI62
g1067
sI63
g1068
sI64
g1069
sI65
g1070
sI66
g1071
sI67
g1072
sI68
g1073
sI69
g1074
sI70
g1075
sI71
g1076
sI72
g1077
sI73
g1078
sI74
g1079
sI75
g1080
sI76
g1081
sI77
g1082
sI80
g1083
sI82
g1084
sI83
g1085
sI84
g1086
sI85
g1087
sI86
g1088
sI87
g1089
sI88
g1090
sI89
g1091
sI90
g1092
sI91
g1093
sI92
g1094
sI93
g1095
sI94
g1096
sI95
g1097
sI96
g1098
sI97
g1099
sI98
g1100
sI99
g1101
sI100
g1102
sI101
g1103
sI102
g1104
sI103
g1105
sI104
g1106
sI105
g1107
sI106
g1108
sI107
g1109
sI108
g1110
sI109
g1111
sI110
g1112
sI111
g1113
sI112
g1114
sI113
g1115
sI114
g1116
sI115
g1117
sI116
g1118
sI117
g1119
sI118
g1120
sI119
g1121
sI120
g1122
sI121
g1123
sI122
g1124
sI123
g1125
sI124
g1126
sI125
g1127
sI126
g1128
sI127
g1129
ssg17
VDest 1
p1705
sbag1
(g24
g3
Ntp1706
Rp1707
(dp1708
g15
g1001
sg29
(lp1709
sg19
(I3
I104
tp1710
sg32
I1
sg33
(dp1711
I0
g1005
sI1
g1006
sI2
g1007
sI3
g1008
sI4
g1009
sI5
g1010
sI6
g1011
sI7
g1012
sI8
g1013
sI9
g1014
sI10
g1015
sI11
g1016
sI12
g1017
sI13
g1018
sI14
g1019
sI15
g1020
sI16
g1021
sI17
g1022
sI18
g1023
sI19
g1024
sI20
g1025
sI21
g1026
sI22
g1027
sI23
g1028
sI24
g1029
sI25
g1030
sI26
g1031
sI27
g1032
sI28
g1033
sI29
g1034
sI30
g1035
sI31
g1036
sI32
g1037
sI33
g1038
sI34
g1039
sI35
g1040
sI36
g1041
sI37
g1042
sI38
g1043
sI39
g1044
sI40
g1045
sI41
g1046
sI42
g1047
sI43
g1048
sI44
g1049
sI45
g1050
sI46
g1051
sI47
g1052
sI48
g1053
sI49
g1054
sI50
g1055
sI51
g1056
sI52
g1057
sI53
g1058
sI54
g1059
sI55
g1060
sI56
g1061
sI57
g1062
sI58
g1063
sI59
g1064
sI60
g1065
sI61
g1066
sI62
g1067
sI63
g1068
sI64
g1069
sI65
g1070
sI66
g1071
sI67
g1072
sI68
g1073
sI69
g1074
sI70
g1075
sI71
g1076
sI72
g1077
sI73
g1078
sI74
g1079
sI75
g1080
sI76
g1081
sI77
g1082
sI80
g1083
sI82
g1084
sI83
g1085
sI84
g1086
sI85
g1087
sI86
g1088
sI87
g1089
sI88
g1090
sI89
g1091
sI90
g1092
sI91
g1093
sI92
g1094
sI93
g1095
sI94
g1096
sI95
g1097
sI96
g1098
sI97
g1099
sI98
g1100
sI99
g1101
sI100
g1102
sI101
g1103
sI102
g1104
sI103
g1105
sI104
g1106
sI105
g1107
sI106
g1108
sI107
g1109
sI108
g1110
sI109
g1111
sI110
g1112
sI111
g1113
sI112
g1114
sI113
g1115
sI114
g1116
sI115
g1117
sI116
g1118
sI117
g1119
sI118
g1120
sI119
g1121
sI120
g1122
sI121
g1123
sI122
g1124
sI123
g1125
sI124
g1126
sI125
g1127
sI126
g1128
sI127
g1129
ssg17
VDest 2
p1712
sbag1
(g24
g3
Ntp1713
Rp1714
(dp1715
g15
g1001
sg29
(lp1716
sg19
(I3
I106
tp1717
sg32
I1
sg33
(dp1718
I0
g1005
sI1
g1006
sI2
g1007
sI3
g1008
sI4
g1009
sI5
g1010
sI6
g1011
sI7
g1012
sI8
g1013
sI9
g1014
sI10
g1015
sI11
g1016
sI12
g1017
sI13
g1018
sI14
g1019
sI15
g1020
sI16
g1021
sI17
g1022
sI18
g1023
sI19
g1024
sI20
g1025
sI21
g1026
sI22
g1027
sI23
g1028
sI24
g1029
sI25
g1030
sI26
g1031
sI27
g1032
sI28
g1033
sI29
g1034
sI30
g1035
sI31
g1036
sI32
g1037
sI33
g1038
sI34
g1039
sI35
g1040
sI36
g1041
sI37
g1042
sI38
g1043
sI39
g1044
sI40
g1045
sI41
g1046
sI42
g1047
sI43
g1048
sI44
g1049
sI45
g1050
sI46
g1051
sI47
g1052
sI48
g1053
sI49
g1054
sI50
g1055
sI51
g1056
sI52
g1057
sI53
g1058
sI54
g1059
sI55
g1060
sI56
g1061
sI57
g1062
sI58
g1063
sI59
g1064
sI60
g1065
sI61
g1066
sI62
g1067
sI63
g1068
sI64
g1069
sI65
g1070
sI66
g1071
sI67
g1072
sI68
g1073
sI69
g1074
sI70
g1075
sI71
g1076
sI72
g1077
sI73
g1078
sI74
g1079
sI75
g1080
sI76
g1081
sI77
g1082
sI80
g1083
sI82
g1084
sI83
g1085
sI84
g1086
sI85
g1087
sI86
g1088
sI87
g1089
sI88
g1090
sI89
g1091
sI90
g1092
sI91
g1093
sI92
g1094
sI93
g1095
sI94
g1096
sI95
g1097
sI96
g1098
sI97
g1099
sI98
g1100
sI99
g1101
sI100
g1102
sI101
g1103
sI102
g1104
sI103
g1105
sI104
g1106
sI105
g1107
sI106
g1108
sI107
g1109
sI108
g1110
sI109
g1111
sI110
g1112
sI111
g1113
sI112
g1114
sI113
g1115
sI114
g1116
sI115
g1117
sI116
g1118
sI117
g1119
sI118
g1120
sI119
g1121
sI120
g1122
sI121
g1123
sI122
g1124
sI123
g1125
sI124
g1126
sI125
g1127
sI126
g1128
sI127
g1129
ssg17
VDest 3
p1719
sbasg33
(dp1720
sbasg17
V.Matrix
p1721
sg559
I3
sba.