(lp0
ccopy_reg
_reconstructor
p1
(cvxcctrl
PageDef
p2
c__builtin__
object
p3
Ntp4
Rp5
(dp6
S'collength'
p7
(dp8
I0
I1
sI1
I1
ssS'blocks'
p9
(lp10
g1
(cvxcctrl
BlockDef
p11
g3
Ntp12
Rp13
(dp14
S'valrange'
p15
(I0
I7
tp16
sS'name'
p17
VOsc 1
p18
sS'cid'
p19
(I3
I30
tp20
sS'modetype'
p21
I1
sS'ctrldefs'
p22
(lp23
g1
(cvxcctrl
CtrlDef
p24
g3
Ntp25
Rp26
(dp27
g15
(I0
I7
tp28
sS'modes'
p29
(lp30
I0
aI1
aI2
aI3
aI4
aI5
aI6
aI7
asg19
(I3
I30
tp31
sS'ctype'
p32
I1
sS'valinfo'
p33
(dp34
I0
VClassic
p35
sI1
VHyperSaw
p36
sI2
VWavetable
p37
sI3
VWave PWM
p38
sI4
VGrain Simple
p39
sI5
VGrain Complex
p40
sI6
VFormant Simple
p41
sI7
VFormant Complex
p42
ssg17
VMode
p43
sbag1
(g24
g3
Ntp44
Rp45
(dp46
g15
(I0
I127
tp47
sg29
(lp48
I0
asg19
(I0
I17
tp49
sg32
I2
sg33
(dp50
I0
VWave
p51
sI1
VWave>Saw
p52
sI2
VSaw
p53
sI3
VSaw>Pulse
p54
sI4
VPulse
p55
ssg17
VShape
p56
sbag1
(g24
g3
Ntp57
Rp58
(dp59
g15
(I0
I127
tp60
sg29
(lp61
I1
asg19
(I0
I17
tp62
sg32
I8
sg33
(dp63
I0
V1 0
p64
sI1
V1.6 17
p65
sI2
V2 32
p66
sI3
V3 64
p67
sI4
V4 80
p68
sI5
V5 96
p69
sI6
V6 104
p70
sI7
V7 112
p71
sI8
V8 120
p72
sI9
V9 127
p73
ssg17
VDensity
p74
sbag1
(g24
g3
Ntp75
Rp76
(dp77
g15
(I0
I127
tp78
sg29
(lp79
I2
aI3
aI4
aI5
aI6
aI7
asg19
(I0
I17
tp80
sg32
I0
sg33
(dp81
sg17
VIndex
p82
sbag1
(g24
g3
Ntp83
Rp84
(dp85
g15
(I2
I63
tp86
sg29
(lp87
I0
asg19
(I0
I19
tp88
sg32
I12
sg33
(dp89
I0
VSine
p90
sI1
VTriangle
p91
sI2
VWave 3
p92
ssg17
VWave Sel
p93
sbag1
(g24
g3
Ntp94
Rp95
(dp96
g15
(I0
I99
tp97
sg29
(lp98
I2
aI3
aI4
aI5
aI6
aI7
asg19
(I0
I19
tp99
sg32
I1
sg33
(dp100
I0
VSine
p101
sI1
VHarmncSweep
p102
sI2
VGlass Sweep
p103
sI3
VDraw Bars
p104
sI4
VCluster
p105
sI5
VInsine Out
p106
sI6
VLanding
p107
sI7
VLiquid Metal
p108
sI8
VOpposition
p109
sI9
VOvertunes 1
p110
sI10
VOvertunes 2
p111
sI11
VScale Trix
p112
sI12
VSine Rider
p113
sI13
VSqr Series
p114
sI14
VUpsine Down
p115
sI15
VThumbs Up
p116
sI16
VWaterphone
p117
sI17
VE-Chime
p118
sI18
VTinkabell
p119
sI19
VBellfizz
p120
sI20
VBellentine
p121
sI21
VRobot Wars
p122
sI22
VAlternator
p123
sI23
VFinger Bass
p124
sI24
VFizzybar
p125
sI25
VFlutes
p126
sI26
VHP Love
p127
sI27
VMajestix
p128
sI28
VHotch Potch
p129
sI29
VResynater
p130
sI30
VSmooth Rough
p131
sI31
VSawsalito
p132
sI32
VBells 1
p133
sI33
VBells 2
p134
sI34
VSportReport
p135
sI35
VMetal Guru
p136
sI36
VBat Cave
p137
sI37
VAcetate
p138
sI38
VBuzzbizz
p139
sI39
VBuzzpartout
p140
sI40
VVanish
p141
sI41
VOverbones
p142
sI42
VPulsechecker
p143
sI43
VStratosfear
p144
sI44
VSooty Sweep
p145
sI45
VThroaty
p146
sI46
VDidgitalis
p147
sI47
VEvil
p148
sI48
VChords
p149
sI49
VFM Grit
p150
sI50
VBellsarnie
p151
sI51
VOctavius
p152
sI52
VEat Pulse
p153
sI53
VSinzin
p154
sI54
VSine System
p155
sI55
VClip Sweep
p156
sI56
VRoughage
p157
sI57
VWaving
p158
sI58
VPling Saw
p159
sI59
VE-Peas
p160
sI60
VBump Sweep
p161
sI61
VFilter Sqr
p162
sI62
VFourmant
p163
sI63
VFormantera
p164
sI64
VSundial 1
p165
sI65
VSundial 2
p166
sI66
VSundial 3
p167
sI67
VClipdial 1
p168
sI68
VClipdial 2
p169
sI69
VVoxonix
p170
sI70
VSolenoid
p171
sI71
VKlingKlang
p172
sI72
VViolator
p173
sI73
VPotassium
p174
sI74
VPile Up
p175
sI75
VTincanali
p176
sI76
VSniper
p177
sI77
VSqueezy
p178
sI78
VDecomposer
p179
sI79
VMorfants
p180
sI80
VPingvox
p181
sI81
VAdenoids
p182
sI82
VNasal
p183
sI83
VPartialism
p184
sI84
VTableDance
p185
sI85
VCascade
p186
sI86
VPrismism
p187
sI87
VFriction
p188
sI88
VRobotix
p189
sI89
VWhizzfizz
p190
sI90
VSpangly
p191
sI91
VFluxbin
p192
sI92
VFiboglide
p193
sI93
VFibonice
p194
sI94
VFibonasty
p195
sI95
VPenetrator
p196
sI96
VBlinder
p197
sI97
VElement 5
p198
sI98
VBad Signs
p199
sI99
VDomina7rix
p200
ssg17
VWaveTable
p201
sbag1
(g24
g3
Ntp202
Rp203
(dp204
g15
(I0
I127
tp205
sg29
(lp206
I0
asg19
(I0
I18
tp207
sg32
I7
sg33
(dp208
I0
V50
p209
sI1
V100
p210
ssg17
VPulse Width
p211
sbag1
(g24
g3
Ntp212
Rp213
(dp214
g15
g205
sg29
(lp215
I3
asg19
g207
sg32
I0
sg33
(dp216
I0
g209
sI1
g210
ssg17
VPulse Width
p217
sbag1
(g24
g3
Ntp218
Rp219
(dp220
g15
(I0
I127
tp221
sg29
(lp222
I1
asg19
(I0
I18
tp223
sg32
I0
sg33
(dp224
sg17
VLocal Detune
p225
sbag1
(g24
g3
Ntp226
Rp227
(dp228
g15
(I0
I1
tp229
sg29
(lp230
I1
asg19
(I0
I28
tp231
sg32
I9
sg33
(dp232
I0
VOff
p233
sI1
VOn
p234
ssg17
VSync
p235
sbag1
(g24
g3
Ntp236
Rp237
(dp238
g15
(I0
I127
tp239
sg29
(lp240
I1
asg19
(I0
I27
tp241
sg32
I0
sg33
(dp242
sg17
VSync Freq
p243
sbag1
(g24
g3
Ntp244
Rp245
(dp246
g15
g239
sg29
(lp247
I4
aI5
aI6
aI7
asg19
(I3
I42
tp248
sg32
I4
sg33
(dp249
sg17
VF-Shift
p250
sbag1
(g24
g3
Ntp251
Rp252
(dp253
g15
g239
sg29
(lp254
I5
aI7
asg19
(I3
I37
tp255
sg32
I0
sg33
(dp256
sg17
VF-Spread
p257
sbag1
(g24
g3
Ntp258
Rp259
(dp260
g15
g239
sg29
(lp261
I2
aI3
aI4
aI5
aI6
aI7
asg19
(I3
I44
tp262
sg32
I0
sg33
(dp263
sg17
VInterpolation
p264
sbag1
(g24
g3
Ntp265
Rp266
(dp267
g15
g239
sg29
(lp268
I3
aI5
aI7
asg19
(I3
I43
tp269
sg32
I0
sg33
(dp270
sg17
VLocal Detune
p271
sbag1
(g24
g3
Ntp272
Rp273
(dp274
g15
(I0
I127
tp275
sg29
(lp276
sg19
(I0
I17
tp277
sg32
I11
sg33
(dp278
sg17
V----
p279
sbag1
(g24
g3
Ntp280
Rp281
(dp282
g15
(I16
I112
tp283
sg29
(lp284
I0
aI1
aI2
aI3
aI4
aI5
aI6
aI7
asg19
(I0
I20
tp285
sg32
I4
sg33
(dp286
sg17
VSemitone
p287
sbag1
(g24
g3
Ntp288
Rp289
(dp290
g15
(I0
I127
tp291
sg29
(lp292
I0
aI1
aI2
aI3
aI4
aI5
aI6
aI7
asg19
(I0
I21
tp293
sg32
I6
sg33
(dp294
I0
VNorm 32
p295
ssg17
VKey Follow
p296
sbasg33
(dp297
sbag1
(g11
g3
Ntp298
Rp299
(dp300
g15
g16
sg17
VOsc 2
p301
sg19
(I3
I35
tp302
sg21
I1
sg22
(lp303
g1
(g24
g3
Ntp304
Rp305
(dp306
g15
g28
sg29
(lp307
I0
aI1
aI2
aI3
aI4
aI5
aI6
aI7
asg19
(I3
I35
tp308
sg32
I1
sg33
(dp309
I0
g35
sI1
g36
sI2
g37
sI3
g38
sI4
VGrain Simple
p310
sI5
VGrain Complex
p311
sI6
VFormant Simple
p312
sI7
VFormant Complex
p313
ssg17
VMode
p314
sbag1
(g24
g3
Ntp315
Rp316
(dp317
g15
g47
sg29
(lp318
I0
asg19
(I0
I22
tp319
sg32
I2
sg33
(dp320
I0
g51
sI1
g52
sI2
g53
sI3
g54
sI4
g55
ssg17
VShape
p321
sbag1
(g24
g3
Ntp322
Rp323
(dp324
g15
g60
sg29
(lp325
I1
asg19
(I0
I22
tp326
sg32
I8
sg33
(dp327
I0
g64
sI1
g65
sI2
g66
sI3
g67
sI4
g68
sI5
g69
sI6
g70
sI7
g71
sI8
g72
sI9
g73
ssg17
VDensity
p328
sbag1
(g24
g3
Ntp329
Rp330
(dp331
g15
g78
sg29
(lp332
I2
aI3
aI4
aI5
aI6
aI7
asg19
(I0
I22
tp333
sg32
I0
sg33
(dp334
sg17
VIndex
p335
sbag1
(g24
g3
Ntp336
Rp337
(dp338
g15
g86
sg29
(lp339
I0
asg19
(I0
I24
tp340
sg32
I12
sg33
(dp341
I0
g90
sI1
g91
sI2
g92
ssg17
VWave Sel
p342
sbag1
(g24
g3
Ntp343
Rp344
(dp345
g15
g97
sg29
(lp346
I2
aI3
aI4
aI5
aI6
aI7
asg19
(I0
I24
tp347
sg32
I1
sg33
(dp348
I0
g101
sI1
g102
sI2
g103
sI3
g104
sI4
g105
sI5
g106
sI6
g107
sI7
g108
sI8
g109
sI9
g110
sI10
g111
sI11
g112
sI12
g113
sI13
g114
sI14
g115
sI15
g116
sI16
g117
sI17
g118
sI18
g119
sI19
g120
sI20
g121
sI21
g122
sI22
g123
sI23
g124
sI24
g125
sI25
g126
sI26
g127
sI27
g128
sI28
g129
sI29
g130
sI30
g131
sI31
g132
sI32
g133
sI33
g134
sI34
g135
sI35
g136
sI36
g137
sI37
g138
sI38
g139
sI39
g140
sI40
g141
sI41
g142
sI42
g143
sI43
g144
sI44
g145
sI45
g146
sI46
g147
sI47
g148
sI48
g149
sI49
g150
sI50
g151
sI51
g152
sI52
g153
sI53
g154
sI54
g155
sI55
g156
sI56
g157
sI57
g158
sI58
g159
sI59
g160
sI60
g161
sI61
g162
sI62
g163
sI63
g164
sI64
g165
sI65
g166
sI66
g167
sI67
g168
sI68
g169
sI69
g170
sI70
g171
sI71
g172
sI72
g173
sI73
g174
sI74
g175
sI75
g176
sI76
g177
sI77
g178
sI78
g179
sI79
g180
sI80
g181
sI81
g182
sI82
g183
sI83
g184
sI84
g185
sI85
g186
sI86
g187
sI87
g188
sI88
g189
sI89
g190
sI90
g191
sI91
g192
sI92
g193
sI93
g194
sI94
g195
sI95
g196
sI96
g197
sI97
g198
sI98
g199
sI99
g200
ssg17
VWaveTable
p349
sbag1
(g24
g3
Ntp350
Rp351
(dp352
g15
g205
sg29
(lp353
I0
asg19
(I0
I23
tp354
sg32
I7
sg33
(dp355
I0
g209
sI1
g210
ssg17
VPulse Width
p356
sbag1
(g24
g3
Ntp357
Rp358
(dp359
g15
g205
sg29
(lp360
I3
asg19
(I0
I23
tp361
sg32
I0
sg33
(dp362
I0
g209
sI1
g210
ssg17
VPulse Width
p363
sbag1
(g24
g3
Ntp364
Rp365
(dp366
g15
g221
sg29
(lp367
I1
asg19
(I0
I23
tp368
sg32
I0
sg33
(dp369
sg17
VLocal Detune
p370
sbag1
(g24
g3
Ntp371
Rp372
(dp373
g15
g229
sg29
(lp374
I0
aI1
asg19
g231
sg32
I9
sg33
(dp375
I0
g233
sI1
g234
ssg17
VSync
p376
sbag1
(g24
g3
Ntp377
Rp378
(dp379
g15
g239
sg29
(lp380
I1
asg19
g241
sg32
I0
sg33
(dp381
sg17
VSync Freq
p382
sbag1
(g24
g3
Ntp383
Rp384
(dp385
g15
g239
sg29
(lp386
I4
aI5
aI6
aI7
asg19
(I3
I62
tp387
sg32
I4
sg33
(dp388
sg17
VF-Shift
p389
sbag1
(g24
g3
Ntp390
Rp391
(dp392
g15
g239
sg29
(lp393
I5
aI7
asg19
(I3
I57
tp394
sg32
I0
sg33
(dp395
sg17
VF-Spread
p396
sbag1
(g24
g3
Ntp397
Rp398
(dp399
g15
g239
sg29
(lp400
I2
aI3
aI4
aI5
aI6
aI7
asg19
(I3
I64
tp401
sg32
I0
sg33
(dp402
sg17
VInterpolation
p403
sbag1
(g24
g3
Ntp404
Rp405
(dp406
g15
g239
sg29
(lp407
I3
aI5
aI7
asg19
(I3
I63
tp408
sg32
I0
sg33
(dp409
sg17
VLocal Detune
p410
sbag1
(g24
g3
Ntp411
Rp412
(dp413
g15
(I0
I127
tp414
sg29
(lp415
sg19
(I0
I17
tp416
sg32
I11
sg33
(dp417
sg17
V--
p418
sbag1
(g24
g3
Ntp419
Rp420
(dp421
g15
(I0
I6
tp422
sg29
(lp423
I0
asg19
(I1
I34
tp424
sg32
I1
sg33
(dp425
I0
VPos Triangle
p426
sI1
VTriangle
p427
sI2
VWave
p428
sI3
VNoise
p429
sI4
VIn L
p430
sI5
VIn L+R
p431
sI6
VIn R
p432
ssg17
VFM Mode
p433
sbag1
(g24
g3
Ntp434
Rp435
(dp436
g15
(I0
I1
tp437
sg29
(lp438
I2
aI3
aI4
aI5
aI6
aI7
asg19
g424
sg32
I1
sg33
(dp439
I0
VFreqMod
p440
sI1
VPhaseMod
p441
sI2
g428
sI3
g429
sI4
g430
sI5
g431
sI6
g432
ssg17
VFM Mode
p442
sbag1
(g24
g3
Ntp443
Rp444
(dp445
g15
g239
sg29
(lp446
I0
asg19
(I0
I27
tp447
sg32
I7
sg33
(dp448
I0
V0
p449
sI1
V100
p450
ssg17
VFM Amount
p451
sbag1
(g24
g3
Ntp452
Rp453
(dp454
g15
g239
sg29
(lp455
I2
aI3
aI4
aI5
aI6
aI7
asg19
g447
sg32
I0
sg33
(dp456
I0
g449
sI1
g450
ssg17
VFM Amount
p457
sbag1
(g24
g3
Ntp458
Rp459
(dp460
g15
g414
sg29
(lp461
sg19
g416
sg32
I11
sg33
(dp462
sg17
V--
p463
sbag1
(g24
g3
Ntp464
Rp465
(dp466
g15
g283
sg29
(lp467
I0
aI1
aI2
aI3
aI4
aI5
aI6
aI7
asg19
(I0
I25
tp468
sg32
I4
sg33
(dp469
sg17
VSemitone
p470
sbag1
(g24
g3
Ntp471
Rp472
(dp473
g15
g291
sg29
(lp474
I0
aI1
aI2
aI3
aI4
aI5
aI6
aI7
asg19
(I0
I31
tp475
sg32
I6
sg33
(dp476
I0
g295
ssg17
VKey Follow
p477
sbag1
(g24
g3
Ntp478
Rp479
(dp480
g15
g239
sg29
(lp481
I0
aI1
aI2
aI3
aI4
aI5
aI6
aI7
asg19
(I0
I26
tp482
sg32
I0
sg33
(dp483
sg17
VDetune
p484
sbasg33
(dp485
sbag1
(g11
g3
Ntp486
Rp487
(dp488
g15
(I2
I67
tp489
sg17
VOsc 3
p490
sg19
(I1
I41
tp491
sg21
I2
sg22
(lp492
g1
(g24
g3
Ntp493
Rp494
(dp495
g15
(I6
I67
tp496
sg29
(lp497
I0
aI1
aI2
asg19
(I1
I41
tp498
sg32
I12
sg33
(dp499
I0
VOff
p500
sI1
VSlave
p501
sI2
VSaw
p502
sI3
VPulse
p503
sI4
VSine
p504
sI5
VTriangle
p505
sI6
VWave 3
p506
ssg17
VMode/Wave
p507
sbag1
(g24
g3
Ntp508
Rp509
(dp510
g15
(I16
I112
tp511
sg29
(lp512
I2
asg19
(I1
I43
tp513
sg32
I4
sg33
(dp514
sg17
VSemitone
p515
sbag1
(g24
g3
Ntp516
Rp517
(dp518
g15
(I0
I127
tp519
sg29
(lp520
I2
asg19
(I1
I42
tp521
sg32
I0
sg33
(dp522
sg17
VVolume
p523
sbag1
(g24
g3
Ntp524
Rp525
(dp526
g15
g519
sg29
(lp527
I2
asg19
(I1
I44
tp528
sg32
I0
sg33
(dp529
sg17
VDetune
p530
sbag1
(g24
g3
Ntp531
Rp532
(dp533
g15
(I0
I127
tp534
sg29
(lp535
sg19
(I0
I17
tp536
sg32
I11
sg33
(dp537
sg17
V--
p538
sbasg33
(dp539
sbag1
(g11
g3
Ntp540
Rp541
(dp542
g15
(I0
I7
tp543
sg17
Vnew block
p544
sg19
(I3
I35
tp545
sg21
I3
sg22
(lp546
g1
(g24
g3
Ntp547
Rp548
(dp549
g15
(I0
I1
tp550
sg29
(lp551
I1
aI8
asg19
(I0
I28
tp552
sg32
I9
sg33
(dp553
sg17
Vsync
p554
sbag1
(g24
g3
Ntp555
Rp556
(dp557
g15
(I0
I6
tp558
sg29
(lp559
I0
asg19
(I1
I34
tp560
sg32
I0
sg33
(dp561
sg17
Vfm mode
p562
sbag1
(g24
g3
Ntp563
Rp564
(dp565
g15
(I0
I1
tp566
sg29
(lp567
I2
aI3
aI4
aI5
aI6
aI7
asg19
g560
sg32
I0
sg33
(dp568
sg17
Vfm mode
p569
sbasg33
(dp570
I0
V6E 30 1
p571
ssbasg17
VOsc
p572
sS'cols'
p573
I2
sba.