(lp0
ccopy_reg
_reconstructor
p1
(cvxcctrl
PageDef
p2
c__builtin__
object
p3
Ntp4
Rp5
(dp6
S'blocks'
p7
(lp8
g1
(cvxcctrl
BlockDef
p9
g3
Ntp10
Rp11
(dp12
S'info'
p13
NsS'valrange'
p14
(I0
I7
tp15
sS'name'
p16
VOsc 1
p17
sS'cid'
p18
(I3
I30
tp19
sS'modetype'
p20
I1
sS'ctrldefs'
p21
(lp22
g1
(cvxcctrl
CtrlDef
p23
g3
Ntp24
Rp25
(dp26
g14
(I0
I7
tp27
sS'modes'
p28
(lp29
I0
aI1
aI2
aI3
aI4
aI5
aI6
aI7
asg18
(I3
I30
tp30
sS'ctype'
p31
I1
sS'valinfo'
p32
(dp33
I0
VClassic
p34
sI1
VHyperSaw
p35
sI2
VWavetable
p36
sI3
VWave PWM
p37
sI4
VGrain Simple
p38
sI5
VGrain Complex
p39
sI6
VFormant Simple
p40
sI7
VFormant Complex
p41
ssg16
VMode
p42
sbag1
(g23
g3
Ntp43
Rp44
(dp45
g14
(I0
I127
tp46
sg28
(lp47
I0
asg18
(I0
I17
tp48
sg31
I2
sg32
(dp49
I0
VWave
p50
sI1
VWave>Saw
p51
sI2
VSaw
p52
sI3
VSaw>Pulse
p53
sI4
VPulse
p54
ssg16
VShape
p55
sbag1
(g23
g3
Ntp56
Rp57
(dp58
g14
(I0
I127
tp59
sg28
(lp60
I1
asg18
(I0
I17
tp61
sg31
I8
sg32
(dp62
I0
V1 0
p63
sI1
V1.6 17
p64
sI2
V2 32
p65
sI3
V3 64
p66
sI4
V4 80
p67
sI5
V5 96
p68
sI6
V6 104
p69
sI7
V7 112
p70
sI8
V8 120
p71
sI9
V9 127
p72
ssg16
VDensity
p73
sbag1
(g23
g3
Ntp74
Rp75
(dp76
g14
(I0
I127
tp77
sg28
(lp78
I2
aI3
aI4
aI5
aI6
aI7
asg18
(I0
I17
tp79
sg31
I0
sg32
(dp80
sg16
VIndex
p81
sbag1
(g23
g3
Ntp82
Rp83
(dp84
g14
(I2
I63
tp85
sg28
(lp86
I0
asg18
(I0
I19
tp87
sg31
I12
sg32
(dp88
I0
VSine
p89
sI1
VTriangle
p90
sI2
VWave 3
p91
ssg16
VWave Sel
p92
sbag1
(g23
g3
Ntp93
Rp94
(dp95
g14
(I0
I99
tp96
sg28
(lp97
I2
aI3
aI4
aI5
aI6
aI7
asg18
(I0
I19
tp98
sg31
I1
sg32
(dp99
I0
VSine
p100
sI1
VHarmncSweep
p101
sI2
VGlass Sweep
p102
sI3
VDraw Bars
p103
sI4
VCluster
p104
sI5
VInsine Out
p105
sI6
VLanding
p106
sI7
VLiquid Metal
p107
sI8
VOpposition
p108
sI9
VOvertunes 1
p109
sI10
VOvertunes 2
p110
sI11
VScale Trix
p111
sI12
VSine Rider
p112
sI13
VSqr Series
p113
sI14
VUpsine Down
p114
sI15
VThumbs Up
p115
sI16
VWaterphone
p116
sI17
VE-Chime
p117
sI18
VTinkabell
p118
sI19
VBellfizz
p119
sI20
VBellentine
p120
sI21
VRobot Wars
p121
sI22
VAlternator
p122
sI23
VFinger Bass
p123
sI24
VFizzybar
p124
sI25
VFlutes
p125
sI26
VHP Love
p126
sI27
VMajestix
p127
sI28
VHotch Potch
p128
sI29
VResynater
p129
sI30
VSmooth Rough
p130
sI31
VSawsalito
p131
sI32
VBells 1
p132
sI33
VBells 2
p133
sI34
VSportReport
p134
sI35
VMetal Guru
p135
sI36
VBat Cave
p136
sI37
VAcetate
p137
sI38
VBuzzbizz
p138
sI39
VBuzzpartout
p139
sI40
VVanish
p140
sI41
VOverbones
p141
sI42
VPulsechecker
p142
sI43
VStratosfear
p143
sI44
VSooty Sweep
p144
sI45
VThroaty
p145
sI46
VDidgitalis
p146
sI47
VEvil
p147
sI48
VChords
p148
sI49
VFM Grit
p149
sI50
VBellsarnie
p150
sI51
VOctavius
p151
sI52
VEat Pulse
p152
sI53
VSinzin
p153
sI54
VSine System
p154
sI55
VClip Sweep
p155
sI56
VRoughage
p156
sI57
VWaving
p157
sI58
VPling Saw
p158
sI59
VE-Peas
p159
sI60
VBump Sweep
p160
sI61
VFilter Sqr
p161
sI62
VFourmant
p162
sI63
VFormantera
p163
sI64
VSundial 1
p164
sI65
VSundial 2
p165
sI66
VSundial 3
p166
sI67
VClipdial 1
p167
sI68
VClipdial 2
p168
sI69
VVoxonix
p169
sI70
VSolenoid
p170
sI71
VKlingKlang
p171
sI72
VViolator
p172
sI73
VPotassium
p173
sI74
VPile Up
p174
sI75
VTincanali
p175
sI76
VSniper
p176
sI77
VSqueezy
p177
sI78
VDecomposer
p178
sI79
VMorfants
p179
sI80
VPingvox
p180
sI81
VAdenoids
p181
sI82
VNasal
p182
sI83
VPartialism
p183
sI84
VTableDance
p184
sI85
VCascade
p185
sI86
VPrismism
p186
sI87
VFriction
p187
sI88
VRobotix
p188
sI89
VWhizzfizz
p189
sI90
VSpangly
p190
sI91
VFluxbin
p191
sI92
VFiboglide
p192
sI93
VFibonice
p193
sI94
VFibonasty
p194
sI95
VPenetrator
p195
sI96
VBlinder
p196
sI97
VElement 5
p197
sI98
VBad Signs
p198
sI99
VDomina7rix
p199
ssg16
VWaveTable
p200
sbag1
(g23
g3
Ntp201
Rp202
(dp203
g14
(I0
I127
tp204
sg28
(lp205
I0
asg18
(I0
I18
tp206
sg31
I7
sg32
(dp207
I0
V50
p208
sI1
V100
p209
ssg16
VPulse Width
p210
sbag1
(g23
g3
Ntp211
Rp212
(dp213
g14
g204
sg28
(lp214
I3
asg18
g206
sg31
I0
sg32
(dp215
I0
g208
sI1
g209
ssg16
VPulse Width
p216
sbag1
(g23
g3
Ntp217
Rp218
(dp219
g14
(I0
I127
tp220
sg28
(lp221
I1
asg18
(I0
I18
tp222
sg31
I0
sg32
(dp223
sg16
VLocal Detune
p224
sbag1
(g23
g3
Ntp225
Rp226
(dp227
g14
(I0
I1
tp228
sg28
(lp229
I1
asg18
(I0
I28
tp230
sg31
I9
sg32
(dp231
I0
VOff
p232
sI1
VOn
p233
ssg16
VSync
p234
sbag1
(g23
g3
Ntp235
Rp236
(dp237
g14
(I0
I127
tp238
sg28
(lp239
I1
asg18
(I0
I27
tp240
sg31
I0
sg32
(dp241
sg16
VSync Freq
p242
sbag1
(g23
g3
Ntp243
Rp244
(dp245
g14
g238
sg28
(lp246
I4
aI5
aI6
aI7
asg18
(I3
I42
tp247
sg31
I4
sg32
(dp248
sg16
VF-Shift
p249
sbag1
(g23
g3
Ntp250
Rp251
(dp252
g14
g238
sg28
(lp253
I5
aI7
asg18
(I3
I37
tp254
sg31
I0
sg32
(dp255
sg16
VF-Spread
p256
sbag1
(g23
g3
Ntp257
Rp258
(dp259
g14
g238
sg28
(lp260
I2
aI3
aI4
aI5
aI6
aI7
asg18
(I3
I44
tp261
sg31
I0
sg32
(dp262
sg16
VInterpolation
p263
sbag1
(g23
g3
Ntp264
Rp265
(dp266
g14
g238
sg28
(lp267
I3
aI5
aI7
asg18
(I3
I43
tp268
sg31
I0
sg32
(dp269
sg16
VLocal Detune
p270
sbag1
(g23
g3
Ntp271
Rp272
(dp273
g14
(I0
I127
tp274
sg28
(lp275
sg18
(I0
I17
tp276
sg31
I11
sg32
(dp277
sg16
V----
p278
sbag1
(g23
g3
Ntp279
Rp280
(dp281
g14
(I16
I112
tp282
sg28
(lp283
I0
aI1
aI2
aI3
aI4
aI5
aI6
aI7
asg18
(I0
I20
tp284
sg31
I4
sg32
(dp285
sg16
VSemitone
p286
sbag1
(g23
g3
Ntp287
Rp288
(dp289
g14
(I0
I127
tp290
sg28
(lp291
I0
aI1
aI2
aI3
aI4
aI5
aI6
aI7
asg18
(I0
I21
tp292
sg31
I6
sg32
(dp293
I0
VNorm 32
p294
ssg16
VKey Follow
p295
sbasbag1
(g9
g3
Ntp296
Rp297
(dp298
g13
Nsg14
g15
sg16
VOsc 2
p299
sg18
(I3
I35
tp300
sg20
I1
sg21
(lp301
g1
(g23
g3
Ntp302
Rp303
(dp304
g14
g27
sg28
(lp305
I0
aI1
aI2
aI3
aI4
aI5
aI6
aI7
asg18
(I3
I35
tp306
sg31
I1
sg32
(dp307
I0
g34
sI1
g35
sI2
g36
sI3
g37
sI4
VGrain Simple
p308
sI5
VGrain Complex
p309
sI6
VFormant Simple
p310
sI7
VFormant Complex
p311
ssg16
VMode
p312
sbag1
(g23
g3
Ntp313
Rp314
(dp315
g14
g46
sg28
(lp316
I0
asg18
(I0
I22
tp317
sg31
I2
sg32
(dp318
I0
g50
sI1
g51
sI2
g52
sI3
g53
sI4
g54
ssg16
VShape
p319
sbag1
(g23
g3
Ntp320
Rp321
(dp322
g14
g59
sg28
(lp323
I1
asg18
(I0
I22
tp324
sg31
I8
sg32
(dp325
I0
g63
sI1
g64
sI2
g65
sI3
g66
sI4
g67
sI5
g68
sI6
g69
sI7
g70
sI8
g71
sI9
g72
ssg16
VDensity
p326
sbag1
(g23
g3
Ntp327
Rp328
(dp329
g14
g77
sg28
(lp330
I2
aI3
aI4
aI5
aI6
aI7
asg18
(I0
I22
tp331
sg31
I0
sg32
(dp332
sg16
VIndex
p333
sbag1
(g23
g3
Ntp334
Rp335
(dp336
g14
g85
sg28
(lp337
I0
asg18
(I0
I24
tp338
sg31
I12
sg32
(dp339
I0
g89
sI1
g90
sI2
g91
ssg16
VWave Sel
p340
sbag1
(g23
g3
Ntp341
Rp342
(dp343
g14
g96
sg28
(lp344
I2
aI3
aI4
aI5
aI6
aI7
asg18
(I0
I24
tp345
sg31
I1
sg32
(dp346
I0
g100
sI1
g101
sI2
g102
sI3
g103
sI4
g104
sI5
g105
sI6
g106
sI7
g107
sI8
g108
sI9
g109
sI10
g110
sI11
g111
sI12
g112
sI13
g113
sI14
g114
sI15
g115
sI16
g116
sI17
g117
sI18
g118
sI19
g119
sI20
g120
sI21
g121
sI22
g122
sI23
g123
sI24
g124
sI25
g125
sI26
g126
sI27
g127
sI28
g128
sI29
g129
sI30
g130
sI31
g131
sI32
g132
sI33
g133
sI34
g134
sI35
g135
sI36
g136
sI37
g137
sI38
g138
sI39
g139
sI40
g140
sI41
g141
sI42
g142
sI43
g143
sI44
g144
sI45
g145
sI46
g146
sI47
g147
sI48
g148
sI49
g149
sI50
g150
sI51
g151
sI52
g152
sI53
g153
sI54
g154
sI55
g155
sI56
g156
sI57
g157
sI58
g158
sI59
g159
sI60
g160
sI61
g161
sI62
g162
sI63
g163
sI64
g164
sI65
g165
sI66
g166
sI67
g167
sI68
g168
sI69
g169
sI70
g170
sI71
g171
sI72
g172
sI73
g173
sI74
g174
sI75
g175
sI76
g176
sI77
g177
sI78
g178
sI79
g179
sI80
g180
sI81
g181
sI82
g182
sI83
g183
sI84
g184
sI85
g185
sI86
g186
sI87
g187
sI88
g188
sI89
g189
sI90
g190
sI91
g191
sI92
g192
sI93
g193
sI94
g194
sI95
g195
sI96
g196
sI97
g197
sI98
g198
sI99
g199
ssg16
VWaveTable
p347
sbag1
(g23
g3
Ntp348
Rp349
(dp350
g14
g204
sg28
(lp351
I0
asg18
(I0
I23
tp352
sg31
I7
sg32
(dp353
I0
g208
sI1
g209
ssg16
VPulse Width
p354
sbag1
(g23
g3
Ntp355
Rp356
(dp357
g14
g204
sg28
(lp358
I3
asg18
(I0
I23
tp359
sg31
I0
sg32
(dp360
I0
g208
sI1
g209
ssg16
VPulse Width
p361
sbag1
(g23
g3
Ntp362
Rp363
(dp364
g14
g220
sg28
(lp365
I1
asg18
(I0
I23
tp366
sg31
I0
sg32
(dp367
sg16
VLocal Detune
p368
sbag1
(g23
g3
Ntp369
Rp370
(dp371
g14
g228
sg28
(lp372
I0
aI1
asg18
g230
sg31
I9
sg32
(dp373
I0
g232
sI1
g233
ssg16
VSync
p374
sbag1
(g23
g3
Ntp375
Rp376
(dp377
g14
g238
sg28
(lp378
I1
asg18
g240
sg31
I0
sg32
(dp379
sg16
VSync Freq
p380
sbag1
(g23
g3
Ntp381
Rp382
(dp383
g14
g238
sg28
(lp384
I4
aI5
aI6
aI7
asg18
(I3
I62
tp385
sg31
I4
sg32
(dp386
sg16
VF-Shift
p387
sbag1
(g23
g3
Ntp388
Rp389
(dp390
g14
g238
sg28
(lp391
I5
aI7
asg18
(I3
I57
tp392
sg31
I0
sg32
(dp393
sg16
VF-Spread
p394
sbag1
(g23
g3
Ntp395
Rp396
(dp397
g14
g238
sg28
(lp398
I2
aI3
aI4
aI5
aI6
aI7
asg18
(I3
I64
tp399
sg31
I0
sg32
(dp400
sg16
VInterpolation
p401
sbag1
(g23
g3
Ntp402
Rp403
(dp404
g14
g238
sg28
(lp405
I3
aI5
aI7
asg18
(I3
I63
tp406
sg31
I0
sg32
(dp407
sg16
VLocal Detune
p408
sbag1
(g23
g3
Ntp409
Rp410
(dp411
g14
(I0
I127
tp412
sg28
(lp413
sg18
(I0
I17
tp414
sg31
I11
sg32
(dp415
sg16
V--
p416
sbag1
(g23
g3
Ntp417
Rp418
(dp419
g14
(I0
I6
tp420
sg28
(lp421
I0
asg18
(I1
I34
tp422
sg31
I1
sg32
(dp423
I0
VPos Triangle
p424
sI1
VTriangle
p425
sI2
VWave
p426
sI3
VNoise
p427
sI4
VIn L
p428
sI5
VIn L+R
p429
sI6
VIn R
p430
ssg16
VFM Mode
p431
sbag1
(g23
g3
Ntp432
Rp433
(dp434
g14
(I0
I1
tp435
sg28
(lp436
I2
aI3
aI4
aI5
aI6
aI7
asg18
g422
sg31
I1
sg32
(dp437
I0
VFreqMod
p438
sI1
VPhaseMod
p439
sI2
g426
sI3
g427
sI4
g428
sI5
g429
sI6
g430
ssg16
VFM Mode
p440
sbag1
(g23
g3
Ntp441
Rp442
(dp443
g14
g238
sg28
(lp444
I0
asg18
(I0
I27
tp445
sg31
I7
sg32
(dp446
I0
V0
p447
sI1
V100
p448
ssg16
VFM Amount
p449
sbag1
(g23
g3
Ntp450
Rp451
(dp452
g14
g238
sg28
(lp453
I2
aI3
aI4
aI5
aI6
aI7
asg18
g445
sg31
I0
sg32
(dp454
I0
g447
sI1
g448
ssg16
VFM Amount
p455
sbag1
(g23
g3
Ntp456
Rp457
(dp458
g14
g412
sg28
(lp459
sg18
g414
sg31
I11
sg32
(dp460
sg16
V--
p461
sbag1
(g23
g3
Ntp462
Rp463
(dp464
g14
g282
sg28
(lp465
I0
aI1
aI2
aI3
aI4
aI5
aI6
aI7
asg18
(I0
I25
tp466
sg31
I4
sg32
(dp467
sg16
VSemitone
p468
sbag1
(g23
g3
Ntp469
Rp470
(dp471
g14
g290
sg28
(lp472
I0
aI1
aI2
aI3
aI4
aI5
aI6
aI7
asg18
(I0
I31
tp473
sg31
I6
sg32
(dp474
I0
g294
ssg16
VKey Follow
p475
sbag1
(g23
g3
Ntp476
Rp477
(dp478
g14
g238
sg28
(lp479
I0
aI1
aI2
aI3
aI4
aI5
aI6
aI7
asg18
(I0
I26
tp480
sg31
I0
sg32
(dp481
sg16
VDetune
p482
sbasbag1
(g9
g3
Ntp483
Rp484
(dp485
g13
Nsg14
(I0
I67
tp486
sg16
VOsc 3
p487
sg18
(I1
I41
tp488
sg20
I2
sg21
(lp489
g1
(g23
g3
Ntp490
Rp491
(dp492
g14
(I6
I67
tp493
sg28
(lp494
I0
aI1
aI2
asg18
(I1
I41
tp495
sg31
I12
sg32
(dp496
I0
VOff
p497
sI1
VSlave
p498
sI2
VSaw
p499
sI3
VPulse
p500
sI4
VSine
p501
sI5
VTriangle
p502
sI6
VWave 3
p503
ssg16
VMode/Wave
p504
sbag1
(g23
g3
Ntp505
Rp506
(dp507
g14
(I16
I112
tp508
sg28
(lp509
I2
asg18
(I1
I43
tp510
sg31
I4
sg32
(dp511
sg16
VSemitone
p512
sbag1
(g23
g3
Ntp513
Rp514
(dp515
g14
(I0
I127
tp516
sg28
(lp517
I2
asg18
(I1
I42
tp518
sg31
I0
sg32
(dp519
sg16
VVolume
p520
sbag1
(g23
g3
Ntp521
Rp522
(dp523
g14
g516
sg28
(lp524
I2
asg18
(I1
I44
tp525
sg31
I0
sg32
(dp526
sg16
VDetune
p527
sbasbasg16
VOsc
p528
sba.