(lp0
ccopy_reg
_reconstructor
p1
(cctrllearn
CtrlDef
p2
c__builtin__
object
p3
Ntp4
Rp5
(dp6
S'transl'
p7
(dp8
sS'range'
p9
(I0
I127
tp10
sS'name'
p11
S'Osc1 Shape'
p12
sS'dumpind'
p13
I17
sS'type'
p14
I1
sS'nr'
p15
I17
sbag1
(g2
g3
Ntp16
Rp17
(dp18
g7
(dp19
sg9
(I0
I63
tp20
sg11
S'Osc1 Wave Select'
p21
sg13
I19
sg14
I1
sg15
I19
sbag1
(g2
g3
Ntp22
Rp23
(dp24
S'transl'
p25
(dp26
sS'range'
p27
(I0
I127
tp28
sS'name'
p29
S'Osc1 Pulse Width'
p30
sg13
I-1
sS'type'
p31
I1
sS'nr'
p32
I18
sbag1
(g2
g3
Ntp33
Rp34
(dp35
g25
(dp36
sg27
(I16
I112
tp37
sg29
S'Osc1 Semitone'
p38
sg13
I-1
sg31
I1
sg32
I20
sbag1
(g2
g3
Ntp39
Rp40
(dp41
g25
(dp42
sg27
(I0
I127
tp43
sg29
S'Osc1 Key Follow'
p44
sg13
I-1
sg31
I1
sg32
I21
sbag1
(g2
g3
Ntp45
Rp46
(dp47
g25
(dp48
sg27
(I0
I127
tp49
sg29
S'Osc1/2 Balance'
p50
sg13
I-1
sg31
I1
sg32
I33
sbag1
(g2
g3
Ntp51
Rp52
(dp53
S'transl'
p54
(dp55
sS'range'
p56
(I0
I7
tp57
sS'name'
p58
S'Osc1 Mode'
p59
sg13
I287
sS'type'
p60
I4
sS'nr'
p61
I30
sbag1
(g2
g3
Ntp62
Rp63
(dp64
S'transl'
p65
(dp66
sS'range'
p67
(I0
I2
tp68
sS'name'
p69
S'Osc Select'
p70
sg13
I255
sS'type'
p71
I2
sS'nr'
p72
I127
sbag1
(g2
g3
Ntp73
Rp74
(dp75
S'transl'
p76
(dp77
sS'range'
p78
(I32
I126
tp79
sS'name'
p80
S'Single Name 1'
p81
sS'dumpind'
p82
I240
sS'type'
p83
I2
sS'nr'
p84
I112
sbag1
(g2
g3
Ntp85
Rp86
(dp87
g76
(dp88
sg78
(I32
I126
tp89
sg80
S'Single Name 2'
p90
sg82
I241
sg83
I2
sg84
I113
sbag1
(g2
g3
Ntp91
Rp92
(dp93
g76
(dp94
sg78
(I32
I126
tp95
sg80
S'Single Name 3'
p96
sg82
I242
sg83
I2
sg84
I114
sbag1
(g2
g3
Ntp97
Rp98
(dp99
g76
(dp100
sg78
(I32
I126
tp101
sg80
S'Single Name 4'
p102
sg82
I-1
sg83
I2
sg84
I115
sbag1
(g2
g3
Ntp103
Rp104
(dp105
g76
(dp106
sg78
(I32
I126
tp107
sg80
S'Single Name 5'
p108
sg82
I-1
sg83
I2
sg84
I116
sbag1
(g2
g3
Ntp109
Rp110
(dp111
g76
(dp112
sg78
(I32
I126
tp113
sg80
S'Single Name 6'
p114
sg82
I-1
sg83
I2
sg84
I117
sbag1
(g2
g3
Ntp115
Rp116
(dp117
g76
(dp118
sg78
(I32
I126
tp119
sg80
S'Single Name 7'
p120
sg82
I-1
sg83
I2
sg84
I118
sbag1
(g2
g3
Ntp121
Rp122
(dp123
g76
(dp124
sg78
(I32
I126
tp125
sg80
S'Single Name 8'
p126
sg82
I247
sg83
I2
sg84
I119
sbag1
(g2
g3
Ntp127
Rp128
(dp129
g76
(dp130
sg78
(I32
I126
tp131
sg80
S'Single Name 9'
p132
sg82
I248
sg83
I2
sg84
I120
sbag1
(g2
g3
Ntp133
Rp134
(dp135
g76
(dp136
sg78
(I32
I126
tp137
sg80
S'Single Name 10'
p138
sg82
I249
sg83
I2
sg84
I121
sbag1
(g2
g3
Ntp139
Rp140
(dp141
S'name'
p142
S'Osc1 Density'
p143
sS'dumpind'
p144
I-1
sS'transl'
p145
(dp146
sS'range'
p147
(I0
I127
tp148
sS'nr'
p149
I17
sS'type'
p150
I1
sbag1
(g2
g3
Ntp151
Rp152
(dp153
g142
S'Osc1 Local Detune'
p154
sg144
I-1
sg145
(dp155
sg147
(I0
I127
tp156
sg149
I18
sg150
I1
sbag1
(g2
g3
Ntp157
Rp158
(dp159
g142
S'Osc1 Sync'
p160
sg144
I-1
sg145
(dp161
sg147
(I0
I1
tp162
sg149
I28
sg150
I1
sbag1
(g2
g3
Ntp163
Rp164
(dp165
g142
S'Osc1 Sync Frequency'
p166
sg144
I-1
sg145
(dp167
sg147
(I0
I127
tp168
sg149
I27
sg150
I1
sbag1
(g2
g3
Ntp169
Rp170
(dp171
g142
S'Osc1 Index'
p172
sg144
I-1
sg145
(dp173
sg147
(I0
I127
tp174
sg149
I17
sg150
I1
sbag1
(g2
g3
Ntp175
Rp176
(dp177
g142
S'Osc1 WaveTable'
p178
sg144
I-1
sg145
(dp179
sg147
(I0
I99
tp180
sg149
I19
sg150
I1
sbag1
(g2
g3
Ntp181
Rp182
(dp183
g142
S'Osc1 Interpolation'
p184
sg144
I-1
sg145
(dp185
sg147
(I0
I127
tp186
sg149
I44
sg150
I4
sbag1
(g2
g3
Ntp187
Rp188
(dp189
g142
S'Osc1 (WavePWM) Local Detune'
p190
sg144
I-1
sg145
(dp191
sg147
(I0
I127
tp192
sg149
I43
sg150
I4
sbag1
(g2
g3
Ntp193
Rp194
(dp195
g142
S'Osc1 F-Shift'
p196
sg144
I-1
sg145
(dp197
sg147
(I0
I127
tp198
sg149
I42
sg150
I4
sbag1
(g2
g3
Ntp199
Rp200
(dp201
g142
S'Osc1 F-Spread'
p202
sg144
I-1
sg145
(dp203
sg147
(I0
I127
tp204
sg149
I37
sg150
I4
sba.